Certificate:
    Data:
        Version: 3 (0x2)
        Serial Number:
            da:32:63:a2:a1:2d:00:00
        Signature Algorithm: sha1WithRSAEncryption
        Issuer: dc=org/dc=dataone, CN=DataONE Test CA
        Validity
            Not Before: Mar  8 03:01:13 2012 GMT
            Not After : Feb 13 03:01:13 2112 GMT
        Subject: dc=org/dc=dataone, CN=DataONE Test CA
        Subject Public Key Info:
            Public Key Algorithm: rsaEncryption
                Public-Key: (4096 bit)
                Modulus:
                    00:b6:77:72:f8:61:ed:53:7c:79:72:77:28:46:85:
                    3a:bc:97:c6:8c:45:c1:2b:68:73:a1:ec:58:2d:a3:
                    f1:c9:9a:a7:6d:22:ca:48:44:ea:fd:be:1b:84:0f:
                    4c:31:9b:ae:2a:96:77:5e:95:fc:52:ae:29:b2:07:
                    da:1e:51:8e:a6:a7:c3:be:42:69:51:af:5e:9d:fd:
                    6f:4f:9e:2b:d7:b5:1e:80:7a:3a:bd:6e:02:bb:04:
                    a5:32:5c:8b:42:a8:77:92:03:4c:4b:64:9c:39:d9:
                    1d:eb:4d:94:0f:de:30:1e:35:60:b0:ea:81:e9:8c:
                    e0:7a:ec:11:46:bb:cb:7d:d4:e2:f3:cf:7a:a8:81:
                    69:03:b5:07:89:4c:91:da:a4:b8:20:e9:e4:cc:80:
                    1b:e2:ef:c9:6f:e8:6a:80:a7:f8:ca:71:44:74:f2:
                    37:1a:80:d2:5d:12:03:f3:70:17:6a:a0:e2:57:64:
                    ef:6b:ba:2b:a5:34:b6:8c:a4:b8:67:44:ec:76:14:
                    08:ae:b4:a4:10:d9:01:e6:7c:69:08:72:00:19:f7:
                    f3:22:26:9e:f5:a5:ad:3c:66:89:68:71:ab:61:53:
                    6d:78:2e:bd:65:ff:b9:dc:93:3b:96:c9:8e:51:ee:
                    5a:58:99:c3:20:6f:8d:4a:ec:49:bc:76:d7:4a:26:
                    ec:cf:c2:8b:7c:39:80:8d:40:1d:2c:73:52:6c:d9:
                    c3:5a:54:4e:5f:40:2c:8a:f6:25:19:25:c8:73:15:
                    3b:29:3a:a0:c4:34:bb:dd:bc:ba:94:37:95:21:59:
                    89:d5:f4:16:77:05:42:a9:64:77:d0:a2:79:1d:3c:
                    2b:f0:43:d5:e0:46:30:62:c3:e3:09:1d:03:40:7b:
                    cd:39:52:19:84:a1:5e:e8:09:74:07:08:f5:27:b6:
                    f2:a5:4e:4c:c0:6a:fa:b9:29:ef:b7:91:5f:09:07:
                    43:87:d4:4f:db:3b:f3:89:fb:46:1b:aa:6f:76:5f:
                    3d:b9:f9:93:9c:ad:7f:01:07:68:f2:3f:56:18:01:
                    59:c6:0e:8d:38:88:79:32:97:aa:1e:ff:91:fb:9d:
                    ff:66:77:b4:e8:22:24:55:57:a3:6c:fc:58:23:20:
                    15:55:59:8a:c7:44:c3:e1:64:fd:95:27:8b:1f:35:
                    95:85:bb:a9:18:ef:7c:4e:40:b4:58:da:a1:ed:06:
                    d2:1a:0a:1c:2c:05:a5:98:25:0f:2b:58:de:3f:dc:
                    df:7a:05:e5:bb:98:91:8d:05:79:b7:c3:9e:bb:58:
                    a6:7c:40:11:a1:e3:fd:85:2c:3c:29:8a:c7:f4:18:
                    33:50:a8:20:41:1a:d7:94:c2:55:b6:40:87:9b:ed:
                    85:ee:f9
                Exponent: 65537 (0x10001)
        X509v3 extensions:
            X509v3 Subject Key Identifier: 
                9E:8B:82:0D:E5:97:34:40:F4:CB:7E:5A:0C:3B:CA:91:FD:5A:31:73
            X509v3 Authority Key Identifier: 
                keyid:9E:8B:82:0D:E5:97:34:40:F4:CB:7E:5A:0C:3B:CA:91:FD:5A:31:73

            X509v3 Basic Constraints: 
                CA:TRUE
    Signature Algorithm: sha1WithRSAEncryption
        19:5c:6b:ea:fd:16:a0:34:83:34:92:bd:ff:7f:b0:68:db:72:
        5d:b8:b2:92:3c:4b:2b:ae:aa:e5:53:88:d1:d8:06:25:5a:82:
        a9:04:c6:8e:a5:46:c4:4e:41:7f:c6:41:cb:5a:35:fa:00:01:
        e8:f5:9b:9d:e1:2c:2a:37:29:3d:36:cf:1d:c4:d0:39:2c:20:
        91:2f:2e:96:50:3d:73:33:49:ee:65:4f:24:56:d3:46:1a:9f:
        4e:00:3b:b8:dc:78:33:2e:f7:c2:bf:29:cf:2e:ad:6a:c2:7f:
        64:02:fe:f9:cd:a4:c7:71:60:a4:17:a6:50:cc:66:5c:91:83:
        05:59:ee:49:60:d5:7c:a5:bc:d8:13:7a:50:6a:96:f2:5d:71:
        64:09:bb:d9:3b:9c:c1:4a:72:db:b7:93:7f:ef:ed:18:1e:3f:
        d9:cb:68:a5:2e:05:1e:8d:de:ff:b7:d2:95:58:c6:2b:14:34:
        d5:0c:8f:98:09:02:fe:ab:45:40:88:a2:da:24:69:94:ee:ce:
        16:b7:32:2e:3b:ef:24:2b:90:81:31:34:dc:15:bf:f4:8f:15:
        5f:0c:a9:e3:50:00:18:7d:2d:81:5b:08:be:28:9e:a6:9e:94:
        0f:bc:99:83:b5:bc:1e:2d:3c:9f:19:51:67:5d:d1:b7:d6:61:
        62:f1:7d:c8:c5:af:31:25:c3:a4:bf:19:00:44:f3:52:2a:ca:
        7f:96:76:91:b4:ae:0a:3f:6e:3a:62:70:44:56:53:83:d1:1a:
        03:60:6a:a3:4f:49:fa:72:ca:91:2a:44:42:cd:88:c3:fd:3e:
        c1:5a:a2:1b:b1:5e:a6:e1:5c:69:13:02:96:8c:45:87:8f:87:
        8a:3d:fe:51:5a:07:cf:1f:cc:9d:2c:49:f8:f7:78:db:4b:47:
        fd:e3:ae:3c:ac:d4:cf:13:0b:bd:d4:c1:4e:47:2d:fd:25:d8:
        54:f0:12:f1:7f:75:30:78:47:3c:b5:d9:71:0c:c3:77:a1:0c:
        69:a3:fa:05:16:32:c2:d5:7e:81:02:9c:b0:fe:f0:53:27:94:
        aa:f2:6b:9c:b4:17:f9:c6:49:f8:96:e4:67:24:11:aa:c0:57:
        88:a8:83:be:e9:82:8e:c6:ef:79:93:7a:9e:48:0a:6a:b0:69:
        c5:62:f7:a8:b5:ed:42:3e:ee:d2:2c:1c:56:8e:7a:b1:dc:e8:
        e6:d8:ed:7f:78:65:49:c8:0b:3a:b9:2e:38:6b:a2:0e:23:89:
        ba:65:7f:76:b8:36:9e:ce:48:67:44:64:27:ef:4e:e3:2c:c2:
        6a:62:f9:ac:2e:14:d8:0f:1d:2f:9d:6c:25:95:fd:55:b5:89:
        51:b7:a4:7f:32:91:0f:db
-----BEGIN CERTIFICATE-----
MIIFZTCCA02gAwIBAgIJANoyY6KhLQAAMA0GCSqGSIb3DQEBBQUAMEgxEzARBgoJ
kiaJk/IsZAEZFgNvcmcxFzAVBgoJkiaJk/IsZAEZFgdkYXRhb25lMRgwFgYDVQQD
DA9EYXRhT05FIFRlc3QgQ0EwIBcNMTIwMzA4MDMwMTEzWhgPMjExMjAyMTMwMzAx
MTNaMEgxEzARBgoJkiaJk/IsZAEZFgNvcmcxFzAVBgoJkiaJk/IsZAEZFgdkYXRh
b25lMRgwFgYDVQQDDA9EYXRhT05FIFRlc3QgQ0EwggIiMA0GCSqGSIb3DQEBAQUA
A4ICDwAwggIKAoICAQC2d3L4Ye1TfHlydyhGhTq8l8aMRcEraHOh7Fgto/HJmqdt
IspIROr9vhuED0wxm64qlndelfxSrimyB9oeUY6mp8O+QmlRr16d/W9PnivXtR6A
ejq9bgK7BKUyXItCqHeSA0xLZJw52R3rTZQP3jAeNWCw6oHpjOB67BFGu8t91OLz
z3qogWkDtQeJTJHapLgg6eTMgBvi78lv6GqAp/jKcUR08jcagNJdEgPzcBdqoOJX
ZO9ruiulNLaMpLhnROx2FAiutKQQ2QHmfGkIcgAZ9/MiJp71pa08ZolocathU214
Lr1l/7nckzuWyY5R7lpYmcMgb41K7Em8dtdKJuzPwot8OYCNQB0sc1Js2cNaVE5f
QCyK9iUZJchzFTspOqDENLvdvLqUN5UhWYnV9BZ3BUKpZHfQonkdPCvwQ9XgRjBi
w+MJHQNAe805UhmEoV7oCXQHCPUntvKlTkzAavq5Ke+3kV8JB0OH1E/bO/OJ+0Yb
qm92Xz25+ZOcrX8BB2jyP1YYAVnGDo04iHkyl6oe/5H7nf9md7ToIiRVV6Ns/Fgj
IBVVWYrHRMPhZP2VJ4sfNZWFu6kY73xOQLRY2qHtBtIaChwsBaWYJQ8rWN4/3N96
BeW7mJGNBXm3w567WKZ8QBGh4/2FLDwpisf0GDNQqCBBGteUwlW2QIeb7YXu+QID
AQABo1AwTjAdBgNVHQ4EFgQUnouCDeWXNED0y35aDDvKkf1aMXMwHwYDVR0jBBgw
FoAUnouCDeWXNED0y35aDDvKkf1aMXMwDAYDVR0TBAUwAwEB/zANBgkqhkiG9w0B
AQUFAAOCAgEAGVxr6v0WoDSDNJK9/3+waNtyXbiykjxLK66q5VOI0dgGJVqCqQTG
jqVGxE5Bf8ZBy1o1+gAB6PWbneEsKjcpPTbPHcTQOSwgkS8ullA9czNJ7mVPJFbT
RhqfTgA7uNx4My73wr8pzy6tasJ/ZAL++c2kx3FgpBemUMxmXJGDBVnuSWDVfKW8
2BN6UGqW8l1xZAm72TucwUpy27eTf+/tGB4/2ctopS4FHo3e/7fSlVjGKxQ01QyP
mAkC/qtFQIii2iRplO7OFrcyLjvvJCuQgTE03BW/9I8VXwyp41AAGH0tgVsIviie
pp6UD7yZg7W8Hi08nxlRZ13Rt9ZhYvF9yMWvMSXDpL8ZAETzUirKf5Z2kbSuCj9u
OmJwRFZTg9EaA2Bqo09J+nLKkSpEQs2Iw/0+wVqiG7FepuFcaRMCloxFh4+Hij3+
UVoHzx/MnSxJ+Pd420tH/eOuPKzUzxMLvdTBTkct/SXYVPAS8X91MHhHPLXZcQzD
d6EMaaP6BRYywtV+gQKcsP7wUyeUqvJrnLQX+cZJ+JbkZyQRqsBXiKiDvumCjsbv
eZN6nkgKarBpxWL3qLXtQj7u0iwcVo56sdzo5tjtf3hlScgLOrkuOGuiDiOJumV/
drg2ns5IZ0RkJ+9O4yzCamL5rC4U2A8dL51sJZX9VbWJUbekfzKRD9s=
-----END CERTIFICATE-----
