Certificate:
    Data:
        Version: 3 (0x2)
        Serial Number:
            da:32:63:a2:a1:2d:00:25
        Signature Algorithm: sha1WithRSAEncryption
        Issuer: dc=org/dc=dataone, CN=DataONE Test CA
        Validity
            Not Before: Apr 11 00:13:57 2012 GMT
            Not After : Apr 11 00:13:57 2015 GMT
        Subject: dc=org/dc=dataone, CN=urn:node:D1USGS7
        Subject Public Key Info:
            Public Key Algorithm: rsaEncryption
                Public-Key: (2048 bit)
                Modulus:
                    00:c0:1a:e7:09:46:89:a6:03:89:d8:30:a2:60:69:
                    8b:80:aa:bf:51:80:30:e7:cf:df:ce:7d:df:8f:80:
                    18:9c:4c:5c:a8:73:d2:df:62:4e:5a:db:bd:d3:e5:
                    af:66:65:fc:33:57:f3:69:64:11:93:9c:c3:ba:5f:
                    7d:2f:9c:fa:a5:f4:6e:21:b4:6e:3b:d9:37:a4:ee:
                    75:7a:64:c8:7f:b9:31:29:a7:fb:10:db:ec:ce:00:
                    c2:0f:7f:eb:6d:88:ea:c3:5d:c7:a9:d8:71:50:67:
                    2a:4a:56:d9:02:db:3f:a8:2d:c3:c4:7a:e8:41:44:
                    96:20:27:b0:96:62:61:94:32:2a:b0:b4:53:25:72:
                    1d:f8:22:71:6a:85:6d:62:73:ad:0b:4c:e0:ec:89:
                    1f:15:33:e6:09:18:11:e2:1f:7e:2a:91:32:4d:54:
                    8b:68:e0:9f:41:35:04:75:23:2d:b9:7a:bd:b5:b3:
                    cd:6e:a9:69:d5:5e:05:7b:b3:ba:aa:5a:ed:ae:44:
                    4f:71:7b:a1:e8:46:4f:c4:bd:4a:84:33:e9:1b:5b:
                    91:51:a6:5e:75:94:f0:27:c4:0c:d5:1c:98:e5:15:
                    02:70:da:49:52:10:21:7d:d6:4e:ff:58:36:94:97:
                    81:69:51:f9:31:44:78:28:98:a5:9a:d9:70:9f:f6:
                    43:cb
                Exponent: 65537 (0x10001)
        X509v3 extensions:
            X509v3 Basic Constraints: 
                CA:FALSE
            Netscape Comment: 
                OpenSSL Generated Certificate
            X509v3 Subject Key Identifier: 
                47:E5:52:B2:16:59:E7:25:51:B2:85:BD:7D:41:44:43:36:FD:82:F9
            X509v3 Authority Key Identifier: 
                keyid:9E:8B:82:0D:E5:97:34:40:F4:CB:7E:5A:0C:3B:CA:91:FD:5A:31:73

            X509v3 CRL Distribution Points: 

                Full Name:
                  URI:http://cn-ucsb-1.dataone.org/crl/DataONETest_CRL.pem

                Full Name:
                  URI:http://cn-unm-1.dataone.org/crl/DataONETest_CRL.pem

                Full Name:
                  URI:http://cn-orc-1.dataone.org/crl/DataONETest_CRL.pem

    Signature Algorithm: sha1WithRSAEncryption
        7c:46:03:f5:4f:29:27:d4:14:ef:25:6f:5a:b2:95:37:54:84:
        d1:eb:93:8e:b4:f0:38:97:34:0d:82:76:0d:cd:6f:2a:5b:52:
        e6:58:77:f7:fc:85:4c:92:db:a9:a3:27:18:a3:a9:51:09:92:
        4b:ff:7e:d5:d5:ca:1c:13:4b:3e:74:fc:f5:f6:fc:17:9c:eb:
        50:ee:94:8a:81:2d:bb:70:21:af:84:50:43:ea:1a:cc:f5:0d:
        17:c2:dc:eb:62:67:64:0e:ba:33:01:1c:40:c7:2b:c3:71:ea:
        9e:57:7e:10:7f:66:9c:b3:cf:d9:94:03:54:e9:18:19:9e:ef:
        a7:b7:6d:32:14:3b:b9:40:3f:e0:7a:d5:fa:26:86:58:1e:88:
        50:64:a4:4c:30:e9:69:41:7a:15:75:09:20:e9:5c:87:db:2f:
        27:59:ec:0a:ca:a8:40:eb:88:3a:df:9e:6a:88:dc:55:41:98:
        a2:e2:ae:75:4c:ee:ca:e8:7f:5c:44:92:8e:0b:d3:3b:ae:65:
        60:37:8c:90:dc:01:f2:f9:c3:3c:83:0c:49:1f:62:3d:c4:d2:
        0d:53:6d:8e:c0:b5:07:3c:22:83:7a:a7:5a:2f:5d:6c:34:0b:
        59:93:ea:9a:aa:c1:a6:da:39:e6:18:87:e2:a0:dd:64:79:62:
        20:99:25:0d:3c:44:75:b2:6e:cc:f0:e7:0a:b1:35:e1:b0:1c:
        53:51:1d:81:ab:fb:a0:89:f5:6b:83:b6:ee:6d:d7:ab:60:46:
        d0:25:a4:6b:a4:48:9c:cd:b3:fd:ef:4f:b3:45:b5:26:81:fa:
        de:58:73:fc:cf:d3:87:10:06:4c:6c:45:5f:4e:4d:0c:5c:0b:
        4f:a0:4f:12:6f:d2:dd:45:7a:74:0a:9b:14:76:84:79:30:96:
        3c:19:15:a1:2f:da:44:5c:57:52:61:00:95:7a:bc:31:d3:6a:
        a9:c1:ae:90:ef:ee:fb:09:bf:0e:97:79:87:b8:0b:8e:64:4a:
        e6:ed:ac:94:6e:3b:6f:52:4b:79:e4:05:44:da:ac:6c:da:0c:
        ab:21:b8:f3:99:72:ab:40:3c:80:e2:d7:1c:d7:a7:ff:7a:48:
        00:1f:2b:4e:bf:43:b2:44:01:6d:20:c2:ea:ff:05:9c:b2:cd:
        79:dc:09:82:76:70:7d:22:eb:4a:f2:72:d6:74:82:39:91:6b:
        ed:48:19:0b:b1:04:98:07:cf:f3:75:ef:ae:0b:d5:f2:ec:d2:
        a1:bf:6b:ce:63:55:94:b6:63:22:67:21:02:65:6d:3c:81:2e:
        74:56:52:2e:c6:98:81:3c:aa:31:61:08:7d:55:30:0e:f2:3c:
        3f:b6:93:5d:08:1c:94:e7
-----BEGIN CERTIFICATE-----
MIIFUzCCAzugAwIBAgIJANoyY6KhLQAlMA0GCSqGSIb3DQEBBQUAMEgxEzARBgoJ
kiaJk/IsZAEZFgNvcmcxFzAVBgoJkiaJk/IsZAEZFgdkYXRhb25lMRgwFgYDVQQD
DA9EYXRhT05FIFRlc3QgQ0EwHhcNMTIwNDExMDAxMzU3WhcNMTUwNDExMDAxMzU3
WjBJMRMwEQYKCZImiZPyLGQBGRYDb3JnMRcwFQYKCZImiZPyLGQBGRYHZGF0YW9u
ZTEZMBcGA1UEAwwQdXJuOm5vZGU6RDFVU0dTNzCCASIwDQYJKoZIhvcNAQEBBQAD
ggEPADCCAQoCggEBAMAa5wlGiaYDidgwomBpi4Cqv1GAMOfP385934+AGJxMXKhz
0t9iTlrbvdPlr2Zl/DNX82lkEZOcw7pffS+c+qX0biG0bjvZN6TudXpkyH+5MSmn
+xDb7M4Awg9/622I6sNdx6nYcVBnKkpW2QLbP6gtw8R66EFEliAnsJZiYZQyKrC0
UyVyHfgicWqFbWJzrQtM4OyJHxUz5gkYEeIffiqRMk1Ui2jgn0E1BHUjLbl6vbWz
zW6padVeBXuzuqpa7a5ET3F7oehGT8S9SoQz6RtbkVGmXnWU8CfEDNUcmOUVAnDa
SVIQIX3WTv9YNpSXgWlR+TFEeCiYpZrZcJ/2Q8sCAwEAAaOCAT0wggE5MAkGA1Ud
EwQCMAAwLAYJYIZIAYb4QgENBB8WHU9wZW5TU0wgR2VuZXJhdGVkIENlcnRpZmlj
YXRlMB0GA1UdDgQWBBRH5VKyFlnnJVGyhb19QURDNv2C+TAfBgNVHSMEGDAWgBSe
i4IN5Zc0QPTLfloMO8qR/VoxczCBvQYDVR0fBIG1MIGyMDqgOKA2hjRodHRwOi8v
Y24tdWNzYi0xLmRhdGFvbmUub3JnL2NybC9EYXRhT05FVGVzdF9DUkwucGVtMDmg
N6A1hjNodHRwOi8vY24tdW5tLTEuZGF0YW9uZS5vcmcvY3JsL0RhdGFPTkVUZXN0
X0NSTC5wZW0wOaA3oDWGM2h0dHA6Ly9jbi1vcmMtMS5kYXRhb25lLm9yZy9jcmwv
RGF0YU9ORVRlc3RfQ1JMLnBlbTANBgkqhkiG9w0BAQUFAAOCAgEAfEYD9U8pJ9QU
7yVvWrKVN1SE0euTjrTwOJc0DYJ2Dc1vKltS5lh39/yFTJLbqaMnGKOpUQmSS/9+
1dXKHBNLPnT89fb8F5zrUO6UioEtu3Ahr4RQQ+oazPUNF8Lc62JnZA66MwEcQMcr
w3Hqnld+EH9mnLPP2ZQDVOkYGZ7vp7dtMhQ7uUA/4HrV+iaGWB6IUGSkTDDpaUF6
FXUJIOlch9svJ1nsCsqoQOuIOt+eaojcVUGYouKudUzuyuh/XESSjgvTO65lYDeM
kNwB8vnDPIMMSR9iPcTSDVNtjsC1Bzwig3qnWi9dbDQLWZPqmqrBpto55hiH4qDd
ZHliIJklDTxEdbJuzPDnCrE14bAcU1Edgav7oIn1a4O27m3Xq2BG0CWka6RInM2z
/e9Ps0W1JoH63lhz/M/ThxAGTGxFX05NDFwLT6BPEm/S3UV6dAqbFHaEeTCWPBkV
oS/aRFxXUmEAlXq8MdNqqcGukO/u+wm/Dpd5h7gLjmRK5u2slG47b1JLeeQFRNqs
bNoMqyG485lyq0A8gOLXHNen/3pIAB8rTr9DskQBbSDC6v8FnLLNedwJgnZwfSLr
SvJy1nSCOZFr7UgZC7EEmAfP83XvrgvV8uzSob9rzmNVlLZjImchAmVtPIEudFZS
LsaYgTyqMWEIfVUwDvI8P7aTXQgclOc=
-----END CERTIFICATE-----
