Certificate:
    Data:
        Version: 3 (0x2)
        Serial Number:
            da:32:63:a2:a1:2d:00:03
        Signature Algorithm: sha1WithRSAEncryption
        Issuer: dc=org/dc=dataone, CN=DataONE Test CA
        Validity
            Not Before: Mar 10 01:00:03 2012 GMT
            Not After : Mar 10 01:00:03 2015 GMT
        Subject: dc=org/dc=dataone, CN=testRightsHolder
        Subject Public Key Info:
            Public Key Algorithm: rsaEncryption
                Public-Key: (2048 bit)
                Modulus:
                    00:d0:44:d9:91:7e:2d:01:c2:26:87:e5:09:12:7a:
                    d2:75:b3:b5:6d:d1:0a:d3:97:4c:4e:99:53:94:62:
                    2c:8b:87:c2:ed:e0:31:f1:ef:19:9e:49:1c:c8:17:
                    93:6c:6a:a9:e9:bb:07:1e:4b:43:ae:54:72:dc:43:
                    05:e8:aa:aa:da:d1:6b:19:e0:aa:9d:15:2a:a5:a7:
                    e3:b2:e9:30:8a:61:f0:a5:35:46:14:98:94:64:73:
                    b7:97:01:ab:ce:67:0d:95:eb:9b:4a:2b:49:8f:57:
                    d1:67:5c:ed:7d:74:44:9e:c2:09:44:3d:17:4f:ff:
                    61:b8:20:e4:f0:f2:2c:f8:c7:28:f9:a2:05:3e:1f:
                    4f:7e:fb:1b:74:1a:42:57:1b:4b:0c:c3:ce:7d:8f:
                    c9:b7:14:7b:72:7c:98:fa:6b:00:9d:9f:cc:ef:d0:
                    98:f3:ec:f4:85:3e:91:2e:f6:26:d5:1e:18:f8:82:
                    1e:1f:b7:15:ec:e3:8b:e7:6f:d4:bf:6c:7a:e5:89:
                    fd:ae:53:2a:df:d1:d9:7e:6e:fb:3c:5c:86:81:3b:
                    40:09:6e:8f:fa:2f:fe:2e:bc:b8:78:c7:cb:47:e9:
                    60:a7:04:80:49:bb:23:8d:72:31:fd:56:88:91:38:
                    5d:66:07:02:98:97:12:49:6a:7b:21:0b:06:e1:7d:
                    6c:ff
                Exponent: 65537 (0x10001)
        X509v3 extensions:
            X509v3 Basic Constraints: 
                CA:FALSE
            Netscape Comment: 
                OpenSSL Generated Certificate
            X509v3 Subject Key Identifier: 
                8D:FF:E2:CA:0E:5B:35:9F:59:90:A3:29:07:B5:F8:55:4C:12:5C:64
            X509v3 Authority Key Identifier: 
                keyid:9E:8B:82:0D:E5:97:34:40:F4:CB:7E:5A:0C:3B:CA:91:FD:5A:31:73

            X509v3 CRL Distribution Points: 

                Full Name:
                  URI:http://cn-ucsb-1.dataone.org/crl/DataONETest_CRL.pem

                Full Name:
                  URI:http://cn-unm-1.dataone.org/crl/DataONETest_CRL.pem

                Full Name:
                  URI:http://cn-orc-1.dataone.org/crl/DataONETest_CRL.pem

            subject_info: 
                ...!<?xml version=1.0 encoding=UTF-8?><d1:subjectInfo xmlns:d1=http://ns.dataone.org/service/types/v1><person><subject>CN=testRightsHolder,DC=dataone,DC=org</subject><givenName>testRightsHolder_givenName</givenName><familyName>testRightsHolder_familyName</familyName></person></d1:subjectInfo>
    Signature Algorithm: sha1WithRSAEncryption
        3a:28:a8:e6:ac:d6:11:e8:e5:1a:b7:db:9f:25:d3:a6:5e:39:
        0c:87:f5:2f:85:6b:dc:67:fe:e2:cf:f0:6a:3e:e9:0a:d8:0a:
        91:ac:e0:7d:bc:40:61:39:ef:bc:ad:08:8e:28:79:2a:48:0d:
        21:2c:da:e0:a8:24:5c:ea:6a:f8:34:df:02:36:37:f9:31:1a:
        f6:fe:ee:9d:df:16:54:7a:35:17:31:30:7e:a0:71:03:9b:f4:
        f6:ea:1a:10:5e:81:53:0c:26:76:9f:51:4a:ea:3b:73:97:39:
        6e:16:8e:68:92:2d:f1:fb:bf:b5:53:d1:d8:85:df:24:73:27:
        95:1d:c4:2c:06:61:6d:d7:30:87:c0:28:92:13:b9:2f:89:1b:
        12:b1:2e:ff:ad:bd:c8:55:4b:09:7c:bc:9a:db:db:ff:15:ef:
        6f:fe:54:1e:03:ac:98:31:43:fd:4e:16:69:d1:a9:8f:ff:29:
        37:23:94:f3:36:cc:a8:c7:4c:aa:b9:a3:40:ba:1a:b7:96:79:
        e5:8c:2e:8b:08:19:34:db:51:54:6a:7c:82:1b:c4:9e:c3:b7:
        2f:11:84:d5:15:55:13:3d:ae:49:b6:79:28:b3:e2:66:94:dd:
        c6:df:f4:88:b3:9c:45:4c:4c:ab:7b:b4:c6:22:a8:0b:61:42:
        b5:c4:e7:ca:94:42:b6:d5:9f:2c:02:cc:1a:72:70:28:73:d8:
        ef:f1:cc:a2:83:49:5e:a9:c5:f7:ae:be:48:4b:98:40:61:52:
        da:3c:7f:49:ed:80:a3:be:91:09:3b:f8:17:36:f1:4b:17:1d:
        c0:8f:bb:2e:73:09:af:81:c3:01:d0:ba:d7:b7:14:8f:69:86:
        07:9d:3d:41:06:50:1e:31:55:27:15:57:cd:32:0a:aa:35:3b:
        ed:73:81:13:9d:7e:a6:c3:6e:1b:3a:cc:c0:5a:2c:43:8c:85:
        93:b1:64:a6:2f:c6:55:49:82:74:70:7b:31:98:2c:bb:e6:df:
        5d:71:30:01:e8:f0:66:b6:91:76:a7:67:c9:44:59:8a:2b:1d:
        d4:13:47:ac:54:d7:17:16:45:a6:70:17:9a:55:4b:59:c9:51:
        e9:14:3e:6a:18:b2:8b:e0:d7:2b:94:20:71:2d:7c:c2:c0:92:
        33:18:99:05:80:98:a8:c6:76:8e:f8:a9:0f:0d:4f:d2:ce:66:
        7f:4e:89:94:8b:f6:46:9e:37:e8:d0:35:a7:e8:a5:35:76:24:
        97:d5:9c:ea:19:cc:03:12:c6:f6:9e:32:45:35:ee:55:28:90:
        a6:8f:16:e2:8b:8a:82:d6:33:72:da:ff:f0:cf:71:75:ca:5c:
        d4:f6:34:9e:b3:1e:7a:a8
-----BEGIN CERTIFICATE-----
MIIGjDCCBHSgAwIBAgIJANoyY6KhLQADMA0GCSqGSIb3DQEBBQUAMEgxEzARBgoJ
kiaJk/IsZAEZFgNvcmcxFzAVBgoJkiaJk/IsZAEZFgdkYXRhb25lMRgwFgYDVQQD
DA9EYXRhT05FIFRlc3QgQ0EwHhcNMTIwMzEwMDEwMDAzWhcNMTUwMzEwMDEwMDAz
WjBJMRMwEQYKCZImiZPyLGQBGRYDb3JnMRcwFQYKCZImiZPyLGQBGRYHZGF0YW9u
ZTEZMBcGA1UEAwwQdGVzdFJpZ2h0c0hvbGRlcjCCASIwDQYJKoZIhvcNAQEBBQAD
ggEPADCCAQoCggEBANBE2ZF+LQHCJoflCRJ60nWztW3RCtOXTE6ZU5RiLIuHwu3g
MfHvGZ5JHMgXk2xqqem7Bx5LQ65UctxDBeiqqtrRaxngqp0VKqWn47LpMIph8KU1
RhSYlGRzt5cBq85nDZXrm0orSY9X0Wdc7X10RJ7CCUQ9F0//Ybgg5PDyLPjHKPmi
BT4fT377G3QaQlcbSwzDzn2PybcUe3J8mPprAJ2fzO/QmPPs9IU+kS72JtUeGPiC
Hh+3Fezji+dv1L9seuWJ/a5TKt/R2X5u+zxchoE7QAluj/ov/i68uHjHy0fpYKcE
gEm7I41yMf1WiJE4XWYHApiXEklqeyELBuF9bP8CAwEAAaOCAnYwggJyMAkGA1Ud
EwQCMAAwLAYJYIZIAYb4QgENBB8WHU9wZW5TU0wgR2VuZXJhdGVkIENlcnRpZmlj
YXRlMB0GA1UdDgQWBBSN/+LKDls1n1mQoykHtfhVTBJcZDAfBgNVHSMEGDAWgBSe
i4IN5Zc0QPTLfloMO8qR/VoxczCBvQYDVR0fBIG1MIGyMDqgOKA2hjRodHRwOi8v
Y24tdWNzYi0xLmRhdGFvbmUub3JnL2NybC9EYXRhT05FVGVzdF9DUkwucGVtMDmg
N6A1hjNodHRwOi8vY24tdW5tLTEuZGF0YW9uZS5vcmcvY3JsL0RhdGFPTkVUZXN0
X0NSTC5wZW0wOaA3oDWGM2h0dHA6Ly9jbi1vcmMtMS5kYXRhb25lLm9yZy9jcmwv
RGF0YU9ORVRlc3RfQ1JMLnBlbTCCATUGCisGAQQBgpE2AgEEggElDIIBITw/eG1s
IHZlcnNpb249MS4wIGVuY29kaW5nPVVURi04Pz48ZDE6c3ViamVjdEluZm8geG1s
bnM6ZDE9aHR0cDovL25zLmRhdGFvbmUub3JnL3NlcnZpY2UvdHlwZXMvdjE+PHBl
cnNvbj48c3ViamVjdD5DTj10ZXN0UmlnaHRzSG9sZGVyLERDPWRhdGFvbmUsREM9
b3JnPC9zdWJqZWN0PjxnaXZlbk5hbWU+dGVzdFJpZ2h0c0hvbGRlcl9naXZlbk5h
bWU8L2dpdmVuTmFtZT48ZmFtaWx5TmFtZT50ZXN0UmlnaHRzSG9sZGVyX2ZhbWls
eU5hbWU8L2ZhbWlseU5hbWU+PC9wZXJzb24+PC9kMTpzdWJqZWN0SW5mbz4wDQYJ
KoZIhvcNAQEFBQADggIBADooqOas1hHo5Rq3258l06ZeOQyH9S+Fa9xn/uLP8Go+
6QrYCpGs4H28QGE577ytCI4oeSpIDSEs2uCoJFzqavg03wI2N/kxGvb+7p3fFlR6
NRcxMH6gcQOb9PbqGhBegVMMJnafUUrqO3OXOW4WjmiSLfH7v7VT0diF3yRzJ5Ud
xCwGYW3XMIfAKJITuS+JGxKxLv+tvchVSwl8vJrb2/8V72/+VB4DrJgxQ/1OFmnR
qY//KTcjlPM2zKjHTKq5o0C6GreWeeWMLosIGTTbUVRqfIIbxJ7Dty8RhNUVVRM9
rkm2eSiz4maU3cbf9IiznEVMTKt7tMYiqAthQrXE58qUQrbVnywCzBpycChz2O/x
zKKDSV6pxfeuvkhLmEBhUto8f0ntgKO+kQk7+Bc28UsXHcCPuy5zCa+BwwHQute3
FI9phgedPUEGUB4xVScVV80yCqo1O+1zgROdfqbDbhs6zMBaLEOMhZOxZKYvxlVJ
gnRwezGYLLvm311xMAHo8Ga2kXanZ8lEWYorHdQTR6xU1xcWRaZwF5pVS1nJUekU
PmoYsovg1yuUIHEtfMLAkjMYmQWAmKjGdo74qQ8NT9LOZn9OiZSL9kaeN+jQNafo
pTV2JJfVnOoZzAMSxvaeMkU17lUokKaPFuKLioLWM3La//DPcXXKXNT2NJ6zHnqo
-----END CERTIFICATE-----
