Certificate:
    Data:
        Version: 3 (0x2)
        Serial Number:
            da:32:63:a2:a1:2d:00:1e
        Signature Algorithm: sha1WithRSAEncryption
        Issuer: dc=org/dc=dataone, CN=DataONE Test CA
        Validity
            Not Before: Mar 10 02:15:53 2012 GMT
            Not After : Mar 10 02:15:53 2015 GMT
        Subject: dc=org/dc=dataone, CN=cn-stage-unm-1.dataone.org
        Subject Public Key Info:
            Public Key Algorithm: rsaEncryption
                Public-Key: (2048 bit)
                Modulus:
                    00:dc:79:86:91:49:88:bc:87:a2:c6:96:e6:69:9a:
                    d0:c0:20:c2:02:5e:f4:25:80:84:f4:83:1d:31:ec:
                    ea:02:13:dd:36:80:46:20:35:ff:f9:ef:86:ba:d2:
                    15:38:f5:fe:1c:cb:a9:99:a2:1c:48:dc:21:b9:70:
                    f2:d5:60:9c:e7:f6:b4:ff:e6:a7:dd:5c:df:dd:a8:
                    c6:86:28:14:57:8e:a8:a6:e3:43:3f:e0:dd:21:7c:
                    b7:f3:13:37:66:01:99:98:e0:36:b6:9a:d8:50:67:
                    05:d4:78:97:a6:bb:95:c4:82:67:0c:46:47:96:6c:
                    82:e8:3d:f2:6a:26:05:87:35:2a:da:ea:21:de:5c:
                    af:2c:32:d6:96:d3:2b:cc:3c:3b:90:03:7d:d0:88:
                    d4:11:aa:d0:af:48:ee:36:da:c4:a4:f1:18:1e:fb:
                    3e:91:03:4a:52:6f:f8:33:95:30:84:32:4b:89:cb:
                    a4:a6:d1:eb:5b:5f:7e:bd:e1:fd:4e:44:e6:bc:fc:
                    0a:d2:68:f9:47:16:d6:27:38:24:97:aa:33:12:aa:
                    54:6a:5b:1f:78:04:17:91:f5:33:79:9f:ef:19:f2:
                    af:78:94:22:21:27:f6:c3:33:3d:7c:a7:a0:c4:e5:
                    29:84:2f:af:2b:b2:44:bd:7e:95:74:81:87:a7:b9:
                    37:eb
                Exponent: 65537 (0x10001)
        X509v3 extensions:
            X509v3 Basic Constraints: 
                CA:FALSE
            Netscape Comment: 
                OpenSSL Generated Certificate
            X509v3 Subject Key Identifier: 
                A4:74:3D:45:8F:D4:0C:1D:49:C3:88:23:C2:F0:AD:5B:8D:A7:CB:5B
            X509v3 Authority Key Identifier: 
                keyid:9E:8B:82:0D:E5:97:34:40:F4:CB:7E:5A:0C:3B:CA:91:FD:5A:31:73

            X509v3 CRL Distribution Points: 

                Full Name:
                  URI:http://cn-ucsb-1.dataone.org/crl/DataONETest_CRL.pem

                Full Name:
                  URI:http://cn-unm-1.dataone.org/crl/DataONETest_CRL.pem

                Full Name:
                  URI:http://cn-orc-1.dataone.org/crl/DataONETest_CRL.pem

    Signature Algorithm: sha1WithRSAEncryption
        1f:4b:c6:69:fa:b7:2b:c2:cc:88:75:ed:5c:4a:bb:3f:e1:9d:
        db:10:e5:bf:b5:e2:ce:a1:de:27:ed:6f:66:c0:cf:f0:e6:de:
        30:dd:c5:76:d3:34:4f:4b:f3:74:36:30:ba:8e:82:5f:ba:11:
        89:99:cf:da:f9:c4:6b:9b:7e:9d:f7:c5:55:43:70:d3:d6:e4:
        9f:94:bf:a5:e2:09:48:93:f3:7c:be:d5:6c:8e:69:c5:13:6a:
        99:a1:97:5c:d8:71:dc:58:76:b6:d0:a4:91:15:54:cf:17:a4:
        da:15:ab:c3:dd:cc:76:fe:55:a7:9e:9b:f9:78:e6:2d:17:e6:
        fa:a2:b3:c7:de:52:0e:25:f6:ce:4d:99:4a:1c:54:d2:eb:0d:
        be:29:d2:94:6c:1c:5c:7c:83:d8:88:c2:b2:3f:2b:7b:c7:6e:
        7e:a8:c1:1a:4f:92:e2:89:74:4d:22:1f:90:37:dd:62:cf:20:
        ad:92:66:9b:1a:3a:66:c5:aa:0c:90:ba:81:fc:a3:23:05:d2:
        1a:08:31:72:50:d7:c6:71:fd:81:7d:f2:0d:83:c3:ed:9e:97:
        c6:bb:a9:fb:c1:bc:37:c9:09:73:f1:c9:85:cd:f3:48:0b:9f:
        8d:f5:3f:09:c2:26:8b:31:29:35:c3:46:e0:55:a6:7c:f6:aa:
        18:ed:65:be:61:78:82:00:25:62:d1:ce:23:52:cb:19:64:1c:
        d8:dc:84:87:d0:57:98:c3:d6:82:34:ae:ea:19:d4:92:80:e4:
        7d:9c:8c:af:da:4a:56:e0:02:94:22:4e:34:9d:13:c2:11:7c:
        fc:85:0e:23:40:54:3c:de:8e:f7:53:2c:bb:69:a3:ce:62:f6:
        14:ce:3a:8e:d6:8f:94:2e:c0:71:17:7c:7d:a2:e6:b4:89:2d:
        10:df:68:e1:9b:29:43:e0:f1:53:ff:0f:0f:2d:7d:ad:81:f7:
        b8:64:3c:c7:56:e9:59:c5:e2:0b:ad:4e:90:1a:61:93:13:1b:
        9e:a4:42:e6:e0:ff:40:42:3f:4d:d3:2b:6f:d6:2b:c8:61:1e:
        aa:bd:6f:b0:e6:67:f8:f7:31:cc:e6:d6:1e:d5:37:8f:59:6a:
        85:41:d8:57:55:03:d2:34:b6:59:c2:26:2a:e2:9b:9a:db:b1:
        cb:f6:bb:ac:4a:ad:af:56:e9:38:2d:43:78:53:88:0c:6e:c6:
        a9:96:d1:4f:6a:9d:55:59:f3:64:e7:69:73:cc:ac:3f:5a:80:
        d4:81:13:3f:16:00:9a:b9:df:cf:13:02:8c:72:dc:b4:7c:61:
        d0:08:4e:97:51:fa:13:84:44:6a:ef:34:97:a6:fb:00:b5:d9:
        85:36:2e:c1:95:58:75:46
-----BEGIN CERTIFICATE-----
MIIFXTCCA0WgAwIBAgIJANoyY6KhLQAeMA0GCSqGSIb3DQEBBQUAMEgxEzARBgoJ
kiaJk/IsZAEZFgNvcmcxFzAVBgoJkiaJk/IsZAEZFgdkYXRhb25lMRgwFgYDVQQD
DA9EYXRhT05FIFRlc3QgQ0EwHhcNMTIwMzEwMDIxNTUzWhcNMTUwMzEwMDIxNTUz
WjBTMRMwEQYKCZImiZPyLGQBGRYDb3JnMRcwFQYKCZImiZPyLGQBGRYHZGF0YW9u
ZTEjMCEGA1UEAwwaY24tc3RhZ2UtdW5tLTEuZGF0YW9uZS5vcmcwggEiMA0GCSqG
SIb3DQEBAQUAA4IBDwAwggEKAoIBAQDceYaRSYi8h6LGluZpmtDAIMICXvQlgIT0
gx0x7OoCE902gEYgNf/574a60hU49f4cy6mZohxI3CG5cPLVYJzn9rT/5qfdXN/d
qMaGKBRXjqim40M/4N0hfLfzEzdmAZmY4Da2mthQZwXUeJemu5XEgmcMRkeWbILo
PfJqJgWHNSra6iHeXK8sMtaW0yvMPDuQA33QiNQRqtCvSO422sSk8Rge+z6RA0pS
b/gzlTCEMkuJy6Sm0etbX3694f1OROa8/ArSaPlHFtYnOCSXqjMSqlRqWx94BBeR
9TN5n+8Z8q94lCIhJ/bDMz18p6DE5SmEL68rskS9fpV0gYenuTfrAgMBAAGjggE9
MIIBOTAJBgNVHRMEAjAAMCwGCWCGSAGG+EIBDQQfFh1PcGVuU1NMIEdlbmVyYXRl
ZCBDZXJ0aWZpY2F0ZTAdBgNVHQ4EFgQUpHQ9RY/UDB1Jw4gjwvCtW42ny1swHwYD
VR0jBBgwFoAUnouCDeWXNED0y35aDDvKkf1aMXMwgb0GA1UdHwSBtTCBsjA6oDig
NoY0aHR0cDovL2NuLXVjc2ItMS5kYXRhb25lLm9yZy9jcmwvRGF0YU9ORVRlc3Rf
Q1JMLnBlbTA5oDegNYYzaHR0cDovL2NuLXVubS0xLmRhdGFvbmUub3JnL2NybC9E
YXRhT05FVGVzdF9DUkwucGVtMDmgN6A1hjNodHRwOi8vY24tb3JjLTEuZGF0YW9u
ZS5vcmcvY3JsL0RhdGFPTkVUZXN0X0NSTC5wZW0wDQYJKoZIhvcNAQEFBQADggIB
AB9Lxmn6tyvCzIh17VxKuz/hndsQ5b+14s6h3iftb2bAz/Dm3jDdxXbTNE9L83Q2
MLqOgl+6EYmZz9r5xGubfp33xVVDcNPW5J+Uv6XiCUiT83y+1WyOacUTapmhl1zY
cdxYdrbQpJEVVM8XpNoVq8PdzHb+Vaeem/l45i0X5vqis8feUg4l9s5NmUocVNLr
Db4p0pRsHFx8g9iIwrI/K3vHbn6owRpPkuKJdE0iH5A33WLPIK2SZpsaOmbFqgyQ
uoH8oyMF0hoIMXJQ18Zx/YF98g2Dw+2el8a7qfvBvDfJCXPxyYXN80gLn431PwnC
JosxKTXDRuBVpnz2qhjtZb5heIIAJWLRziNSyxlkHNjchIfQV5jD1oI0ruoZ1JKA
5H2cjK/aSlbgApQiTjSdE8IRfPyFDiNAVDzejvdTLLtpo85i9hTOOo7Wj5QuwHEX
fH2i5rSJLRDfaOGbKUPg8VP/Dw8tfa2B97hkPMdW6VnF4gutTpAaYZMTG56kQubg
/0BCP03TK2/WK8hhHqq9b7DmZ/j3Mczm1h7VN49ZaoVB2FdVA9I0tlnCJirim5rb
scv2u6xKra9W6TgtQ3hTiAxuxqmW0U9qnVVZ82TnaXPMrD9agNSBEz8WAJq5388T
Aoxy3LR8YdAITpdR+hOERGrvNJem+wC12YU2LsGVWHVG
-----END CERTIFICATE-----
