Certificate:
    Data:
        Version: 3 (0x2)
        Serial Number:
            da:32:63:a2:a1:2d:00:28
        Signature Algorithm: sha1WithRSAEncryption
        Issuer: dc=org/dc=dataone, CN=DataONE Test CA
        Validity
            Not Before: Apr 11 00:16:28 2012 GMT
            Not After : Apr 11 00:16:28 2015 GMT
        Subject: dc=org/dc=dataone, CN=urn:node:mnSandboxUNM1
        Subject Public Key Info:
            Public Key Algorithm: rsaEncryption
                Public-Key: (2048 bit)
                Modulus:
                    00:d8:2d:62:cd:00:0f:77:c3:8c:d5:98:95:60:b0:
                    78:79:98:56:3d:7e:35:27:7c:0a:16:ed:67:60:77:
                    fe:4e:ce:6c:f4:c3:4e:32:30:75:3c:35:7f:f8:e3:
                    6b:9a:ce:05:7d:68:ea:37:d0:62:58:3e:4c:25:f0:
                    98:b6:f6:5a:b3:c5:ec:ba:e3:7f:65:5f:af:ad:09:
                    2e:4d:1e:49:e0:c6:df:14:3b:04:21:6e:fa:66:72:
                    9c:7b:fd:d6:7d:b3:76:2a:02:84:90:ca:d1:2f:05:
                    b2:c8:ba:e7:75:d0:cf:e0:27:4e:0c:34:60:69:0e:
                    66:16:3e:da:0c:15:c0:54:ec:a5:54:cc:46:c2:59:
                    a9:89:ed:9a:ba:36:93:c1:33:5d:7c:27:69:92:f2:
                    49:05:16:bf:cc:11:be:e7:5e:9f:a9:04:06:b0:cc:
                    b2:b8:f3:31:93:ef:52:87:ed:2e:21:fa:36:d0:d2:
                    58:8d:5b:fb:ae:3a:b3:e0:f9:e6:b9:ce:45:45:2f:
                    b1:24:b9:5f:3a:04:90:5c:6c:25:d4:5f:3e:b6:dc:
                    6f:10:d6:fc:e1:ec:e0:eb:a1:36:de:5c:65:08:0e:
                    0c:0c:c7:5e:1b:98:c5:18:f9:e4:95:7e:ab:b5:96:
                    ac:68:0c:fa:3d:c1:f8:69:1a:17:a7:e5:c5:fa:e8:
                    99:2b
                Exponent: 65537 (0x10001)
        X509v3 extensions:
            X509v3 Basic Constraints: 
                CA:FALSE
            Netscape Comment: 
                OpenSSL Generated Certificate
            X509v3 Subject Key Identifier: 
                B9:69:0A:49:07:57:6C:E5:12:7D:D0:E1:A5:D2:98:74:79:68:D9:20
            X509v3 Authority Key Identifier: 
                keyid:9E:8B:82:0D:E5:97:34:40:F4:CB:7E:5A:0C:3B:CA:91:FD:5A:31:73

            X509v3 CRL Distribution Points: 

                Full Name:
                  URI:http://cn-ucsb-1.dataone.org/crl/DataONETest_CRL.pem

                Full Name:
                  URI:http://cn-unm-1.dataone.org/crl/DataONETest_CRL.pem

                Full Name:
                  URI:http://cn-orc-1.dataone.org/crl/DataONETest_CRL.pem

    Signature Algorithm: sha1WithRSAEncryption
        24:db:0a:b9:fd:4c:96:47:c2:8a:b3:d1:76:f3:03:34:c5:7c:
        53:cf:4c:6d:41:f5:9f:c7:0b:73:01:b5:49:96:3a:0c:f7:13:
        ad:48:6a:8f:51:dd:69:a5:e3:68:91:83:c9:10:5c:79:b7:34:
        2a:fb:43:c7:8d:2a:17:e0:45:ea:70:8a:a3:f6:72:0b:01:ec:
        40:08:e9:ee:16:54:f0:c6:58:66:d9:fb:fd:46:80:dc:49:8a:
        db:ff:c2:bf:19:29:70:a0:21:30:71:cf:c8:d4:bd:06:8a:f2:
        9f:dd:66:9b:dc:5a:78:50:a2:70:30:89:91:db:13:d5:29:5b:
        a1:6a:ea:9e:57:c5:55:e7:2a:8c:4b:98:37:c2:6c:17:bc:18:
        0e:0a:d4:1b:04:4e:34:ae:45:bc:90:d7:8e:ff:cb:6c:0f:c1:
        35:71:38:04:c0:90:1a:b8:d8:e5:c4:85:75:aa:56:73:62:6e:
        d8:67:b7:22:21:bb:2a:43:6c:4f:5a:5f:32:2b:b7:38:9a:29:
        ec:2b:7e:30:22:09:0a:76:ad:8b:2e:23:f5:6e:de:27:93:5f:
        09:11:4c:d4:6a:6b:b9:20:0f:6e:7d:eb:47:59:be:fd:0e:a0:
        37:87:42:73:56:34:2b:f0:67:5e:e4:4b:84:1a:8f:11:c6:0b:
        6d:89:a0:91:f9:99:b8:6c:76:ac:19:c6:23:f6:27:b8:ad:88:
        e9:65:b7:ca:80:c3:09:46:00:6f:24:24:c2:97:e8:a8:2f:4b:
        c3:e6:f3:15:87:81:7d:27:39:b0:57:17:95:76:bf:43:76:24:
        81:89:a9:61:b5:f3:37:67:f0:4e:cb:8e:dc:46:89:45:70:0d:
        b5:1d:03:36:67:ff:bd:a7:d8:6e:88:97:89:27:f7:87:26:fe:
        7f:65:ab:75:70:7f:e7:eb:28:fc:a4:cd:7b:35:4c:30:fd:43:
        80:b1:99:53:72:6b:f4:79:e9:fa:6a:75:54:70:dd:43:4b:f0:
        b9:a6:4a:b0:37:ec:20:9c:f7:1b:c9:3c:e7:8b:d1:4b:94:83:
        b0:b8:0e:50:00:3e:11:4b:e1:62:eb:1f:7a:17:1c:46:26:ac:
        14:ba:b4:8f:5b:16:72:4e:30:15:07:cc:79:b6:f0:41:e8:24:
        9f:da:a4:9f:91:28:02:0f:da:56:81:33:ea:5e:7b:77:2e:42:
        90:bb:a1:5f:1c:90:76:99:fb:2a:15:d1:c2:73:b8:15:b4:18:
        f8:ac:4a:e1:fd:50:c2:3e:5c:77:ac:87:81:1c:a1:1b:f7:7d:
        f7:f9:07:ff:88:ad:70:10:d5:a3:7c:38:ce:e9:d7:19:a5:21:
        e2:6b:f2:e9:27:60:f9:9f
-----BEGIN CERTIFICATE-----
MIIFWTCCA0GgAwIBAgIJANoyY6KhLQAoMA0GCSqGSIb3DQEBBQUAMEgxEzARBgoJ
kiaJk/IsZAEZFgNvcmcxFzAVBgoJkiaJk/IsZAEZFgdkYXRhb25lMRgwFgYDVQQD
DA9EYXRhT05FIFRlc3QgQ0EwHhcNMTIwNDExMDAxNjI4WhcNMTUwNDExMDAxNjI4
WjBPMRMwEQYKCZImiZPyLGQBGRYDb3JnMRcwFQYKCZImiZPyLGQBGRYHZGF0YW9u
ZTEfMB0GA1UEAwwWdXJuOm5vZGU6bW5TYW5kYm94VU5NMTCCASIwDQYJKoZIhvcN
AQEBBQADggEPADCCAQoCggEBANgtYs0AD3fDjNWYlWCweHmYVj1+NSd8ChbtZ2B3
/k7ObPTDTjIwdTw1f/jja5rOBX1o6jfQYlg+TCXwmLb2WrPF7Lrjf2Vfr60JLk0e
SeDG3xQ7BCFu+mZynHv91n2zdioChJDK0S8Fssi653XQz+AnTgw0YGkOZhY+2gwV
wFTspVTMRsJZqYntmro2k8EzXXwnaZLySQUWv8wRvuden6kEBrDMsrjzMZPvUoft
LiH6NtDSWI1b+646s+D55rnORUUvsSS5XzoEkFxsJdRfPrbcbxDW/OHs4OuhNt5c
ZQgODAzHXhuYxRj55JV+q7WWrGgM+j3B+GkaF6flxfromSsCAwEAAaOCAT0wggE5
MAkGA1UdEwQCMAAwLAYJYIZIAYb4QgENBB8WHU9wZW5TU0wgR2VuZXJhdGVkIENl
cnRpZmljYXRlMB0GA1UdDgQWBBS5aQpJB1ds5RJ90OGl0ph0eWjZIDAfBgNVHSME
GDAWgBSei4IN5Zc0QPTLfloMO8qR/VoxczCBvQYDVR0fBIG1MIGyMDqgOKA2hjRo
dHRwOi8vY24tdWNzYi0xLmRhdGFvbmUub3JnL2NybC9EYXRhT05FVGVzdF9DUkwu
cGVtMDmgN6A1hjNodHRwOi8vY24tdW5tLTEuZGF0YW9uZS5vcmcvY3JsL0RhdGFP
TkVUZXN0X0NSTC5wZW0wOaA3oDWGM2h0dHA6Ly9jbi1vcmMtMS5kYXRhb25lLm9y
Zy9jcmwvRGF0YU9ORVRlc3RfQ1JMLnBlbTANBgkqhkiG9w0BAQUFAAOCAgEAJNsK
uf1MlkfCirPRdvMDNMV8U89MbUH1n8cLcwG1SZY6DPcTrUhqj1HdaaXjaJGDyRBc
ebc0KvtDx40qF+BF6nCKo/ZyCwHsQAjp7hZU8MZYZtn7/UaA3EmK2//CvxkpcKAh
MHHPyNS9Boryn91mm9xaeFCicDCJkdsT1SlboWrqnlfFVecqjEuYN8JsF7wYDgrU
GwRONK5FvJDXjv/LbA/BNXE4BMCQGrjY5cSFdapWc2Ju2Ge3IiG7KkNsT1pfMiu3
OJop7Ct+MCIJCnatiy4j9W7eJ5NfCRFM1GpruSAPbn3rR1m+/Q6gN4dCc1Y0K/Bn
XuRLhBqPEcYLbYmgkfmZuGx2rBnGI/YnuK2I6WW3yoDDCUYAbyQkwpfoqC9Lw+bz
FYeBfSc5sFcXlXa/Q3YkgYmpYbXzN2fwTsuO3EaJRXANtR0DNmf/vafYboiXiSf3
hyb+f2WrdXB/5+so/KTNezVMMP1DgLGZU3Jr9Hnp+mp1VHDdQ0vwuaZKsDfsIJz3
G8k854vRS5SDsLgOUAA+EUvhYusfehccRiasFLq0j1sWck4wFQfMebbwQegkn9qk
n5EoAg/aVoEz6l57dy5CkLuhXxyQdpn7KhXRwnO4FbQY+KxK4f1Qwj5cd6yHgRyh
G/d99/kH/4itcBDVo3w4zunXGaUh4mvy6Sdg+Z8=
-----END CERTIFICATE-----
