Certificate:
    Data:
        Version: 3 (0x2)
        Serial Number:
            da:32:63:a2:a1:2d:00:27
        Signature Algorithm: sha1WithRSAEncryption
        Issuer: dc=org/dc=dataone, CN=DataONE Test CA
        Validity
            Not Before: Apr 11 00:16:11 2012 GMT
            Not After : Apr 11 00:16:11 2015 GMT
        Subject: dc=org/dc=dataone, CN=urn:node:mnSandboxUCSB2
        Subject Public Key Info:
            Public Key Algorithm: rsaEncryption
                Public-Key: (2048 bit)
                Modulus:
                    00:c3:f1:1a:42:61:bb:00:e2:33:d3:f1:3d:3b:c2:
                    7a:2d:1a:67:99:ff:ca:e3:16:79:fe:08:03:0c:9d:
                    c5:f7:0d:54:d5:66:4d:45:a5:88:84:44:49:9d:f3:
                    a7:7a:92:77:55:ff:65:8b:89:96:a3:ef:75:62:c2:
                    25:12:2f:4b:d2:60:41:57:90:7f:02:ea:fb:1f:0d:
                    5f:38:5a:a1:f1:42:2c:77:8e:6a:5f:17:3e:17:52:
                    40:1a:de:ef:37:43:f6:58:42:36:d7:26:95:cd:6b:
                    2d:ab:2b:de:58:56:e2:e7:bc:8d:ad:12:17:46:da:
                    a1:99:a0:d8:ba:e3:6a:ac:c9:cb:20:08:9d:b1:75:
                    ef:3e:90:24:39:2d:25:25:00:93:e0:36:ca:0f:98:
                    a7:06:0a:41:0f:7d:b0:e5:87:1a:c2:cb:b9:de:30:
                    bb:3f:c9:ab:ce:06:76:8b:c3:34:ad:fb:2a:cf:3b:
                    9e:28:f1:d4:8e:9f:34:38:d5:93:5c:ea:fc:59:b4:
                    7d:18:86:c4:fc:ff:3d:cb:56:91:ac:b1:c7:49:ec:
                    12:69:4a:44:9a:4a:c1:07:7d:c4:2e:6d:cc:c8:42:
                    12:3c:85:61:85:36:e9:d7:03:e2:6d:f6:4e:14:0a:
                    70:65:42:eb:4b:86:a7:73:4c:f5:42:f4:e0:13:26:
                    46:a1
                Exponent: 65537 (0x10001)
        X509v3 extensions:
            X509v3 Basic Constraints: 
                CA:FALSE
            Netscape Comment: 
                OpenSSL Generated Certificate
            X509v3 Subject Key Identifier: 
                17:42:C3:3B:90:CC:56:49:F3:95:87:7D:58:55:9F:01:87:34:1F:41
            X509v3 Authority Key Identifier: 
                keyid:9E:8B:82:0D:E5:97:34:40:F4:CB:7E:5A:0C:3B:CA:91:FD:5A:31:73

            X509v3 CRL Distribution Points: 

                Full Name:
                  URI:http://cn-ucsb-1.dataone.org/crl/DataONETest_CRL.pem

                Full Name:
                  URI:http://cn-unm-1.dataone.org/crl/DataONETest_CRL.pem

                Full Name:
                  URI:http://cn-orc-1.dataone.org/crl/DataONETest_CRL.pem

    Signature Algorithm: sha1WithRSAEncryption
        57:89:91:db:9d:81:d0:e8:74:76:e3:9b:31:02:be:ae:17:72:
        b5:7f:51:ea:da:f8:b0:cf:9b:03:47:b3:9f:7c:fe:02:eb:74:
        06:1d:13:ef:9b:a3:58:37:93:75:f7:9d:5d:cf:07:1a:c5:1c:
        38:66:c9:ea:ee:f3:8f:fe:27:96:f7:67:ef:32:02:45:dd:7c:
        18:1d:d0:b3:b2:6b:2a:4a:be:c9:27:3f:be:ca:b5:be:ec:11:
        af:94:29:75:c0:c5:59:d6:5d:52:87:8b:94:69:86:88:02:15:
        e3:9a:06:2d:22:dc:7f:c9:18:dc:6f:c2:d9:4c:3b:a5:09:81:
        2f:5d:09:84:d8:00:1e:47:58:e0:01:49:c5:ed:c1:f5:e3:ce:
        d5:b2:9d:61:e9:a4:23:de:4a:f5:4a:24:7d:30:b8:0d:90:d8:
        9d:3f:db:5e:2a:f8:ab:5d:47:e9:c6:3f:a2:c3:96:6a:83:0f:
        a1:df:2d:f7:85:ff:1c:e0:c2:e2:75:fe:16:5d:fe:11:71:6f:
        42:cd:20:e3:a9:e1:f0:50:f4:a9:f4:20:42:21:4a:08:40:3e:
        42:16:6e:9d:cd:16:a3:3d:7d:2a:d8:2c:fb:46:75:c8:ef:29:
        06:db:a9:27:cc:e5:69:31:40:f8:3b:b3:f4:55:77:7c:c8:0a:
        d3:cd:78:d8:6a:d5:c3:2c:f6:6f:1e:3f:3f:27:0f:27:57:e2:
        29:c5:cb:43:24:b6:89:85:fe:51:ee:7a:76:24:cc:60:bb:49:
        f7:34:bd:3a:4a:f8:d9:b8:fe:7f:bc:f7:c4:67:22:d1:de:44:
        0b:89:f8:da:ca:72:08:5e:df:d2:63:5d:d5:ce:5c:b4:27:46:
        c5:e9:e9:79:3c:eb:68:15:be:72:f2:12:8b:f6:1f:46:48:c3:
        5f:03:96:1f:88:84:2d:7f:fe:45:41:e8:bc:de:a8:46:17:94:
        a3:d1:43:5d:66:71:ca:cc:ee:9f:8b:ac:53:d5:d4:6d:2c:da:
        1e:54:93:bb:04:06:2f:a8:9b:f3:89:e2:77:e7:7f:63:9b:a8:
        f1:1f:86:58:1c:8d:bb:71:1f:df:fc:fd:77:fb:3f:27:ff:96:
        9a:54:59:11:88:e6:e1:91:65:81:3a:34:80:f6:2d:6a:01:d1:
        82:3b:76:d3:6e:ff:47:f4:11:5f:68:58:ef:83:07:9a:40:e2:
        59:11:5e:ea:e3:88:2e:81:5b:8a:35:fb:2d:e8:ec:6a:f4:77:
        58:17:61:74:a8:41:a2:db:fb:62:73:3c:fc:8e:e5:db:bf:b7:
        4a:18:1a:6a:73:8e:bd:85:72:1d:41:65:5a:c9:00:d7:6b:ea:
        98:64:72:b1:1b:90:a4:1f
-----BEGIN CERTIFICATE-----
MIIFWjCCA0KgAwIBAgIJANoyY6KhLQAnMA0GCSqGSIb3DQEBBQUAMEgxEzARBgoJ
kiaJk/IsZAEZFgNvcmcxFzAVBgoJkiaJk/IsZAEZFgdkYXRhb25lMRgwFgYDVQQD
DA9EYXRhT05FIFRlc3QgQ0EwHhcNMTIwNDExMDAxNjExWhcNMTUwNDExMDAxNjEx
WjBQMRMwEQYKCZImiZPyLGQBGRYDb3JnMRcwFQYKCZImiZPyLGQBGRYHZGF0YW9u
ZTEgMB4GA1UEAwwXdXJuOm5vZGU6bW5TYW5kYm94VUNTQjIwggEiMA0GCSqGSIb3
DQEBAQUAA4IBDwAwggEKAoIBAQDD8RpCYbsA4jPT8T07wnotGmeZ/8rjFnn+CAMM
ncX3DVTVZk1FpYiEREmd86d6kndV/2WLiZaj73ViwiUSL0vSYEFXkH8C6vsfDV84
WqHxQix3jmpfFz4XUkAa3u83Q/ZYQjbXJpXNay2rK95YVuLnvI2tEhdG2qGZoNi6
42qsycsgCJ2xde8+kCQ5LSUlAJPgNsoPmKcGCkEPfbDlhxrCy7neMLs/yavOBnaL
wzSt+yrPO54o8dSOnzQ41ZNc6vxZtH0YhsT8/z3LVpGsscdJ7BJpSkSaSsEHfcQu
bczIQhI8hWGFNunXA+Jt9k4UCnBlQutLhqdzTPVC9OATJkahAgMBAAGjggE9MIIB
OTAJBgNVHRMEAjAAMCwGCWCGSAGG+EIBDQQfFh1PcGVuU1NMIEdlbmVyYXRlZCBD
ZXJ0aWZpY2F0ZTAdBgNVHQ4EFgQUF0LDO5DMVknzlYd9WFWfAYc0H0EwHwYDVR0j
BBgwFoAUnouCDeWXNED0y35aDDvKkf1aMXMwgb0GA1UdHwSBtTCBsjA6oDigNoY0
aHR0cDovL2NuLXVjc2ItMS5kYXRhb25lLm9yZy9jcmwvRGF0YU9ORVRlc3RfQ1JM
LnBlbTA5oDegNYYzaHR0cDovL2NuLXVubS0xLmRhdGFvbmUub3JnL2NybC9EYXRh
T05FVGVzdF9DUkwucGVtMDmgN6A1hjNodHRwOi8vY24tb3JjLTEuZGF0YW9uZS5v
cmcvY3JsL0RhdGFPTkVUZXN0X0NSTC5wZW0wDQYJKoZIhvcNAQEFBQADggIBAFeJ
kdudgdDodHbjmzECvq4XcrV/Uera+LDPmwNHs598/gLrdAYdE++bo1g3k3X3nV3P
BxrFHDhmyeru84/+J5b3Z+8yAkXdfBgd0LOyaypKvsknP77Ktb7sEa+UKXXAxVnW
XVKHi5RphogCFeOaBi0i3H/JGNxvwtlMO6UJgS9dCYTYAB5HWOABScXtwfXjztWy
nWHppCPeSvVKJH0wuA2Q2J0/214q+KtdR+nGP6LDlmqDD6HfLfeF/xzgwuJ1/hZd
/hFxb0LNIOOp4fBQ9Kn0IEIhSghAPkIWbp3NFqM9fSrYLPtGdcjvKQbbqSfM5Wkx
QPg7s/RVd3zICtPNeNhq1cMs9m8ePz8nDydX4inFy0MktomF/lHuenYkzGC7Sfc0
vTpK+Nm4/n+898RnItHeRAuJ+NrKcghe39JjXdXOXLQnRsXp6Xk862gVvnLyEov2
H0ZIw18Dlh+IhC1//kVB6LzeqEYXlKPRQ11mccrM7p+LrFPV1G0s2h5Uk7sEBi+o
m/OJ4nfnf2ObqPEfhlgcjbtxH9/8/Xf7Pyf/lppUWRGI5uGRZYE6NID2LWoB0YI7
dtNu/0f0EV9oWO+DB5pA4lkRXurjiC6BW4o1+y3o7Gr0d1gXYXSoQaLb+2JzPPyO
5du/t0oYGmpzjr2Fch1BZVrJANdr6phkcrEbkKQf
-----END CERTIFICATE-----
