Certificate:
    Data:
        Version: 3 (0x2)
        Serial Number:
            da:32:63:a2:a1:2d:00:0c
        Signature Algorithm: sha1WithRSAEncryption
        Issuer: dc=org/dc=dataone, CN=DataONE Test CA
        Validity
            Not Before: Mar 10 01:22:22 2012 GMT
            Not After : Mar 10 01:22:22 2015 GMT
        Subject: dc=org/dc=dataone, CN=urn:node:mnStageUCSB3
        Subject Public Key Info:
            Public Key Algorithm: rsaEncryption
                Public-Key: (2048 bit)
                Modulus:
                    00:e2:dc:1e:d9:a8:f3:07:7a:55:53:a0:a5:67:36:
                    cc:fb:12:1b:f2:7f:9e:f6:5b:8c:13:95:63:5b:b0:
                    84:54:b7:05:ed:7b:1b:d0:6f:ed:d3:da:f2:98:81:
                    1b:89:e2:ba:dc:5a:f8:ab:7a:55:bd:f5:1a:a4:fc:
                    b9:01:0c:16:d1:58:02:a5:52:86:e7:09:fd:b3:99:
                    64:b6:0b:3e:39:7c:40:e7:1c:86:53:bf:9e:68:ca:
                    67:f7:78:50:95:5e:d0:8d:2e:d4:f9:01:e1:b0:ce:
                    69:65:a4:1b:e2:80:e5:8c:68:22:6a:17:52:be:25:
                    41:f7:e1:4c:6d:7f:15:f7:0c:0e:3a:6c:f1:89:96:
                    d6:11:9c:7e:43:a5:37:60:1e:17:8e:b1:8a:d7:68:
                    33:6e:aa:be:e6:58:0a:a8:d7:97:d2:00:28:35:ee:
                    9b:76:02:c5:36:0e:78:ab:e2:cd:4c:67:0f:86:73:
                    78:3c:6c:92:9a:f8:44:4a:ae:48:de:4e:f5:72:b4:
                    61:1e:a9:b0:c9:55:d0:4b:ac:39:3d:cb:da:10:3f:
                    d9:95:bd:15:1c:fe:83:22:1b:b8:31:b0:bb:02:6f:
                    37:5f:cd:62:31:bc:82:91:bc:2f:0e:34:05:48:91:
                    10:1a:8f:a5:d9:78:b3:05:fa:3b:b8:ef:45:cc:b9:
                    ba:4b
                Exponent: 65537 (0x10001)
        X509v3 extensions:
            X509v3 Basic Constraints: 
                CA:FALSE
            Netscape Comment: 
                OpenSSL Generated Certificate
            X509v3 Subject Key Identifier: 
                FD:56:B6:71:CD:F2:6A:53:5A:D0:64:AD:60:5A:B6:36:A2:9C:FB:C4
            X509v3 Authority Key Identifier: 
                keyid:9E:8B:82:0D:E5:97:34:40:F4:CB:7E:5A:0C:3B:CA:91:FD:5A:31:73

            X509v3 CRL Distribution Points: 

                Full Name:
                  URI:http://cn-ucsb-1.dataone.org/crl/DataONETest_CRL.pem

                Full Name:
                  URI:http://cn-unm-1.dataone.org/crl/DataONETest_CRL.pem

                Full Name:
                  URI:http://cn-orc-1.dataone.org/crl/DataONETest_CRL.pem

    Signature Algorithm: sha1WithRSAEncryption
        45:9d:92:e1:d2:61:00:41:06:10:36:43:60:f0:1b:84:77:9f:
        f1:0b:63:6c:7c:e4:b7:a6:64:5b:58:1f:f8:0f:17:1b:f4:b0:
        0e:4c:29:b4:9a:3f:60:0d:94:66:4d:ae:b0:7e:db:4f:ae:17:
        96:52:1b:7c:67:2c:0e:f1:dc:cc:2b:3b:17:88:24:0b:00:f3:
        98:7f:c1:76:6c:bd:93:dc:ef:06:a8:cf:5c:75:ed:ed:ad:68:
        0d:7e:b8:9a:77:55:bb:a2:f7:1f:9c:50:e4:bd:d3:7b:2b:cf:
        e4:57:c6:5f:b2:9b:ce:e1:27:ca:af:55:90:b4:c5:c0:ec:20:
        f8:a5:68:63:5c:94:c5:1c:29:ec:58:99:9b:a7:d6:03:99:c5:
        9c:65:eb:cc:77:1f:5f:4e:9c:9b:67:26:0e:d3:f1:9f:37:b4:
        c2:e4:07:b1:34:d0:5c:3b:2d:56:c8:bd:46:20:d3:46:38:11:
        63:22:cc:c8:b6:f5:98:bf:3d:d8:8b:d5:8d:f2:b7:53:5d:04:
        8f:55:c4:6d:a1:43:a5:3a:83:d5:02:91:bf:63:02:1e:30:6d:
        6a:8a:39:32:68:1e:8a:e2:54:95:43:20:dd:48:ec:68:c1:94:
        bf:bd:7a:b9:ed:e5:3f:4d:eb:ee:d1:b8:82:2e:44:d3:a0:b5:
        f4:4b:1d:57:db:f4:e3:60:f4:32:bf:e2:57:c1:e6:2a:c5:17:
        5c:29:78:69:be:9a:e4:d7:7b:16:76:46:9c:0e:6e:57:f4:31:
        3a:c1:0f:ff:6e:1c:2d:6e:a7:77:64:29:41:bd:3a:c8:a9:b9:
        00:87:c7:10:4f:05:a3:d2:67:38:68:18:6b:67:de:c4:80:d0:
        3d:de:f7:fc:36:89:02:a2:69:bd:1d:a4:2d:80:17:91:4b:c7:
        b8:28:f3:fa:f7:1e:bc:1d:8d:6f:b2:34:30:f6:75:59:4f:9d:
        96:09:c8:f2:6a:76:c5:09:64:e1:08:96:4e:c3:90:58:ac:18:
        32:93:b1:b0:56:f5:16:a4:67:27:0f:14:09:3e:23:c9:dc:fe:
        0e:1c:84:8d:f3:9b:fe:64:94:26:51:4e:84:93:5f:c5:d5:cf:
        0f:3a:b2:cb:db:de:e3:19:10:cb:85:0c:6d:00:eb:2e:18:10:
        aa:5b:d6:4f:f3:9e:38:0d:03:2b:9c:d7:8f:b0:cb:41:ef:91:
        23:65:dd:ce:21:6c:eb:7e:7d:55:55:c8:17:95:61:86:9b:42:
        ea:34:a6:f0:c1:62:8b:36:0f:04:43:c5:5a:3f:dc:92:c1:31:
        07:50:18:d5:c3:ac:4f:36:d5:89:e3:21:11:07:6b:1f:9a:a4:
        22:ea:21:95:67:50:f6:b3
-----BEGIN CERTIFICATE-----
MIIFWDCCA0CgAwIBAgIJANoyY6KhLQAMMA0GCSqGSIb3DQEBBQUAMEgxEzARBgoJ
kiaJk/IsZAEZFgNvcmcxFzAVBgoJkiaJk/IsZAEZFgdkYXRhb25lMRgwFgYDVQQD
DA9EYXRhT05FIFRlc3QgQ0EwHhcNMTIwMzEwMDEyMjIyWhcNMTUwMzEwMDEyMjIy
WjBOMRMwEQYKCZImiZPyLGQBGRYDb3JnMRcwFQYKCZImiZPyLGQBGRYHZGF0YW9u
ZTEeMBwGA1UEAwwVdXJuOm5vZGU6bW5TdGFnZVVDU0IzMIIBIjANBgkqhkiG9w0B
AQEFAAOCAQ8AMIIBCgKCAQEA4twe2ajzB3pVU6ClZzbM+xIb8n+e9luME5VjW7CE
VLcF7Xsb0G/t09rymIEbieK63Fr4q3pVvfUapPy5AQwW0VgCpVKG5wn9s5lktgs+
OXxA5xyGU7+eaMpn93hQlV7QjS7U+QHhsM5pZaQb4oDljGgiahdSviVB9+FMbX8V
9wwOOmzxiZbWEZx+Q6U3YB4XjrGK12gzbqq+5lgKqNeX0gAoNe6bdgLFNg54q+LN
TGcPhnN4PGySmvhESq5I3k71crRhHqmwyVXQS6w5PcvaED/Zlb0VHP6DIhu4MbC7
Am83X81iMbyCkbwvDjQFSJEQGo+l2XizBfo7uO9FzLm6SwIDAQABo4IBPTCCATkw
CQYDVR0TBAIwADAsBglghkgBhvhCAQ0EHxYdT3BlblNTTCBHZW5lcmF0ZWQgQ2Vy
dGlmaWNhdGUwHQYDVR0OBBYEFP1WtnHN8mpTWtBkrWBatjainPvEMB8GA1UdIwQY
MBaAFJ6Lgg3llzRA9Mt+Wgw7ypH9WjFzMIG9BgNVHR8EgbUwgbIwOqA4oDaGNGh0
dHA6Ly9jbi11Y3NiLTEuZGF0YW9uZS5vcmcvY3JsL0RhdGFPTkVUZXN0X0NSTC5w
ZW0wOaA3oDWGM2h0dHA6Ly9jbi11bm0tMS5kYXRhb25lLm9yZy9jcmwvRGF0YU9O
RVRlc3RfQ1JMLnBlbTA5oDegNYYzaHR0cDovL2NuLW9yYy0xLmRhdGFvbmUub3Jn
L2NybC9EYXRhT05FVGVzdF9DUkwucGVtMA0GCSqGSIb3DQEBBQUAA4ICAQBFnZLh
0mEAQQYQNkNg8BuEd5/xC2NsfOS3pmRbWB/4Dxcb9LAOTCm0mj9gDZRmTa6wfttP
rheWUht8ZywO8dzMKzsXiCQLAPOYf8F2bL2T3O8GqM9cde3trWgNfriad1W7ovcf
nFDkvdN7K8/kV8ZfspvO4SfKr1WQtMXA7CD4pWhjXJTFHCnsWJmbp9YDmcWcZevM
dx9fTpybZyYO0/GfN7TC5AexNNBcOy1WyL1GINNGOBFjIszItvWYvz3Yi9WN8rdT
XQSPVcRtoUOlOoPVApG/YwIeMG1qijkyaB6K4lSVQyDdSOxowZS/vXq57eU/Tevu
0biCLkTToLX0Sx1X2/TjYPQyv+JXweYqxRdcKXhpvprk13sWdkacDm5X9DE6wQ//
bhwtbqd3ZClBvTrIqbkAh8cQTwWj0mc4aBhrZ97EgNA93vf8NokComm9HaQtgBeR
S8e4KPP69x68HY1vsjQw9nVZT52WCcjyanbFCWThCJZOw5BYrBgyk7GwVvUWpGcn
DxQJPiPJ3P4OHISN85v+ZJQmUU6Ek1/F1c8POrLL297jGRDLhQxtAOsuGBCqW9ZP
8544DQMrnNePsMtB75EjZd3OIWzrfn1VVcgXlWGGm0LqNKbwwWKLNg8EQ8VaP9yS
wTEHUBjVw6xPNtWJ4yERB2sfmqQi6iGVZ1D2sw==
-----END CERTIFICATE-----
