Certificate:
    Data:
        Version: 3 (0x2)
        Serial Number:
            da:32:63:a2:a1:2d:00:05
        Signature Algorithm: sha1WithRSAEncryption
        Issuer: dc=org/dc=dataone, CN=DataONE Test CA
        Validity
            Not Before: Mar 10 01:00:58 2012 GMT
            Not After : Mar 10 01:00:58 2015 GMT
        Subject: dc=org/dc=dataone, CN=testMappedPerson
        Subject Public Key Info:
            Public Key Algorithm: rsaEncryption
                Public-Key: (2048 bit)
                Modulus:
                    00:cb:d1:c6:b4:22:32:f4:57:de:7b:59:ca:2d:81:
                    3a:17:9d:0b:43:90:b3:44:d5:02:fa:fe:b4:f7:34:
                    88:47:53:f5:98:02:4f:3f:7f:a2:c1:fa:5d:bd:47:
                    7b:2b:f8:25:d8:9e:17:d7:61:03:86:e2:5a:38:df:
                    1d:dd:9f:6a:39:f1:bc:d9:9b:88:21:5c:10:94:75:
                    31:00:5e:d0:2a:35:af:2e:81:52:c2:3c:b2:6a:42:
                    6e:ca:fb:e2:29:c7:9f:50:f1:f9:71:4b:04:c0:70:
                    64:e3:91:8e:15:2b:b8:8c:d9:80:01:75:14:59:53:
                    95:fd:23:e9:ad:97:dc:c5:be:db:0e:17:1f:41:31:
                    fb:e4:e6:8d:35:28:8a:2a:47:4f:d7:f1:0e:51:83:
                    bb:86:65:c4:a4:7f:b2:db:ba:18:28:bb:d5:bc:0b:
                    b6:25:8e:d7:69:e0:dc:85:6b:27:ac:f4:77:b1:9e:
                    0d:59:7f:b5:ec:72:48:a7:27:d3:d2:1e:ee:24:66:
                    cd:b3:1a:a4:27:c9:7d:0a:c6:9d:75:b4:fb:17:7e:
                    e7:18:2b:76:7d:46:e2:85:52:d6:8e:48:93:62:e2:
                    d5:c7:49:b3:be:1f:c2:8b:0f:aa:5b:1e:5c:cd:63:
                    03:8a:ce:6d:19:37:c0:c7:b9:07:3a:34:cd:87:7c:
                    ac:cd
                Exponent: 65537 (0x10001)
        X509v3 extensions:
            X509v3 Basic Constraints: 
                CA:FALSE
            Netscape Comment: 
                OpenSSL Generated Certificate
            X509v3 Subject Key Identifier: 
                7E:0C:3D:29:8F:13:CD:4F:5C:44:F6:E1:7F:88:FC:4C:2B:73:AD:C4
            X509v3 Authority Key Identifier: 
                keyid:9E:8B:82:0D:E5:97:34:40:F4:CB:7E:5A:0C:3B:CA:91:FD:5A:31:73

            X509v3 CRL Distribution Points: 

                Full Name:
                  URI:http://cn-ucsb-1.dataone.org/crl/DataONETest_CRL.pem

                Full Name:
                  URI:http://cn-unm-1.dataone.org/crl/DataONETest_CRL.pem

                Full Name:
                  URI:http://cn-orc-1.dataone.org/crl/DataONETest_CRL.pem

            subject_info: 
                ....<?xml version=1.0 encoding=UTF-8?><d1:subjectInfo xmlns:d1=http://ns.dataone.org/service/types/v1>.<person>..<subject>CN=testMappedPerson,DC=dataone,DC=org</subject>..<givenName>testMappedPerson_givenName</givenName>..<familyName>testMappedPerson_familyName</familyName>..<equivalentIdentity>CN=testPerson,DC=dataone,DC=org</equivalentIdentity>.</person>.<person>..<subject>CN=testPerson,DC=dataone,DC=org</subject>..<givenName>testPerson_givenName</givenName>..<familyName>testPerson_familyName</familyName>..<isMemberOf>testGroup</isMemberOf>..<equivalentIdentity>CN=testMappedPerson,DC=dataone,DC=org</equivalentIdentity>..<verified>true</verified>.</person></d1:subjectInfo>
    Signature Algorithm: sha1WithRSAEncryption
        5a:45:fc:05:f8:02:f1:c1:b3:63:af:a5:b7:93:50:3a:b7:dd:
        7b:82:c4:9e:30:15:11:75:7c:15:97:ec:e9:41:1f:0e:77:d5:
        55:41:0f:1f:8d:63:18:9c:ed:62:1e:e8:3e:f5:c3:88:88:1c:
        42:81:db:9a:da:7c:3f:38:13:63:29:d6:d2:18:1a:28:21:c6:
        46:1f:b6:93:5d:54:05:04:87:c7:f9:d3:85:f1:3a:06:af:73:
        4b:69:37:05:3a:51:47:79:96:00:74:bf:c0:ad:1f:e0:0a:f2:
        6a:62:36:d1:67:6d:c2:bb:10:f7:59:17:3c:8f:af:66:3e:0a:
        93:28:37:33:4f:91:fc:c0:0f:d4:70:8f:3b:86:19:51:04:5d:
        a4:46:ab:44:62:9e:e8:22:0a:0a:75:76:ff:18:ef:a2:2d:7c:
        12:95:df:13:63:32:d1:4d:fc:4e:42:ca:54:70:db:3d:2e:78:
        fc:f7:f4:78:43:c4:06:cb:50:07:55:41:8c:4e:c3:65:ca:10:
        cf:df:80:5e:b8:ce:ef:60:5c:1d:4f:9f:71:79:11:6c:06:42:
        1e:39:e1:f2:2a:4e:de:07:7d:9b:db:12:ad:8a:3e:a2:54:c6:
        7d:85:b7:c6:2e:56:a3:88:ff:80:47:5f:a9:4b:c9:67:8d:fb:
        96:2b:29:09:ee:92:a2:a1:dc:8e:c8:cc:4b:51:5d:2c:dd:a5:
        f6:3e:a8:06:ab:13:fe:29:2d:f9:39:87:a9:90:cd:a9:d4:4b:
        56:72:35:4c:bc:bf:12:2e:e9:67:dd:ef:52:56:93:e3:b2:41:
        d5:4d:3f:32:eb:28:a4:f4:28:1d:75:8c:e4:70:23:50:99:57:
        78:a7:3a:d3:51:b5:28:27:17:b0:64:7e:89:84:14:ff:72:d9:
        a3:70:aa:d5:d4:5d:52:81:78:c4:ff:a1:f3:ea:9e:c8:94:e5:
        e1:35:f1:54:4d:ce:87:d3:84:ad:7e:1b:4c:7d:9a:8b:a0:2e:
        e1:d2:81:fd:da:33:c8:c5:f3:10:43:46:38:34:ff:32:b3:57:
        14:3a:63:b6:5b:8c:8c:88:0d:4b:61:9d:17:21:1b:67:ac:6b:
        3f:c3:42:d0:56:c0:fd:d8:c6:f4:18:d7:33:2f:ed:c7:95:60:
        1a:4c:a9:ff:47:d1:27:7e:71:8b:a2:fa:f0:f7:13:fb:88:f6:
        9d:ba:2d:3f:3b:16:99:bd:37:0b:51:d1:2a:83:c9:ef:40:a0:
        eb:04:92:46:98:c8:c8:dd:72:5d:e5:13:53:86:80:dd:21:a4:
        f0:e2:e4:e9:04:43:3b:26:06:46:2e:65:f6:f2:35:42:0f:e2:
        a6:61:3c:ac:7f:b9:49:f5
-----BEGIN CERTIFICATE-----
MIIIETCCBfmgAwIBAgIJANoyY6KhLQAFMA0GCSqGSIb3DQEBBQUAMEgxEzARBgoJ
kiaJk/IsZAEZFgNvcmcxFzAVBgoJkiaJk/IsZAEZFgdkYXRhb25lMRgwFgYDVQQD
DA9EYXRhT05FIFRlc3QgQ0EwHhcNMTIwMzEwMDEwMDU4WhcNMTUwMzEwMDEwMDU4
WjBJMRMwEQYKCZImiZPyLGQBGRYDb3JnMRcwFQYKCZImiZPyLGQBGRYHZGF0YW9u
ZTEZMBcGA1UEAwwQdGVzdE1hcHBlZFBlcnNvbjCCASIwDQYJKoZIhvcNAQEBBQAD
ggEPADCCAQoCggEBAMvRxrQiMvRX3ntZyi2BOhedC0OQs0TVAvr+tPc0iEdT9ZgC
Tz9/osH6Xb1Heyv4JdieF9dhA4biWjjfHd2fajnxvNmbiCFcEJR1MQBe0Co1ry6B
UsI8smpCbsr74inHn1Dx+XFLBMBwZOORjhUruIzZgAF1FFlTlf0j6a2X3MW+2w4X
H0Ex++TmjTUoiipHT9fxDlGDu4ZlxKR/stu6GCi71bwLtiWO12ng3IVrJ6z0d7Ge
DVl/texySKcn09Ie7iRmzbMapCfJfQrGnXW0+xd+5xgrdn1G4oVS1o5Ik2Li1cdJ
s74fwosPqlseXM1jA4rObRk3wMe5Bzo0zYd8rM0CAwEAAaOCA/swggP3MAkGA1Ud
EwQCMAAwLAYJYIZIAYb4QgENBB8WHU9wZW5TU0wgR2VuZXJhdGVkIENlcnRpZmlj
YXRlMB0GA1UdDgQWBBR+DD0pjxPNT1xE9uF/iPxMK3OtxDAfBgNVHSMEGDAWgBSe
i4IN5Zc0QPTLfloMO8qR/VoxczCBvQYDVR0fBIG1MIGyMDqgOKA2hjRodHRwOi8v
Y24tdWNzYi0xLmRhdGFvbmUub3JnL2NybC9EYXRhT05FVGVzdF9DUkwucGVtMDmg
N6A1hjNodHRwOi8vY24tdW5tLTEuZGF0YW9uZS5vcmcvY3JsL0RhdGFPTkVUZXN0
X0NSTC5wZW0wOaA3oDWGM2h0dHA6Ly9jbi1vcmMtMS5kYXRhb25lLm9yZy9jcmwv
RGF0YU9ORVRlc3RfQ1JMLnBlbTCCAroGCisGAQQBgpE2AgEEggKqDIICpjw/eG1s
IHZlcnNpb249MS4wIGVuY29kaW5nPVVURi04Pz48ZDE6c3ViamVjdEluZm8geG1s
bnM6ZDE9aHR0cDovL25zLmRhdGFvbmUub3JnL3NlcnZpY2UvdHlwZXMvdjE+CTxw
ZXJzb24+CQk8c3ViamVjdD5DTj10ZXN0TWFwcGVkUGVyc29uLERDPWRhdGFvbmUs
REM9b3JnPC9zdWJqZWN0PgkJPGdpdmVuTmFtZT50ZXN0TWFwcGVkUGVyc29uX2dp
dmVuTmFtZTwvZ2l2ZW5OYW1lPgkJPGZhbWlseU5hbWU+dGVzdE1hcHBlZFBlcnNv
bl9mYW1pbHlOYW1lPC9mYW1pbHlOYW1lPgkJPGVxdWl2YWxlbnRJZGVudGl0eT5D
Tj10ZXN0UGVyc29uLERDPWRhdGFvbmUsREM9b3JnPC9lcXVpdmFsZW50SWRlbnRp
dHk+CTwvcGVyc29uPgk8cGVyc29uPgkJPHN1YmplY3Q+Q049dGVzdFBlcnNvbixE
Qz1kYXRhb25lLERDPW9yZzwvc3ViamVjdD4JCTxnaXZlbk5hbWU+dGVzdFBlcnNv
bl9naXZlbk5hbWU8L2dpdmVuTmFtZT4JCTxmYW1pbHlOYW1lPnRlc3RQZXJzb25f
ZmFtaWx5TmFtZTwvZmFtaWx5TmFtZT4JCTxpc01lbWJlck9mPnRlc3RHcm91cDwv
aXNNZW1iZXJPZj4JCTxlcXVpdmFsZW50SWRlbnRpdHk+Q049dGVzdE1hcHBlZFBl
cnNvbixEQz1kYXRhb25lLERDPW9yZzwvZXF1aXZhbGVudElkZW50aXR5PgkJPHZl
cmlmaWVkPnRydWU8L3ZlcmlmaWVkPgk8L3BlcnNvbj48L2QxOnN1YmplY3RJbmZv
PjANBgkqhkiG9w0BAQUFAAOCAgEAWkX8BfgC8cGzY6+lt5NQOrfde4LEnjAVEXV8
FZfs6UEfDnfVVUEPH41jGJztYh7oPvXDiIgcQoHbmtp8PzgTYynW0hgaKCHGRh+2
k11UBQSHx/nThfE6Bq9zS2k3BTpRR3mWAHS/wK0f4AryamI20WdtwrsQ91kXPI+v
Zj4Kkyg3M0+R/MAP1HCPO4YZUQRdpEarRGKe6CIKCnV2/xjvoi18EpXfE2My0U38
TkLKVHDbPS54/Pf0eEPEBstQB1VBjE7DZcoQz9+AXrjO72BcHU+fcXkRbAZCHjnh
8ipO3gd9m9sSrYo+olTGfYW3xi5Wo4j/gEdfqUvJZ437lispCe6SoqHcjsjMS1Fd
LN2l9j6oBqsT/ikt+TmHqZDNqdRLVnI1TLy/Ei7pZ93vUlaT47JB1U0/MusopPQo
HXWM5HAjUJlXeKc601G1KCcXsGR+iYQU/3LZo3Cq1dRdUoF4xP+h8+qeyJTl4TXx
VE3Oh9OErX4bTH2ai6Au4dKB/dozyMXzEENGODT/MrNXFDpjtluMjIgNS2GdFyEb
Z6xrP8NC0FbA/djG9BjXMy/tx5VgGkyp/0fRJ35xi6L68PcT+4j2nbotPzsWmb03
C1HRKoPJ70Cg6wSSRpjIyN1yXeUTU4aA3SGk8OLk6QRDOyYGRi5l9vI1Qg/ipmE8
rH+5SfU=
-----END CERTIFICATE-----
