Certificate:
    Data:
        Version: 3 (0x2)
        Serial Number:
            da:32:63:a2:a1:2d:00:1a
        Signature Algorithm: sha1WithRSAEncryption
        Issuer: dc=org/dc=dataone, CN=DataONE Test CA
        Validity
            Not Before: Mar 10 02:13:55 2012 GMT
            Not After : Mar 10 02:13:55 2015 GMT
        Subject: dc=org/dc=dataone, CN=cn-sandbox-orc-1.dataone.org
        Subject Public Key Info:
            Public Key Algorithm: rsaEncryption
                Public-Key: (2048 bit)
                Modulus:
                    00:c6:10:5d:60:4d:c6:4b:b5:0e:c2:07:fd:50:0b:
                    a8:f0:3c:3f:91:6a:02:1d:f7:b2:0f:47:24:60:2e:
                    15:c8:9f:b5:3d:c8:05:26:82:ee:11:44:13:f7:f7:
                    2c:e6:85:5e:22:6e:aa:d8:e1:63:c5:4b:e2:d0:e2:
                    54:af:40:16:20:9c:6a:11:4e:f3:cf:86:b3:79:97:
                    06:f2:57:da:07:09:f6:b2:20:bd:67:89:95:c4:6b:
                    58:e5:cd:3c:cc:f1:f7:64:64:74:a6:c8:35:27:71:
                    e4:4c:cc:18:97:df:7c:93:78:da:f2:76:29:ab:db:
                    92:a7:f4:de:57:4c:4f:38:de:37:a3:55:42:44:d6:
                    66:05:97:d2:13:c4:f4:05:6c:30:93:39:0c:e1:6b:
                    6d:8d:ad:2b:a0:f8:e7:53:21:a3:68:38:39:94:dd:
                    57:df:89:33:3e:b1:bb:b9:b2:a0:22:93:ad:a7:d5:
                    b2:71:c5:fa:6a:1c:e4:1a:ee:05:fe:54:47:45:2d:
                    43:5a:6f:31:32:11:74:ce:8d:bd:44:c5:70:2d:b8:
                    6d:b9:e9:1c:b5:b1:d3:68:f0:37:d9:46:9c:19:42:
                    86:f3:c9:7e:ac:cf:5a:92:2f:69:fa:32:51:86:76:
                    6a:de:57:9b:f7:8d:a2:f1:fa:9a:db:f8:61:84:fb:
                    2b:15
                Exponent: 65537 (0x10001)
        X509v3 extensions:
            X509v3 Basic Constraints: 
                CA:FALSE
            Netscape Comment: 
                OpenSSL Generated Certificate
            X509v3 Subject Key Identifier: 
                0D:10:78:64:AC:6E:21:49:83:38:07:73:5A:6D:6D:DF:D7:DC:C9:4B
            X509v3 Authority Key Identifier: 
                keyid:9E:8B:82:0D:E5:97:34:40:F4:CB:7E:5A:0C:3B:CA:91:FD:5A:31:73

            X509v3 CRL Distribution Points: 

                Full Name:
                  URI:http://cn-ucsb-1.dataone.org/crl/DataONETest_CRL.pem

                Full Name:
                  URI:http://cn-unm-1.dataone.org/crl/DataONETest_CRL.pem

                Full Name:
                  URI:http://cn-orc-1.dataone.org/crl/DataONETest_CRL.pem

    Signature Algorithm: sha1WithRSAEncryption
        77:02:9d:7e:f9:6f:16:c1:92:a7:e1:72:af:42:2c:81:bf:28:
        f2:07:d1:3d:c3:ba:d2:fe:fe:d6:4e:77:d2:a6:a0:6b:35:7d:
        2c:f7:cb:0e:ad:b7:53:b1:f7:93:86:62:49:c6:e0:d7:da:7e:
        2b:97:9e:48:12:c2:23:ae:3a:b5:3e:e1:39:f3:0c:e9:81:09:
        7a:81:88:cb:cc:4a:ef:bd:53:82:4a:f2:b6:7f:23:b3:db:b2:
        ae:4a:02:b6:e4:41:9a:51:35:b8:bd:0d:86:d8:4f:22:b0:8e:
        79:11:d0:c0:e0:9d:03:eb:c1:59:f5:89:1e:c6:db:dc:33:1e:
        91:29:ec:b3:5d:b4:39:15:a0:ee:18:76:25:c3:1d:b1:0d:29:
        ac:3b:b9:fc:68:e6:20:da:a9:92:6d:b3:c7:61:ac:de:fa:7b:
        57:f9:f6:8d:a5:bd:38:1a:16:2b:a6:fa:cd:d3:6c:8a:f0:04:
        f4:4f:cc:bd:3d:06:92:75:70:4d:07:9a:5e:97:4c:26:83:bf:
        a2:56:98:a4:15:ac:ea:4e:44:41:8c:91:8d:90:f5:6d:cc:c9:
        eb:f4:8c:d4:c6:d1:71:66:64:d4:6a:76:6e:9d:07:6e:46:d7:
        a0:32:1d:e2:fc:b7:75:6f:b2:60:b0:04:26:dd:47:71:84:d4:
        1b:77:d6:23:0f:99:31:94:d9:4a:80:a6:36:23:e9:89:cd:c2:
        6e:a8:be:57:80:a1:d6:57:24:dc:ae:a9:cb:04:e8:8d:e4:58:
        85:2d:f8:c2:da:bd:ba:f4:1f:0d:2a:e0:ff:08:ba:b8:1f:ea:
        d6:26:53:ca:8a:e7:fd:9f:d5:84:f1:f0:4d:ce:4d:28:b5:17:
        eb:86:a6:07:fa:1c:1c:60:68:37:d5:8b:d8:d7:48:ce:0a:00:
        35:a9:57:86:65:94:00:40:8f:be:01:35:33:97:1e:8a:c8:90:
        69:e6:aa:5e:3f:23:d4:8a:32:7e:37:ea:5f:c8:91:6a:7f:1b:
        0d:f6:f3:d9:9e:a5:87:6d:4f:be:87:d5:7f:70:8b:00:2b:a3:
        e4:40:02:56:b1:38:84:ac:3c:6f:ba:88:2b:a9:8c:8f:30:ba:
        bc:5c:0b:7f:f5:e2:17:75:ac:61:64:5a:d3:80:c8:5a:80:2b:
        3f:23:f0:91:6f:8e:a4:18:64:1a:64:b6:f5:f8:82:f1:32:d8:
        4c:d3:a1:56:7b:70:ec:f7:40:ca:40:36:cd:59:9a:0e:58:b4:
        fb:f5:fc:62:a1:e9:20:71:49:70:4f:be:d1:05:fc:84:ac:c3:
        4d:25:2d:3d:b4:e4:3e:d4:68:97:eb:3b:0a:50:c1:ef:b7:74:
        cc:20:40:70:0e:eb:34:68
-----BEGIN CERTIFICATE-----
MIIFXzCCA0egAwIBAgIJANoyY6KhLQAaMA0GCSqGSIb3DQEBBQUAMEgxEzARBgoJ
kiaJk/IsZAEZFgNvcmcxFzAVBgoJkiaJk/IsZAEZFgdkYXRhb25lMRgwFgYDVQQD
DA9EYXRhT05FIFRlc3QgQ0EwHhcNMTIwMzEwMDIxMzU1WhcNMTUwMzEwMDIxMzU1
WjBVMRMwEQYKCZImiZPyLGQBGRYDb3JnMRcwFQYKCZImiZPyLGQBGRYHZGF0YW9u
ZTElMCMGA1UEAwwcY24tc2FuZGJveC1vcmMtMS5kYXRhb25lLm9yZzCCASIwDQYJ
KoZIhvcNAQEBBQADggEPADCCAQoCggEBAMYQXWBNxku1DsIH/VALqPA8P5FqAh33
sg9HJGAuFciftT3IBSaC7hFEE/f3LOaFXiJuqtjhY8VL4tDiVK9AFiCcahFO88+G
s3mXBvJX2gcJ9rIgvWeJlcRrWOXNPMzx92RkdKbINSdx5EzMGJfffJN42vJ2Kavb
kqf03ldMTzjeN6NVQkTWZgWX0hPE9AVsMJM5DOFrbY2tK6D451Mho2g4OZTdV9+J
Mz6xu7myoCKTrafVsnHF+moc5BruBf5UR0UtQ1pvMTIRdM6NvUTFcC24bbnpHLWx
02jwN9lGnBlChvPJfqzPWpIvafoyUYZ2at5Xm/eNovH6mtv4YYT7KxUCAwEAAaOC
AT0wggE5MAkGA1UdEwQCMAAwLAYJYIZIAYb4QgENBB8WHU9wZW5TU0wgR2VuZXJh
dGVkIENlcnRpZmljYXRlMB0GA1UdDgQWBBQNEHhkrG4hSYM4B3NabW3f19zJSzAf
BgNVHSMEGDAWgBSei4IN5Zc0QPTLfloMO8qR/VoxczCBvQYDVR0fBIG1MIGyMDqg
OKA2hjRodHRwOi8vY24tdWNzYi0xLmRhdGFvbmUub3JnL2NybC9EYXRhT05FVGVz
dF9DUkwucGVtMDmgN6A1hjNodHRwOi8vY24tdW5tLTEuZGF0YW9uZS5vcmcvY3Js
L0RhdGFPTkVUZXN0X0NSTC5wZW0wOaA3oDWGM2h0dHA6Ly9jbi1vcmMtMS5kYXRh
b25lLm9yZy9jcmwvRGF0YU9ORVRlc3RfQ1JMLnBlbTANBgkqhkiG9w0BAQUFAAOC
AgEAdwKdfvlvFsGSp+Fyr0Isgb8o8gfRPcO60v7+1k530qagazV9LPfLDq23U7H3
k4ZiScbg19p+K5eeSBLCI646tT7hOfMM6YEJeoGIy8xK771Tgkrytn8js9uyrkoC
tuRBmlE1uL0NhthPIrCOeRHQwOCdA+vBWfWJHsbb3DMekSnss120ORWg7hh2JcMd
sQ0prDu5/GjmINqpkm2zx2Gs3vp7V/n2jaW9OBoWK6b6zdNsivAE9E/MvT0GknVw
TQeaXpdMJoO/olaYpBWs6k5EQYyRjZD1bczJ6/SM1MbRcWZk1Gp2bp0HbkbXoDId
4vy3dW+yYLAEJt1HcYTUG3fWIw+ZMZTZSoCmNiPpic3Cbqi+V4Ch1lck3K6pywTo
jeRYhS34wtq9uvQfDSrg/wi6uB/q1iZTyorn/Z/VhPHwTc5NKLUX64amB/ocHGBo
N9WL2NdIzgoANalXhmWUAECPvgE1M5ceisiQaeaqXj8j1IoyfjfqX8iRan8bDfbz
2Z6lh21PvofVf3CLACuj5EACVrE4hKw8b7qIK6mMjzC6vFwLf/XiF3WsYWRa04DI
WoArPyPwkW+OpBhkGmS29fiC8TLYTNOhVntw7PdAykA2zVmaDli0+/X8YqHpIHFJ
cE++0QX8hKzDTSUtPbTkPtRol+s7ClDB77d0zCBAcA7rNGg=
-----END CERTIFICATE-----
