Certificate:
    Data:
        Version: 3 (0x2)
        Serial Number:
            da:32:63:a2:a1:2d:00:0a
        Signature Algorithm: sha1WithRSAEncryption
        Issuer: dc=org/dc=dataone, CN=DataONE Test CA
        Validity
            Not Before: Mar 10 01:20:52 2012 GMT
            Not After : Mar 10 01:20:52 2015 GMT
        Subject: dc=org/dc=dataone, CN=urn:node:mnStageUCSB1
        Subject Public Key Info:
            Public Key Algorithm: rsaEncryption
                Public-Key: (2048 bit)
                Modulus:
                    00:b3:95:11:74:1f:2a:fa:d8:13:90:8f:c8:ef:ec:
                    fa:13:9b:17:bc:95:47:80:d7:15:91:91:01:fb:d3:
                    33:93:fd:bd:1d:56:2a:9b:9c:d8:9a:dc:d6:da:6c:
                    d7:a9:c3:78:94:7f:26:fb:de:6c:d5:44:b4:85:66:
                    a7:6a:4f:11:c8:21:ff:30:0b:9b:0f:77:af:48:32:
                    4d:2d:4e:89:94:45:7f:a5:fe:49:c3:6e:f9:d3:3b:
                    59:27:d0:15:74:5e:59:94:a2:4a:9b:38:b5:6c:d3:
                    60:86:8e:ad:5e:0e:90:44:20:90:23:a5:f2:07:a5:
                    45:22:d7:f5:fe:25:9b:46:7d:47:8c:84:b4:f4:9f:
                    ef:21:0d:90:ed:24:8b:60:8b:5a:bb:71:67:1d:9b:
                    fb:87:87:cf:8f:3f:f5:0b:a8:8b:60:cd:5a:18:64:
                    d7:54:c1:24:a7:e2:6f:ef:a5:c0:bc:be:6c:d9:a4:
                    49:4c:cc:e0:b1:51:ee:e8:1a:36:f9:31:32:ce:8b:
                    61:8b:54:19:af:9c:77:eb:ee:6a:e1:77:d3:8f:2e:
                    66:30:9e:60:e7:0f:b6:c6:d1:4f:d8:5c:21:b0:c4:
                    a1:6f:09:df:90:df:b0:1d:7e:46:fb:21:96:f9:ec:
                    7f:f3:8f:ed:6b:3b:95:df:fb:1d:d7:d8:f5:da:eb:
                    2b:81
                Exponent: 65537 (0x10001)
        X509v3 extensions:
            X509v3 Basic Constraints: 
                CA:FALSE
            Netscape Comment: 
                OpenSSL Generated Certificate
            X509v3 Subject Key Identifier: 
                49:C1:B3:FF:D0:ED:54:CB:A5:00:CC:42:A4:5B:7B:75:77:FF:7E:EC
            X509v3 Authority Key Identifier: 
                keyid:9E:8B:82:0D:E5:97:34:40:F4:CB:7E:5A:0C:3B:CA:91:FD:5A:31:73

            X509v3 CRL Distribution Points: 

                Full Name:
                  URI:http://cn-ucsb-1.dataone.org/crl/DataONETest_CRL.pem

                Full Name:
                  URI:http://cn-unm-1.dataone.org/crl/DataONETest_CRL.pem

                Full Name:
                  URI:http://cn-orc-1.dataone.org/crl/DataONETest_CRL.pem

    Signature Algorithm: sha1WithRSAEncryption
        14:d0:39:d0:c2:32:28:8d:bd:1c:31:cf:3d:a0:ca:12:77:41:
        14:6b:86:28:d4:82:91:74:76:bf:9f:09:cf:66:e6:1e:06:54:
        ea:9b:ea:3f:67:5e:a3:05:68:e1:e6:8d:21:d9:e8:2d:f2:3d:
        92:4e:da:d5:61:a7:78:47:83:d7:f4:d6:67:6e:f1:b1:32:05:
        bf:f8:a8:d8:f4:33:65:02:fa:13:d7:33:56:44:50:04:aa:26:
        dd:fb:bd:a0:74:66:76:d8:bd:0a:00:42:06:2b:ae:03:0f:4f:
        25:26:af:bf:04:ec:76:6a:71:56:7d:c9:db:cb:2c:69:60:f8:
        0e:f8:40:41:ee:cf:a4:c9:dc:c8:a3:5b:47:88:a9:35:c0:fa:
        d9:1a:54:36:9c:94:73:da:5d:5c:fa:00:6c:ec:26:36:81:ca:
        0b:05:a3:68:d4:ca:66:8e:f6:a4:b8:7a:a0:b8:7d:e2:51:36:
        7d:f8:a7:35:b9:ea:a5:14:2d:68:63:72:be:5e:aa:5f:7c:00:
        7b:17:66:b2:61:11:43:1e:b0:df:be:6e:1b:9d:77:fd:98:b8:
        45:d4:bc:8f:ad:ec:c4:a3:5b:87:26:a0:c4:48:9b:bc:d6:d9:
        27:1a:27:e7:51:ca:fd:61:c2:f1:70:64:cb:44:f7:c7:2f:a8:
        62:c4:c7:2f:b9:21:ca:73:44:5a:6e:10:ad:61:81:93:ab:0f:
        16:54:d9:65:e7:c3:3d:26:61:39:51:92:96:8e:83:43:43:90:
        8b:30:64:3b:58:de:ff:2f:76:31:bd:88:60:58:75:b5:20:62:
        1b:76:7d:ca:e8:4e:2b:fc:cc:8b:e9:0c:49:6f:f9:93:e3:73:
        86:f9:91:2e:41:dd:c7:c7:50:35:6d:0c:bd:4e:7b:1e:3c:95:
        9e:99:40:b1:93:06:1f:0d:28:24:d9:b6:82:68:dc:df:54:3b:
        ec:8f:65:2f:9a:45:48:b6:41:9e:f5:c2:94:12:94:b4:a8:ac:
        e2:0e:54:40:6e:e7:2b:2f:aa:12:37:93:6b:ca:b3:7c:10:b5:
        c0:b9:fe:88:a5:4c:e8:50:6d:96:db:be:8f:45:ea:49:d4:98:
        50:77:52:dd:21:5d:61:55:e8:ee:02:87:3c:bd:df:fb:df:38:
        80:07:0a:a7:56:5c:d0:38:0d:16:de:a4:ff:dc:a8:66:6c:2e:
        c3:f0:d4:a8:81:b0:7b:07:bf:24:0d:ae:d8:6e:5d:8c:1c:57:
        a3:44:1a:54:0c:cf:7e:92:18:7c:e9:f9:78:3d:1c:84:98:c3:
        41:43:d3:91:e1:28:2c:c6:f9:1f:3f:73:ef:8f:f6:ba:44:9b:
        4c:70:26:e2:54:a6:5e:d2
-----BEGIN CERTIFICATE-----
MIIFWDCCA0CgAwIBAgIJANoyY6KhLQAKMA0GCSqGSIb3DQEBBQUAMEgxEzARBgoJ
kiaJk/IsZAEZFgNvcmcxFzAVBgoJkiaJk/IsZAEZFgdkYXRhb25lMRgwFgYDVQQD
DA9EYXRhT05FIFRlc3QgQ0EwHhcNMTIwMzEwMDEyMDUyWhcNMTUwMzEwMDEyMDUy
WjBOMRMwEQYKCZImiZPyLGQBGRYDb3JnMRcwFQYKCZImiZPyLGQBGRYHZGF0YW9u
ZTEeMBwGA1UEAwwVdXJuOm5vZGU6bW5TdGFnZVVDU0IxMIIBIjANBgkqhkiG9w0B
AQEFAAOCAQ8AMIIBCgKCAQEAs5URdB8q+tgTkI/I7+z6E5sXvJVHgNcVkZEB+9Mz
k/29HVYqm5zYmtzW2mzXqcN4lH8m+95s1US0hWanak8RyCH/MAubD3evSDJNLU6J
lEV/pf5Jw2750ztZJ9AVdF5ZlKJKmzi1bNNgho6tXg6QRCCQI6XyB6VFItf1/iWb
Rn1HjIS09J/vIQ2Q7SSLYItau3FnHZv7h4fPjz/1C6iLYM1aGGTXVMEkp+Jv76XA
vL5s2aRJTMzgsVHu6Bo2+TEyzothi1QZr5x36+5q4XfTjy5mMJ5g5w+2xtFP2Fwh
sMShbwnfkN+wHX5G+yGW+ex/84/tazuV3/sd19j12usrgQIDAQABo4IBPTCCATkw
CQYDVR0TBAIwADAsBglghkgBhvhCAQ0EHxYdT3BlblNTTCBHZW5lcmF0ZWQgQ2Vy
dGlmaWNhdGUwHQYDVR0OBBYEFEnBs//Q7VTLpQDMQqRbe3V3/37sMB8GA1UdIwQY
MBaAFJ6Lgg3llzRA9Mt+Wgw7ypH9WjFzMIG9BgNVHR8EgbUwgbIwOqA4oDaGNGh0
dHA6Ly9jbi11Y3NiLTEuZGF0YW9uZS5vcmcvY3JsL0RhdGFPTkVUZXN0X0NSTC5w
ZW0wOaA3oDWGM2h0dHA6Ly9jbi11bm0tMS5kYXRhb25lLm9yZy9jcmwvRGF0YU9O
RVRlc3RfQ1JMLnBlbTA5oDegNYYzaHR0cDovL2NuLW9yYy0xLmRhdGFvbmUub3Jn
L2NybC9EYXRhT05FVGVzdF9DUkwucGVtMA0GCSqGSIb3DQEBBQUAA4ICAQAU0DnQ
wjIojb0cMc89oMoSd0EUa4Yo1IKRdHa/nwnPZuYeBlTqm+o/Z16jBWjh5o0h2egt
8j2STtrVYad4R4PX9NZnbvGxMgW/+KjY9DNlAvoT1zNWRFAEqibd+72gdGZ22L0K
AEIGK64DD08lJq+/BOx2anFWfcnbyyxpYPgO+EBB7s+kydzIo1tHiKk1wPrZGlQ2
nJRz2l1c+gBs7CY2gcoLBaNo1MpmjvakuHqguH3iUTZ9+Kc1ueqlFC1oY3K+Xqpf
fAB7F2ayYRFDHrDfvm4bnXf9mLhF1LyPrezEo1uHJqDESJu81tknGifnUcr9YcLx
cGTLRPfHL6hixMcvuSHKc0RabhCtYYGTqw8WVNll58M9JmE5UZKWjoNDQ5CLMGQ7
WN7/L3YxvYhgWHW1IGIbdn3K6E4r/MyL6QxJb/mT43OG+ZEuQd3Hx1A1bQy9Tnse
PJWemUCxkwYfDSgk2baCaNzfVDvsj2UvmkVItkGe9cKUEpS0qKziDlRAbucrL6oS
N5NryrN8ELXAuf6IpUzoUG2W276PRepJ1JhQd1LdIV1hVejuAoc8vd/73ziABwqn
VlzQOA0W3qT/3KhmbC7D8NSogbB7B78kDa7Ybl2MHFejRBpUDM9+khh86fl4PRyE
mMNBQ9OR4SgsxvkfP3Pvj/a6RJtMcCbiVKZe0g==
-----END CERTIFICATE-----
