Certificate:
    Data:
        Version: 3 (0x2)
        Serial Number:
            da:32:63:a2:a1:2d:00:22
        Signature Algorithm: sha1WithRSAEncryption
        Issuer: dc=org/dc=dataone, CN=DataONE Test CA
        Validity
            Not Before: Apr 11 00:13:30 2012 GMT
            Not After : Apr 11 00:13:30 2015 GMT
        Subject: dc=org/dc=dataone, CN=urn:node:D1USGS4
        Subject Public Key Info:
            Public Key Algorithm: rsaEncryption
                Public-Key: (2048 bit)
                Modulus:
                    00:ca:1d:93:b0:f7:27:95:ec:b1:fc:c6:b5:49:b8:
                    00:e7:62:f1:18:9a:6d:e7:c5:92:c4:ea:79:0d:1c:
                    fc:c4:e6:83:30:34:f0:c9:ba:4e:db:3e:0b:0b:9a:
                    3f:df:87:b3:7d:12:65:29:cb:40:79:ba:a2:4b:a1:
                    b0:34:6f:2c:20:4a:df:e8:e3:2b:8a:b7:67:f4:45:
                    08:80:4d:da:66:1d:9f:32:19:60:c6:77:e1:48:3d:
                    3b:84:4d:5d:24:b7:c6:b7:7b:89:c2:74:d8:a7:53:
                    c0:db:25:0b:6c:24:d6:4f:0c:95:c3:ad:62:9c:e4:
                    d0:b9:d2:9f:2b:18:1f:93:4e:10:1d:58:b7:54:fd:
                    e5:6b:3c:e4:89:af:05:5b:cd:b0:29:02:ea:de:22:
                    31:ac:04:2b:1a:80:43:cd:ba:11:59:6f:54:32:6d:
                    1e:e4:ec:4c:d3:64:12:a8:a9:e0:85:0c:80:73:69:
                    01:a3:5f:91:e3:aa:40:49:56:ba:1e:61:31:40:90:
                    2e:06:5b:fb:34:20:81:3f:12:6c:c7:fd:fa:49:74:
                    85:d6:81:91:a7:e4:4b:dd:c5:1b:f8:a4:1f:01:f7:
                    9e:fa:23:bc:a1:b2:c7:1b:76:bc:4a:cd:0e:8e:c3:
                    01:ad:e4:88:66:27:c8:e8:b2:63:39:eb:5a:97:75:
                    95:39
                Exponent: 65537 (0x10001)
        X509v3 extensions:
            X509v3 Basic Constraints: 
                CA:FALSE
            Netscape Comment: 
                OpenSSL Generated Certificate
            X509v3 Subject Key Identifier: 
                ED:10:25:44:9A:08:70:86:18:12:1D:A4:AA:D5:6F:F9:90:3B:79:8E
            X509v3 Authority Key Identifier: 
                keyid:9E:8B:82:0D:E5:97:34:40:F4:CB:7E:5A:0C:3B:CA:91:FD:5A:31:73

            X509v3 CRL Distribution Points: 

                Full Name:
                  URI:http://cn-ucsb-1.dataone.org/crl/DataONETest_CRL.pem

                Full Name:
                  URI:http://cn-unm-1.dataone.org/crl/DataONETest_CRL.pem

                Full Name:
                  URI:http://cn-orc-1.dataone.org/crl/DataONETest_CRL.pem

    Signature Algorithm: sha1WithRSAEncryption
        2f:ea:b1:e5:76:5c:52:0f:a3:40:ee:74:d8:f7:e6:45:59:a7:
        e4:da:36:a9:e6:9e:fc:9f:fe:59:74:d2:0a:6f:7e:65:42:dc:
        2f:96:cd:eb:51:ba:70:e5:31:92:11:d1:b2:08:0b:76:a6:de:
        0d:bf:71:30:3f:c9:36:5d:dc:b0:48:59:e4:27:75:a4:46:06:
        12:7d:f2:20:3b:3e:e3:54:d9:85:88:ca:c8:23:db:22:53:f9:
        0a:ac:f0:1f:d7:66:8d:c6:b5:7a:82:f3:8d:b6:b7:20:61:db:
        6f:0c:55:b4:9b:e0:e8:fe:4a:bf:82:a5:e2:1f:14:d7:90:d9:
        bc:c5:4f:20:dd:56:7a:ba:21:a1:cd:7a:b0:d4:5b:d2:11:6e:
        95:99:c5:68:b6:7a:b8:16:c1:00:96:a2:63:25:2a:af:03:64:
        8b:c5:89:7a:eb:6f:24:34:e1:f5:ca:77:d0:d4:0c:f3:1c:69:
        36:7b:80:57:4f:38:38:ad:85:62:0c:b0:f6:68:32:a6:7c:9f:
        f7:e8:36:ed:8c:cb:8f:98:72:35:95:20:d0:84:3c:d3:8a:86:
        c6:8f:1a:e0:d1:34:c5:d6:23:ec:36:e0:24:a6:18:81:6c:26:
        97:82:d6:ff:af:bb:83:68:77:84:ea:87:75:83:71:ec:62:74:
        6e:bc:99:1f:bf:e4:95:e1:24:d6:ac:f5:80:39:55:ee:2f:94:
        f5:b7:9c:9e:a1:61:2b:c1:60:57:91:59:e8:65:78:d6:5c:c1:
        b6:34:c5:fb:a0:38:52:7f:f1:67:23:6d:f6:b2:33:c7:be:43:
        a0:10:bf:48:42:2c:15:19:d3:50:e7:07:73:7c:90:0d:af:1e:
        a1:1d:48:a8:5f:f7:17:70:df:30:ae:c4:96:ce:f8:93:ce:87:
        85:dc:f2:6a:d7:3b:2f:2f:d8:2f:56:c1:25:52:f4:60:9e:a8:
        26:c8:ec:60:27:9f:4d:4e:b8:74:57:49:13:7b:70:79:4c:44:
        d8:f6:ef:8d:a4:3b:bd:ff:4e:fe:07:c6:a3:c5:2a:41:d2:ac:
        81:df:18:44:23:5e:59:5e:7c:24:ca:66:29:db:37:62:c2:96:
        18:44:a4:09:ab:1e:4e:df:3f:a7:0c:c9:ae:3c:b8:20:6a:00:
        e1:9c:d8:05:79:3a:f8:99:fd:30:71:90:4f:60:b6:7f:4d:4e:
        51:df:e3:2b:9a:de:25:4e:ac:b0:75:db:6c:d7:1b:f3:f3:05:
        ae:b5:9e:c6:42:c9:f6:16:62:18:39:ec:0f:54:69:f4:30:bb:
        d7:63:6c:95:83:b8:63:9f:96:f7:23:eb:45:8a:db:07:40:ba:
        cb:72:7e:09:fc:d2:eb:38
-----BEGIN CERTIFICATE-----
MIIFUzCCAzugAwIBAgIJANoyY6KhLQAiMA0GCSqGSIb3DQEBBQUAMEgxEzARBgoJ
kiaJk/IsZAEZFgNvcmcxFzAVBgoJkiaJk/IsZAEZFgdkYXRhb25lMRgwFgYDVQQD
DA9EYXRhT05FIFRlc3QgQ0EwHhcNMTIwNDExMDAxMzMwWhcNMTUwNDExMDAxMzMw
WjBJMRMwEQYKCZImiZPyLGQBGRYDb3JnMRcwFQYKCZImiZPyLGQBGRYHZGF0YW9u
ZTEZMBcGA1UEAwwQdXJuOm5vZGU6RDFVU0dTNDCCASIwDQYJKoZIhvcNAQEBBQAD
ggEPADCCAQoCggEBAModk7D3J5XssfzGtUm4AOdi8RiabefFksTqeQ0c/MTmgzA0
8Mm6Tts+CwuaP9+Hs30SZSnLQHm6okuhsDRvLCBK3+jjK4q3Z/RFCIBN2mYdnzIZ
YMZ34Ug9O4RNXSS3xrd7icJ02KdTwNslC2wk1k8MlcOtYpzk0LnSnysYH5NOEB1Y
t1T95Ws85ImvBVvNsCkC6t4iMawEKxqAQ826EVlvVDJtHuTsTNNkEqip4IUMgHNp
AaNfkeOqQElWuh5hMUCQLgZb+zQggT8SbMf9+kl0hdaBkafkS93FG/ikHwH3nvoj
vKGyxxt2vErNDo7DAa3kiGYnyOiyYznrWpd1lTkCAwEAAaOCAT0wggE5MAkGA1Ud
EwQCMAAwLAYJYIZIAYb4QgENBB8WHU9wZW5TU0wgR2VuZXJhdGVkIENlcnRpZmlj
YXRlMB0GA1UdDgQWBBTtECVEmghwhhgSHaSq1W/5kDt5jjAfBgNVHSMEGDAWgBSe
i4IN5Zc0QPTLfloMO8qR/VoxczCBvQYDVR0fBIG1MIGyMDqgOKA2hjRodHRwOi8v
Y24tdWNzYi0xLmRhdGFvbmUub3JnL2NybC9EYXRhT05FVGVzdF9DUkwucGVtMDmg
N6A1hjNodHRwOi8vY24tdW5tLTEuZGF0YW9uZS5vcmcvY3JsL0RhdGFPTkVUZXN0
X0NSTC5wZW0wOaA3oDWGM2h0dHA6Ly9jbi1vcmMtMS5kYXRhb25lLm9yZy9jcmwv
RGF0YU9ORVRlc3RfQ1JMLnBlbTANBgkqhkiG9w0BAQUFAAOCAgEAL+qx5XZcUg+j
QO502PfmRVmn5No2qeae/J/+WXTSCm9+ZULcL5bN61G6cOUxkhHRsggLdqbeDb9x
MD/JNl3csEhZ5Cd1pEYGEn3yIDs+41TZhYjKyCPbIlP5CqzwH9dmjca1eoLzjba3
IGHbbwxVtJvg6P5Kv4Kl4h8U15DZvMVPIN1Werohoc16sNRb0hFulZnFaLZ6uBbB
AJaiYyUqrwNki8WJeutvJDTh9cp30NQM8xxpNnuAV084OK2FYgyw9mgypnyf9+g2
7YzLj5hyNZUg0IQ804qGxo8a4NE0xdYj7DbgJKYYgWwml4LW/6+7g2h3hOqHdYNx
7GJ0bryZH7/kleEk1qz1gDlV7i+U9becnqFhK8FgV5FZ6GV41lzBtjTF+6A4Un/x
ZyNt9rIzx75DoBC/SEIsFRnTUOcHc3yQDa8eoR1IqF/3F3DfMK7Els74k86Hhdzy
atc7Ly/YL1bBJVL0YJ6oJsjsYCefTU64dFdJE3tweUxE2PbvjaQ7vf9O/gfGo8Uq
QdKsgd8YRCNeWV58JMpmKds3YsKWGESkCaseTt8/pwzJrjy4IGoA4ZzYBXk6+Jn9
MHGQT2C2f01OUd/jK5reJU6ssHXbbNcb8/MFrrWexkLJ9hZiGDnsD1Rp9DC712Ns
lYO4Y5+W9yPrRYrbB0C6y3J+CfzS6zg=
-----END CERTIFICATE-----
