Certificate:
    Data:
        Version: 3 (0x2)
        Serial Number:
            da:32:63:a2:a1:2d:00:0b
        Signature Algorithm: sha1WithRSAEncryption
        Issuer: dc=org/dc=dataone, CN=DataONE Test CA
        Validity
            Not Before: Mar 10 01:21:10 2012 GMT
            Not After : Mar 10 01:21:10 2015 GMT
        Subject: dc=org/dc=dataone, CN=urn:node:mnStageUCSB2
        Subject Public Key Info:
            Public Key Algorithm: rsaEncryption
                Public-Key: (2048 bit)
                Modulus:
                    00:cc:da:04:46:38:cc:a8:56:ba:c1:c5:2c:6f:4c:
                    ce:09:3a:a6:d4:a1:0d:ab:6b:b5:24:96:4a:30:59:
                    eb:b9:9d:f8:4d:20:65:65:72:52:1c:ad:11:20:95:
                    5c:55:c1:12:8c:ce:eb:44:af:5b:3b:e6:a4:4d:1c:
                    be:c8:ec:75:3e:c8:a5:51:a1:3d:56:69:ef:dd:d4:
                    0a:de:8a:7a:bf:44:e4:e0:5d:24:b7:89:6c:57:b9:
                    4b:7a:f0:d7:36:48:9d:aa:74:f3:4e:50:d9:ff:6e:
                    4e:60:40:ae:4b:10:f7:54:fa:0e:de:ba:ca:7b:dc:
                    b4:d2:c9:0b:10:29:0f:6c:a5:de:39:59:ac:9b:e5:
                    3c:c1:a8:53:3c:01:91:1c:56:7b:32:89:0d:32:df:
                    0f:40:9f:c8:85:5c:16:55:aa:6e:21:7e:c1:6b:d6:
                    a2:e0:8d:60:64:34:99:36:b9:51:d5:94:9f:45:2b:
                    53:8e:06:b3:4e:7e:46:a1:7a:ee:89:d6:99:78:d1:
                    62:7d:3a:73:bf:cc:5e:2e:13:95:26:78:ca:59:2d:
                    c8:d4:5d:56:c9:c6:d6:fd:52:91:45:78:89:41:bd:
                    65:0a:60:d0:37:79:a6:b7:e2:07:3f:6e:70:0c:c4:
                    1a:e1:88:85:63:20:27:4e:3c:eb:dc:cd:e3:99:e1:
                    f6:c5
                Exponent: 65537 (0x10001)
        X509v3 extensions:
            X509v3 Basic Constraints: 
                CA:FALSE
            Netscape Comment: 
                OpenSSL Generated Certificate
            X509v3 Subject Key Identifier: 
                F4:09:CA:49:F9:1E:D8:6A:4E:33:53:60:36:40:FA:AF:C7:1E:D1:6F
            X509v3 Authority Key Identifier: 
                keyid:9E:8B:82:0D:E5:97:34:40:F4:CB:7E:5A:0C:3B:CA:91:FD:5A:31:73

            X509v3 CRL Distribution Points: 

                Full Name:
                  URI:http://cn-ucsb-1.dataone.org/crl/DataONETest_CRL.pem

                Full Name:
                  URI:http://cn-unm-1.dataone.org/crl/DataONETest_CRL.pem

                Full Name:
                  URI:http://cn-orc-1.dataone.org/crl/DataONETest_CRL.pem

    Signature Algorithm: sha1WithRSAEncryption
        01:35:cc:bb:9e:5f:21:16:d4:86:b9:c1:e4:4b:3e:3d:cf:6f:
        35:9d:a7:ac:00:1d:b6:50:89:e7:b4:dc:c7:9e:02:90:d6:2e:
        23:22:a7:3a:ee:2a:33:10:67:c7:2c:23:98:cc:56:db:5c:05:
        aa:74:41:01:da:61:1b:f4:da:e3:c0:bb:3a:40:21:c5:b0:1f:
        ae:c5:ba:2c:76:99:6b:0d:11:be:0f:ea:08:14:0d:2a:1d:98:
        02:fd:5b:3e:79:b0:ed:2c:b5:87:0c:a7:8f:89:ff:c8:c7:ee:
        31:73:07:ee:12:80:f4:a9:58:b3:0d:66:97:fe:8b:26:e0:2e:
        4a:e6:17:1c:46:92:d1:d7:cc:aa:00:ac:bb:0f:f1:40:c1:fa:
        2c:67:84:ff:24:a3:99:2d:54:9b:c2:14:92:ea:b3:3d:89:00:
        5c:91:89:04:94:dc:09:91:59:cb:92:f5:c9:72:c3:df:5d:5f:
        d8:08:6a:8b:ef:18:ed:95:8c:f1:48:92:0b:bb:20:fc:4f:c1:
        c5:66:2a:85:30:ff:d2:4b:80:82:8a:c9:c0:d9:01:6f:f7:bc:
        ea:fc:aa:4e:66:15:cd:f3:57:22:0f:62:74:92:2b:a8:9a:e5:
        23:01:83:43:1f:25:e8:99:22:99:28:a5:9b:32:bd:31:d5:64:
        ca:bb:1f:92:2a:ee:ac:b8:84:56:63:ab:ce:d2:43:98:ca:87:
        f0:be:d7:da:f9:cb:d6:c3:3d:d9:d9:5c:d0:20:f2:d8:63:a6:
        e0:ed:42:63:de:e8:1f:76:5e:74:90:a8:65:46:fb:79:65:64:
        21:dd:46:d6:c7:d7:12:67:7a:01:03:52:11:84:df:55:6f:aa:
        8f:0f:a8:94:3d:c0:16:83:f4:73:e5:10:85:5f:1a:a6:4e:34:
        71:9f:70:50:69:2d:6f:c9:e1:b5:54:74:0f:fc:cb:d1:1a:3c:
        77:06:19:13:fe:57:99:a6:fc:1a:b2:15:59:10:a9:e1:e0:93:
        c8:98:5e:8f:cb:04:c1:89:3b:db:fd:65:e7:ba:3c:0a:4b:06:
        50:ab:78:e0:bc:ea:4d:6f:3a:1d:e5:9d:05:f0:e7:8d:a2:31:
        cc:f1:13:ad:8e:f3:56:21:18:c6:d4:56:a0:50:5b:b8:ed:66:
        bb:7a:a5:fd:9c:e8:7c:56:ec:e3:00:55:40:da:eb:3a:ee:c7:
        a0:e9:cd:67:03:0d:af:f8:e9:d5:88:08:7c:b7:92:80:a9:41:
        63:61:9c:ad:b3:c0:b0:27:9b:7a:e7:73:2c:56:51:30:11:d0:
        d9:9f:ef:ab:fc:fa:52:d3:23:fb:43:45:e9:92:f6:fb:f8:bf:
        4c:da:bc:8e:f8:50:e2:60
-----BEGIN CERTIFICATE-----
MIIFWDCCA0CgAwIBAgIJANoyY6KhLQALMA0GCSqGSIb3DQEBBQUAMEgxEzARBgoJ
kiaJk/IsZAEZFgNvcmcxFzAVBgoJkiaJk/IsZAEZFgdkYXRhb25lMRgwFgYDVQQD
DA9EYXRhT05FIFRlc3QgQ0EwHhcNMTIwMzEwMDEyMTEwWhcNMTUwMzEwMDEyMTEw
WjBOMRMwEQYKCZImiZPyLGQBGRYDb3JnMRcwFQYKCZImiZPyLGQBGRYHZGF0YW9u
ZTEeMBwGA1UEAwwVdXJuOm5vZGU6bW5TdGFnZVVDU0IyMIIBIjANBgkqhkiG9w0B
AQEFAAOCAQ8AMIIBCgKCAQEAzNoERjjMqFa6wcUsb0zOCTqm1KENq2u1JJZKMFnr
uZ34TSBlZXJSHK0RIJVcVcESjM7rRK9bO+akTRy+yOx1PsilUaE9Vmnv3dQK3op6
v0Tk4F0kt4lsV7lLevDXNkidqnTzTlDZ/25OYECuSxD3VPoO3rrKe9y00skLECkP
bKXeOVmsm+U8wahTPAGRHFZ7MokNMt8PQJ/IhVwWVapuIX7Ba9ai4I1gZDSZNrlR
1ZSfRStTjgazTn5GoXruidaZeNFifTpzv8xeLhOVJnjKWS3I1F1WycbW/VKRRXiJ
Qb1lCmDQN3mmt+IHP25wDMQa4YiFYyAnTjzr3M3jmeH2xQIDAQABo4IBPTCCATkw
CQYDVR0TBAIwADAsBglghkgBhvhCAQ0EHxYdT3BlblNTTCBHZW5lcmF0ZWQgQ2Vy
dGlmaWNhdGUwHQYDVR0OBBYEFPQJykn5HthqTjNTYDZA+q/HHtFvMB8GA1UdIwQY
MBaAFJ6Lgg3llzRA9Mt+Wgw7ypH9WjFzMIG9BgNVHR8EgbUwgbIwOqA4oDaGNGh0
dHA6Ly9jbi11Y3NiLTEuZGF0YW9uZS5vcmcvY3JsL0RhdGFPTkVUZXN0X0NSTC5w
ZW0wOaA3oDWGM2h0dHA6Ly9jbi11bm0tMS5kYXRhb25lLm9yZy9jcmwvRGF0YU9O
RVRlc3RfQ1JMLnBlbTA5oDegNYYzaHR0cDovL2NuLW9yYy0xLmRhdGFvbmUub3Jn
L2NybC9EYXRhT05FVGVzdF9DUkwucGVtMA0GCSqGSIb3DQEBBQUAA4ICAQABNcy7
nl8hFtSGucHkSz49z281naesAB22UInntNzHngKQ1i4jIqc67iozEGfHLCOYzFbb
XAWqdEEB2mEb9NrjwLs6QCHFsB+uxbosdplrDRG+D+oIFA0qHZgC/Vs+ebDtLLWH
DKePif/Ix+4xcwfuEoD0qVizDWaX/osm4C5K5hccRpLR18yqAKy7D/FAwfosZ4T/
JKOZLVSbwhSS6rM9iQBckYkElNwJkVnLkvXJcsPfXV/YCGqL7xjtlYzxSJILuyD8
T8HFZiqFMP/SS4CCisnA2QFv97zq/KpOZhXN81ciD2J0kiuomuUjAYNDHyXomSKZ
KKWbMr0x1WTKux+SKu6suIRWY6vO0kOYyofwvtfa+cvWwz3Z2VzQIPLYY6bg7UJj
3ugfdl50kKhlRvt5ZWQh3UbWx9cSZ3oBA1IRhN9Vb6qPD6iUPcAWg/Rz5RCFXxqm
TjRxn3BQaS1vyeG1VHQP/MvRGjx3BhkT/leZpvwashVZEKnh4JPImF6PywTBiTvb
/WXnujwKSwZQq3jgvOpNbzod5Z0F8OeNojHM8ROtjvNWIRjG1FagUFu47Wa7eqX9
nOh8VuzjAFVA2us67seg6c1nAw2v+OnViAh8t5KAqUFjYZyts8CwJ5t653MsVlEw
EdDZn++r/PpS0yP7Q0Xpkvb7+L9M2ryO+FDiYA==
-----END CERTIFICATE-----
