Certificate:
    Data:
        Version: 3 (0x2)
        Serial Number:
            da:32:63:a2:a1:2d:00:01
        Signature Algorithm: sha1WithRSAEncryption
        Issuer: dc=org/dc=dataone, CN=DataONE Test CA
        Validity
            Not Before: Mar  8 07:15:48 2012 GMT
            Not After : Mar  8 07:15:48 2015 GMT
        Subject: dc=org/dc=dataone, CN=urn:node:MBJTEST
        Subject Public Key Info:
            Public Key Algorithm: rsaEncryption
                Public-Key: (2048 bit)
                Modulus:
                    00:e5:69:9a:b1:c3:96:09:be:01:3c:67:76:7e:4e:
                    0e:f3:d3:8b:22:24:86:79:cc:18:26:ab:0d:f8:ca:
                    85:5d:3d:08:21:85:7c:b6:76:0d:98:d1:ba:67:e3:
                    d4:96:9a:0f:7e:6e:38:5c:b1:1c:eb:af:08:6e:b6:
                    4d:05:a0:2c:89:bb:c3:36:2b:e3:ae:eb:0e:38:93:
                    41:5a:4b:9f:8c:ea:de:21:2f:bb:bf:72:73:13:b2:
                    c7:11:9f:8c:4e:c3:87:e6:44:02:9c:8f:43:65:78:
                    fe:f6:5e:15:bd:87:58:15:2a:e7:c1:6c:05:a5:6c:
                    55:fe:c1:1e:8c:18:71:7b:86:37:91:ec:86:90:9b:
                    25:18:65:27:be:5b:bc:f5:50:c7:80:e2:9d:b8:4e:
                    3b:b3:bc:a9:28:5d:ae:a6:f1:9e:1f:0d:ef:3b:30:
                    00:db:33:24:a2:d5:ce:10:6d:8c:47:28:23:c7:f2:
                    26:d8:91:95:53:52:45:af:92:c9:69:9b:8c:97:07:
                    c7:64:ad:91:29:60:20:36:6f:c3:8e:f0:6b:ff:75:
                    7a:0f:d7:b2:fb:56:4c:f2:92:8d:47:74:a5:c3:15:
                    86:c4:29:da:d5:5e:fa:8d:60:f7:dd:f7:63:c8:ec:
                    3a:e5:d5:40:db:51:85:14:18:9c:80:c0:67:44:b4:
                    8d:7b
                Exponent: 65537 (0x10001)
        X509v3 extensions:
            X509v3 Basic Constraints: 
                CA:FALSE
            Netscape Comment: 
                OpenSSL Generated Certificate
            X509v3 Subject Key Identifier: 
                C3:B3:1C:47:E1:3C:90:48:E5:B1:CD:06:C3:AE:6D:E4:BD:42:83:64
            X509v3 Authority Key Identifier: 
                keyid:9E:8B:82:0D:E5:97:34:40:F4:CB:7E:5A:0C:3B:CA:91:FD:5A:31:73

            X509v3 CRL Distribution Points: 

                Full Name:
                  URI:http://cn-ucsb-1.dataone.org/crl/DataONETest_CRL.pem

                Full Name:
                  URI:http://cn-unm-1.dataone.org/crl/DataONETest_CRL.pem

                Full Name:
                  URI:http://cn-orc-1.dataone.org/crl/DataONETest_CRL.pem

    Signature Algorithm: sha1WithRSAEncryption
        10:22:51:93:d3:bc:17:b5:00:1e:1e:8d:e3:15:fb:27:b9:e2:
        dc:2f:33:45:c6:db:34:7d:12:7d:0b:ad:7b:d5:70:d4:7b:33:
        c4:6b:49:5e:d4:ce:d3:b8:28:35:88:05:a2:e1:0b:87:8d:95:
        da:81:87:c9:81:ea:13:19:a8:a7:4b:d0:13:37:f9:b6:f9:a6:
        25:aa:4c:0b:43:33:82:15:5a:ca:18:14:f8:da:2f:f7:37:d0:
        f7:40:44:42:ae:a3:da:d6:86:04:ca:f7:1f:c0:75:e4:9a:11:
        58:29:ab:bd:6a:8b:b4:8d:6d:38:44:c8:41:94:da:03:78:d0:
        09:98:e7:85:3d:cd:a8:a9:bc:da:f9:e5:9e:d1:ee:b3:4e:b4:
        05:d0:47:d0:21:cf:f3:f8:fa:19:db:7f:93:93:71:c7:cc:5d:
        d4:3b:2e:9e:e6:0f:dc:bc:96:d9:02:1c:48:32:16:33:42:68:
        60:7b:7b:dd:9a:31:e9:d8:d3:cb:80:71:88:4e:93:fe:ca:6c:
        d6:9c:07:35:cb:47:bc:96:d7:e1:47:1c:5c:23:a5:50:a7:e0:
        b8:fd:ac:35:09:e1:da:25:1f:19:61:38:66:97:2f:56:da:ec:
        c8:61:2c:42:cd:28:de:4d:a4:c4:56:a7:72:af:6f:f2:a6:a9:
        da:72:35:52:da:d1:ab:f0:6d:c5:39:1f:02:df:6d:d9:0d:56:
        37:bf:3e:da:a3:78:1f:53:7e:77:ca:89:b6:c2:ec:ee:8a:86:
        7c:e2:84:95:b9:66:18:8e:ad:7c:cd:6e:43:1c:f1:2b:c3:73:
        47:89:a8:85:da:db:db:3a:77:e4:ed:a5:6a:74:28:d9:e6:b6:
        64:2c:2b:58:33:b7:86:cf:a0:07:d3:2b:da:f3:76:af:91:38:
        b8:32:7b:fd:80:e8:5d:72:55:e2:70:0e:ce:cd:0b:cf:52:50:
        b3:c5:89:80:88:ad:39:f6:2c:8e:01:ec:e3:2a:73:77:0e:0f:
        04:ad:4c:8a:8b:3b:b4:52:d2:21:d1:9b:59:10:40:43:1e:57:
        9f:75:22:19:5d:23:a5:a4:0a:6b:62:96:86:50:3b:b2:2a:f4:
        4b:5b:b2:ba:8b:2d:27:6e:29:de:63:d4:f7:1f:a8:ad:1a:e4:
        2b:44:08:40:26:ad:aa:18:ad:bf:cd:af:b6:26:d7:d4:af:33:
        f8:d9:5c:c3:54:77:01:11:37:00:7d:86:70:e6:6f:42:9d:f8:
        41:02:4f:cc:a4:92:23:38:cc:c4:33:4a:68:2f:52:c5:56:2e:
        01:81:fc:ce:29:c1:fa:7f:93:3d:de:96:a2:37:64:dc:52:4b:
        80:3f:55:ba:f5:d7:f1:79
-----BEGIN CERTIFICATE-----
MIIFUzCCAzugAwIBAgIJANoyY6KhLQABMA0GCSqGSIb3DQEBBQUAMEgxEzARBgoJ
kiaJk/IsZAEZFgNvcmcxFzAVBgoJkiaJk/IsZAEZFgdkYXRhb25lMRgwFgYDVQQD
DA9EYXRhT05FIFRlc3QgQ0EwHhcNMTIwMzA4MDcxNTQ4WhcNMTUwMzA4MDcxNTQ4
WjBJMRMwEQYKCZImiZPyLGQBGRYDb3JnMRcwFQYKCZImiZPyLGQBGRYHZGF0YW9u
ZTEZMBcGA1UEAwwQdXJuOm5vZGU6TUJKVEVTVDCCASIwDQYJKoZIhvcNAQEBBQAD
ggEPADCCAQoCggEBAOVpmrHDlgm+ATxndn5ODvPTiyIkhnnMGCarDfjKhV09CCGF
fLZ2DZjRumfj1JaaD35uOFyxHOuvCG62TQWgLIm7wzYr467rDjiTQVpLn4zq3iEv
u79ycxOyxxGfjE7Dh+ZEApyPQ2V4/vZeFb2HWBUq58FsBaVsVf7BHowYcXuGN5Hs
hpCbJRhlJ75bvPVQx4DinbhOO7O8qShdrqbxnh8N7zswANszJKLVzhBtjEcoI8fy
JtiRlVNSRa+SyWmbjJcHx2StkSlgIDZvw47wa/91eg/XsvtWTPKSjUd0pcMVhsQp
2tVe+o1g9933Y8jsOuXVQNtRhRQYnIDAZ0S0jXsCAwEAAaOCAT0wggE5MAkGA1Ud
EwQCMAAwLAYJYIZIAYb4QgENBB8WHU9wZW5TU0wgR2VuZXJhdGVkIENlcnRpZmlj
YXRlMB0GA1UdDgQWBBTDsxxH4TyQSOWxzQbDrm3kvUKDZDAfBgNVHSMEGDAWgBSe
i4IN5Zc0QPTLfloMO8qR/VoxczCBvQYDVR0fBIG1MIGyMDqgOKA2hjRodHRwOi8v
Y24tdWNzYi0xLmRhdGFvbmUub3JnL2NybC9EYXRhT05FVGVzdF9DUkwucGVtMDmg
N6A1hjNodHRwOi8vY24tdW5tLTEuZGF0YW9uZS5vcmcvY3JsL0RhdGFPTkVUZXN0
X0NSTC5wZW0wOaA3oDWGM2h0dHA6Ly9jbi1vcmMtMS5kYXRhb25lLm9yZy9jcmwv
RGF0YU9ORVRlc3RfQ1JMLnBlbTANBgkqhkiG9w0BAQUFAAOCAgEAECJRk9O8F7UA
Hh6N4xX7J7ni3C8zRcbbNH0SfQute9Vw1HszxGtJXtTO07goNYgFouELh42V2oGH
yYHqExmop0vQEzf5tvmmJapMC0MzghVayhgU+Nov9zfQ90BEQq6j2taGBMr3H8B1
5JoRWCmrvWqLtI1tOETIQZTaA3jQCZjnhT3NqKm82vnlntHus060BdBH0CHP8/j6
Gdt/k5Nxx8xd1DsunuYP3LyW2QIcSDIWM0JoYHt73Zox6djTy4BxiE6T/sps1pwH
NctHvJbX4UccXCOlUKfguP2sNQnh2iUfGWE4ZpcvVtrsyGEsQs0o3k2kxFancq9v
8qap2nI1UtrRq/BtxTkfAt9t2Q1WN78+2qN4H1N+d8qJtsLs7oqGfOKElblmGI6t
fM1uQxzxK8NzR4mohdrb2zp35O2lanQo2ea2ZCwrWDO3hs+gB9Mr2vN2r5E4uDJ7
/YDoXXJV4nAOzs0Lz1JQs8WJgIitOfYsjgHs4ypzdw4PBK1Mios7tFLSIdGbWRBA
Qx5Xn3UiGV0jpaQKa2KWhlA7sir0S1uyuostJ24p3mPU9x+orRrkK0QIQCatqhit
v82vtibX1K8z+Nlcw1R3ARE3AH2GcOZvQp34QQJPzKSSIzjMxDNKaC9SxVYuAYH8
zinB+n+TPd6Wojdk3FJLgD9VuvXX8Xk=
-----END CERTIFICATE-----
