Certificate:
    Data:
        Version: 3 (0x2)
        Serial Number:
            da:32:63:a2:a1:2d:00:24
        Signature Algorithm: sha1WithRSAEncryption
        Issuer: dc=org/dc=dataone, CN=DataONE Test CA
        Validity
            Not Before: Apr 11 00:13:49 2012 GMT
            Not After : Apr 11 00:13:49 2015 GMT
        Subject: dc=org/dc=dataone, CN=urn:node:D1USGS6
        Subject Public Key Info:
            Public Key Algorithm: rsaEncryption
                Public-Key: (2048 bit)
                Modulus:
                    00:9e:61:69:4c:bd:7f:3b:93:2d:b6:83:23:96:5c:
                    8a:3c:f9:05:38:ff:b8:a1:4d:13:9b:0b:a4:a9:54:
                    d9:2f:32:e6:28:78:00:00:bb:c7:82:89:b1:31:4b:
                    6d:34:c3:44:bd:7e:90:bf:54:78:2b:f8:9c:e0:8f:
                    0e:56:e5:92:0d:c8:14:fe:6f:ff:b6:13:2e:98:92:
                    cc:7d:ca:1b:ae:6a:12:d8:27:a2:dc:2c:2f:5c:bd:
                    4d:1e:8c:b6:af:c1:a8:e6:4d:c3:5a:9c:6b:b6:6f:
                    54:eb:9e:e9:ad:23:5c:2f:95:b9:ed:91:40:a3:f8:
                    00:31:c4:f5:92:8f:be:b4:20:5f:13:d0:b0:7a:fd:
                    73:a7:4d:35:22:6b:49:7f:a4:f9:f6:e4:55:4c:2b:
                    d6:98:2a:86:ed:a3:c5:74:1d:fc:c9:fe:f7:d3:ad:
                    9d:1c:29:43:c0:a5:97:86:da:83:df:de:86:10:b8:
                    ac:0d:9e:78:87:2f:db:1a:3e:a4:47:5a:0b:5c:18:
                    ce:29:ff:75:55:89:48:98:e3:50:df:65:02:45:01:
                    9b:12:d5:a2:22:40:b4:13:9c:d0:78:58:b3:36:ab:
                    e0:10:8b:2d:14:da:bb:d5:97:4a:ec:c4:f2:86:11:
                    a1:ca:a2:5a:ee:ac:e1:b5:78:51:40:ab:3e:2a:73:
                    82:51
                Exponent: 65537 (0x10001)
        X509v3 extensions:
            X509v3 Basic Constraints: 
                CA:FALSE
            Netscape Comment: 
                OpenSSL Generated Certificate
            X509v3 Subject Key Identifier: 
                41:95:D6:CC:50:78:DB:B9:B8:0F:2B:60:58:B0:D2:FD:A1:93:2C:51
            X509v3 Authority Key Identifier: 
                keyid:9E:8B:82:0D:E5:97:34:40:F4:CB:7E:5A:0C:3B:CA:91:FD:5A:31:73

            X509v3 CRL Distribution Points: 

                Full Name:
                  URI:http://cn-ucsb-1.dataone.org/crl/DataONETest_CRL.pem

                Full Name:
                  URI:http://cn-unm-1.dataone.org/crl/DataONETest_CRL.pem

                Full Name:
                  URI:http://cn-orc-1.dataone.org/crl/DataONETest_CRL.pem

    Signature Algorithm: sha1WithRSAEncryption
        17:78:9c:55:25:00:dd:0d:6e:ab:fc:2f:7f:2f:37:50:e0:49:
        5c:58:11:17:b4:22:f3:8a:f4:fd:9c:86:e2:02:03:d0:c1:51:
        53:6a:95:7a:2b:de:68:3c:76:17:0a:c5:b8:c6:6a:67:89:74:
        66:48:16:41:62:8c:55:27:f8:5c:37:45:16:4d:38:9a:f3:0a:
        0f:d9:9f:fb:29:7d:9d:7f:01:76:c8:53:fc:7c:74:46:5d:fb:
        0e:a9:53:c2:05:fd:2b:e9:9f:64:f8:dd:dc:a6:92:b8:03:89:
        11:46:db:fd:89:c0:0f:f3:a4:68:57:b1:9a:f6:05:4a:fb:fd:
        a0:9f:56:24:6f:31:21:de:85:18:93:9e:59:52:04:84:ae:b2:
        21:f9:fb:02:58:3a:fe:ad:56:f8:75:d7:bd:91:98:53:3c:3a:
        e2:af:a0:39:a3:d3:75:af:35:de:f9:f6:fb:73:21:13:29:1c:
        d3:36:53:41:3f:9d:5b:67:eb:56:5b:86:79:45:5c:89:84:16:
        35:77:44:d9:ad:5a:6a:07:f0:c3:d2:68:20:07:53:0d:d7:18:
        2d:b6:c6:af:0a:10:44:ee:c9:ab:69:52:bf:55:75:c3:b5:a8:
        c5:be:b7:30:a1:5d:76:14:0b:a9:e9:46:1d:15:25:0c:9c:8d:
        10:4c:83:7b:8d:2a:8d:b7:18:7d:5f:86:25:dc:a3:d7:e9:ca:
        46:37:28:26:f8:cc:cf:2a:43:1a:98:df:5f:cf:c1:58:9b:0d:
        b4:44:b0:3b:14:19:b0:42:fd:94:10:1b:96:eb:af:1a:00:5d:
        7e:71:2d:e7:22:e0:42:74:bb:bf:03:42:e8:c3:c6:f1:54:82:
        29:50:27:d2:24:81:46:dd:1d:ec:9e:ad:9b:2d:6c:4a:68:b4:
        b3:2f:05:bc:d6:a9:ba:18:dd:18:6f:8f:a4:2a:46:31:ae:33:
        37:0f:fe:90:51:4b:b6:44:e0:35:52:68:af:89:d6:f8:df:b8:
        7f:28:23:27:ed:2a:54:2b:11:a7:b6:a6:a3:f4:b1:5a:d4:7f:
        7d:a9:ba:d3:61:b3:41:ce:0f:59:40:64:58:48:41:69:d3:47:
        9d:86:81:aa:55:a8:f3:c7:70:e0:d4:3b:44:05:d3:14:c0:83:
        9f:60:75:3a:32:ee:7c:60:ac:f2:2e:b5:6c:fa:7c:11:07:c0:
        0e:89:c5:13:98:73:e9:6c:ee:8a:45:32:a0:e6:2c:80:07:cd:
        ae:bf:4b:e4:3a:c0:fe:50:e6:35:7b:d2:2c:ff:92:38:66:c7:
        df:95:00:41:68:4f:db:ae:b6:75:22:69:b5:df:fb:c7:34:80:
        23:7c:a5:df:37:9e:62:6e
-----BEGIN CERTIFICATE-----
MIIFUzCCAzugAwIBAgIJANoyY6KhLQAkMA0GCSqGSIb3DQEBBQUAMEgxEzARBgoJ
kiaJk/IsZAEZFgNvcmcxFzAVBgoJkiaJk/IsZAEZFgdkYXRhb25lMRgwFgYDVQQD
DA9EYXRhT05FIFRlc3QgQ0EwHhcNMTIwNDExMDAxMzQ5WhcNMTUwNDExMDAxMzQ5
WjBJMRMwEQYKCZImiZPyLGQBGRYDb3JnMRcwFQYKCZImiZPyLGQBGRYHZGF0YW9u
ZTEZMBcGA1UEAwwQdXJuOm5vZGU6RDFVU0dTNjCCASIwDQYJKoZIhvcNAQEBBQAD
ggEPADCCAQoCggEBAJ5haUy9fzuTLbaDI5Zcijz5BTj/uKFNE5sLpKlU2S8y5ih4
AAC7x4KJsTFLbTTDRL1+kL9UeCv4nOCPDlblkg3IFP5v/7YTLpiSzH3KG65qEtgn
otwsL1y9TR6Mtq/BqOZNw1qca7ZvVOue6a0jXC+Vue2RQKP4ADHE9ZKPvrQgXxPQ
sHr9c6dNNSJrSX+k+fbkVUwr1pgqhu2jxXQd/Mn+99OtnRwpQ8Cll4bag9/ehhC4
rA2eeIcv2xo+pEdaC1wYzin/dVWJSJjjUN9lAkUBmxLVoiJAtBOc0HhYszar4BCL
LRTau9WXSuzE8oYRocqiWu6s4bV4UUCrPipzglECAwEAAaOCAT0wggE5MAkGA1Ud
EwQCMAAwLAYJYIZIAYb4QgENBB8WHU9wZW5TU0wgR2VuZXJhdGVkIENlcnRpZmlj
YXRlMB0GA1UdDgQWBBRBldbMUHjbubgPK2BYsNL9oZMsUTAfBgNVHSMEGDAWgBSe
i4IN5Zc0QPTLfloMO8qR/VoxczCBvQYDVR0fBIG1MIGyMDqgOKA2hjRodHRwOi8v
Y24tdWNzYi0xLmRhdGFvbmUub3JnL2NybC9EYXRhT05FVGVzdF9DUkwucGVtMDmg
N6A1hjNodHRwOi8vY24tdW5tLTEuZGF0YW9uZS5vcmcvY3JsL0RhdGFPTkVUZXN0
X0NSTC5wZW0wOaA3oDWGM2h0dHA6Ly9jbi1vcmMtMS5kYXRhb25lLm9yZy9jcmwv
RGF0YU9ORVRlc3RfQ1JMLnBlbTANBgkqhkiG9w0BAQUFAAOCAgEAF3icVSUA3Q1u
q/wvfy83UOBJXFgRF7Qi84r0/ZyG4gID0MFRU2qVeiveaDx2FwrFuMZqZ4l0ZkgW
QWKMVSf4XDdFFk04mvMKD9mf+yl9nX8BdshT/Hx0Rl37DqlTwgX9K+mfZPjd3KaS
uAOJEUbb/YnAD/OkaFexmvYFSvv9oJ9WJG8xId6FGJOeWVIEhK6yIfn7Alg6/q1W
+HXXvZGYUzw64q+gOaPTda813vn2+3MhEykc0zZTQT+dW2frVluGeUVciYQWNXdE
2a1aagfww9JoIAdTDdcYLbbGrwoQRO7Jq2lSv1V1w7Woxb63MKFddhQLqelGHRUl
DJyNEEyDe40qjbcYfV+GJdyj1+nKRjcoJvjMzypDGpjfX8/BWJsNtESwOxQZsEL9
lBAbluuvGgBdfnEt5yLgQnS7vwNC6MPG8VSCKVAn0iSBRt0d7J6tmy1sSmi0sy8F
vNapuhjdGG+PpCpGMa4zNw/+kFFLtkTgNVJor4nW+N+4fygjJ+0qVCsRp7amo/Sx
WtR/fam602GzQc4PWUBkWEhBadNHnYaBqlWo88dw4NQ7RAXTFMCDn2B1OjLufGCs
8i61bPp8EQfADonFE5hz6WzuikUyoOYsgAfNrr9L5DrA/lDmNXvSLP+SOGbH35UA
QWhP2662dSJptd/7xzSAI3yl3zeeYm4=
-----END CERTIFICATE-----
