Certificate:
    Data:
        Version: 3 (0x2)
        Serial Number:
            ac:ee:8c:a3:21:4d:a1:95
        Signature Algorithm: sha1WithRSAEncryption
        Issuer: dc=org/dc=dataone, CN=DataONE Root CA
        Validity
            Not Before: Mar  7 08:23:49 2012 GMT
            Not After : Feb 12 08:23:49 2112 GMT
        Subject: dc=org/dc=dataone, CN=DataONE Root CA
        Subject Public Key Info:
            Public Key Algorithm: rsaEncryption
                Public-Key: (4096 bit)
                Modulus:
                    00:bc:93:80:2a:52:77:42:54:0a:5b:87:5b:16:0c:
                    e2:59:43:89:cf:49:5a:b7:3f:2d:12:b3:cc:01:d8:
                    19:a7:29:cf:e7:8f:fd:bb:12:d1:48:ec:0d:84:5e:
                    d1:82:0f:f8:43:2e:4e:4a:dd:6c:bb:6d:91:72:ae:
                    df:3a:ca:3e:64:85:5c:dc:ef:1c:c7:82:e6:25:06:
                    a2:8c:b1:39:eb:1c:1d:eb:54:58:14:21:0c:b3:05:
                    4f:36:04:b9:4e:b5:c6:47:d4:69:74:99:b7:7b:01:
                    f8:43:60:27:5f:9b:01:66:c8:c3:bd:14:62:e8:ce:
                    b0:f7:5a:c6:59:a0:bb:95:0a:45:cb:42:8e:71:44:
                    21:4e:9b:95:e4:93:f3:10:9f:e4:52:b4:43:84:38:
                    47:b2:c0:11:d9:d1:e9:62:04:57:8c:b8:85:20:2f:
                    fe:cd:35:40:69:bc:47:5c:f4:17:d0:d4:5e:bc:d9:
                    e7:76:b2:ff:2f:78:17:03:f0:45:b0:2f:20:08:15:
                    c2:72:c2:40:39:e4:27:1c:e8:46:74:c6:ae:93:10:
                    b8:72:06:3f:80:2a:42:a9:7f:06:76:f3:82:b0:2e:
                    b8:e6:0d:9c:98:87:83:19:45:38:17:f8:ec:e5:1c:
                    81:c7:51:bb:53:a6:98:74:73:7b:bd:01:45:24:20:
                    ed:33:f9:5b:e0:a5:9f:96:32:2d:cf:23:5c:9b:fc:
                    7d:71:ce:b4:3e:c1:f5:2e:ee:74:1e:0a:eb:7f:12:
                    e5:77:f8:d2:13:c3:f8:1c:b5:d8:bd:49:67:66:3c:
                    c8:3f:86:25:eb:00:fe:dc:f0:a8:77:75:d2:49:ee:
                    59:d6:1d:2d:33:a3:ff:af:e4:06:bb:1c:7d:08:26:
                    03:d3:81:49:41:bc:6f:c9:d5:c5:4b:26:e1:66:3c:
                    fc:0c:48:32:98:fa:35:ac:bd:6c:60:2f:8d:7d:82:
                    2a:fc:8b:1e:ef:66:f1:3c:ee:f1:4f:3d:fb:13:ac:
                    47:21:85:f7:b5:f8:15:8b:02:6d:8f:0c:25:8f:77:
                    81:b0:a8:c8:a6:6f:4d:4b:d9:23:a7:99:d0:66:34:
                    a1:54:ca:eb:39:cd:0f:95:7a:c9:5f:b9:e4:b9:be:
                    06:cb:ea:2b:eb:b8:a2:96:79:13:b5:c7:8e:43:a7:
                    95:3c:4b:d0:6f:21:e0:e9:da:26:87:bf:e2:dd:71:
                    71:e4:e1:7f:c2:81:9d:cc:37:ad:73:17:c8:4d:82:
                    20:68:fd:39:10:eb:41:6d:53:4d:cd:8d:ae:77:70:
                    8d:c7:60:47:49:32:1d:ec:e4:02:8c:8f:13:dd:73:
                    74:89:49:4e:4c:0a:20:51:f0:ab:2c:be:b2:e2:93:
                    71:fd:3f
                Exponent: 65537 (0x10001)
        X509v3 extensions:
            X509v3 Subject Key Identifier: 
                C9:2C:CA:0F:93:3F:5E:CE:6C:B1:E1:7A:2E:5F:7B:31:24:18:29:EE
            X509v3 Authority Key Identifier: 
                keyid:C9:2C:CA:0F:93:3F:5E:CE:6C:B1:E1:7A:2E:5F:7B:31:24:18:29:EE

            X509v3 Basic Constraints: 
                CA:TRUE
            X509v3 CRL Distribution Points: 

                Full Name:
                  URI:http://cn-ucsb-1.dataone.org/crl/DataONERootCA_CRL.pem

                Full Name:
                  URI:http://cn-unm-1.dataone.org/crl/DataONERootCA_CRL.pem

                Full Name:
                  URI:http://cn-orc-1.dataone.org/crl/DataONERootCA_CRL.pem

    Signature Algorithm: sha1WithRSAEncryption
        b2:34:a5:04:ab:4c:62:dc:53:26:1a:ca:7a:fb:83:2b:f1:a0:
        6e:57:63:30:f9:1c:92:e8:9b:0e:11:6b:0a:89:7b:4f:3f:77:
        78:6b:3c:ee:11:7b:a1:5c:a9:e8:c8:22:a2:40:8d:7d:c9:57:
        ee:d3:23:9f:2a:b6:9e:24:e2:bc:d8:36:5e:58:3d:5e:4a:76:
        42:59:15:47:f5:a1:bc:c4:09:12:f4:a6:7b:2b:3d:c5:89:6d:
        27:0b:68:b7:22:f1:c2:ee:ae:fa:7f:cf:4d:79:88:18:d1:e9:
        6a:9e:bc:7d:38:b2:21:90:af:c7:00:0c:33:74:77:95:a6:e8:
        cc:6c:03:a4:51:f3:11:56:f4:c3:03:7d:21:65:81:c6:56:38:
        59:59:84:2f:54:6f:8a:5a:08:28:68:e6:26:11:b2:7c:a1:c8:
        07:76:30:38:83:d9:6a:54:af:a5:91:0a:b6:24:14:eb:c4:dc:
        be:06:9e:55:57:27:bf:63:3d:16:75:26:71:3d:72:c9:8d:a3:
        50:66:79:76:f0:83:82:09:ee:74:ed:65:70:c6:4e:c7:57:4b:
        a5:d5:b2:39:4e:c9:35:9c:90:85:3c:f9:2c:80:d0:44:7c:24:
        60:37:d2:83:e5:72:3a:5e:f3:f5:9c:4e:f5:30:86:db:13:85:
        f0:d1:82:f8:05:4d:9c:15:4e:17:de:87:d4:05:f4:98:ff:5f:
        66:99:84:f0:f6:90:20:11:aa:9e:9b:9b:ba:5b:4d:2e:a3:de:
        31:59:74:61:bd:4c:14:a0:d1:63:a0:c4:04:18:88:53:b9:1b:
        58:8b:85:18:7d:9f:0f:bc:24:cf:d0:d0:af:e4:81:3a:ee:f7:
        2e:76:7f:33:fd:8a:1b:ca:b3:31:79:08:56:1b:15:71:f8:38:
        fe:7e:d0:cf:f3:9a:08:62:35:b8:ac:d6:2b:b6:32:17:87:a9:
        32:7b:e6:e0:19:fb:4d:f2:33:6b:6e:d3:88:c2:30:f6:98:20:
        91:22:2e:83:f6:eb:cd:26:7a:6a:01:cd:01:27:04:5f:46:63:
        c7:b9:99:cb:70:ea:97:ec:43:31:86:b7:a9:65:2f:15:9d:78:
        b2:91:cb:4e:60:c6:23:b3:c5:0c:8c:38:fe:b6:52:c1:61:7e:
        02:a2:54:82:89:f3:be:dc:70:17:c7:24:03:9d:f1:77:4b:77:
        00:06:91:57:5d:d6:ae:2f:6f:0e:3c:ce:56:7a:89:70:b5:71:
        df:70:91:9d:49:bb:fb:9a:f9:4f:00:2e:93:d4:cd:dd:11:3f:
        c6:94:dd:5f:bb:b9:5e:c2:36:44:c1:04:72:93:b5:f1:05:5a:
        0b:51:42:e1:ac:ca:3c:6f
-----BEGIN CERTIFICATE-----
MIIGLzCCBBegAwIBAgIJAKzujKMhTaGVMA0GCSqGSIb3DQEBBQUAMEgxEzARBgoJ
kiaJk/IsZAEZFgNvcmcxFzAVBgoJkiaJk/IsZAEZFgdkYXRhb25lMRgwFgYDVQQD
DA9EYXRhT05FIFJvb3QgQ0EwIBcNMTIwMzA3MDgyMzQ5WhgPMjExMjAyMTIwODIz
NDlaMEgxEzARBgoJkiaJk/IsZAEZFgNvcmcxFzAVBgoJkiaJk/IsZAEZFgdkYXRh
b25lMRgwFgYDVQQDDA9EYXRhT05FIFJvb3QgQ0EwggIiMA0GCSqGSIb3DQEBAQUA
A4ICDwAwggIKAoICAQC8k4AqUndCVApbh1sWDOJZQ4nPSVq3Py0Ss8wB2BmnKc/n
j/27EtFI7A2EXtGCD/hDLk5K3Wy7bZFyrt86yj5khVzc7xzHguYlBqKMsTnrHB3r
VFgUIQyzBU82BLlOtcZH1Gl0mbd7AfhDYCdfmwFmyMO9FGLozrD3WsZZoLuVCkXL
Qo5xRCFOm5Xkk/MQn+RStEOEOEeywBHZ0eliBFeMuIUgL/7NNUBpvEdc9BfQ1F68
2ed2sv8veBcD8EWwLyAIFcJywkA55Ccc6EZ0xq6TELhyBj+AKkKpfwZ284KwLrjm
DZyYh4MZRTgX+OzlHIHHUbtTpph0c3u9AUUkIO0z+VvgpZ+WMi3PI1yb/H1xzrQ+
wfUu7nQeCut/EuV3+NITw/gctdi9SWdmPMg/hiXrAP7c8Kh3ddJJ7lnWHS0zo/+v
5Aa7HH0IJgPTgUlBvG/J1cVLJuFmPPwMSDKY+jWsvWxgL419gir8ix7vZvE87vFP
PfsTrEchhfe1+BWLAm2PDCWPd4GwqMimb01L2SOnmdBmNKFUyus5zQ+VeslfueS5
vgbL6ivruKKWeRO1x45Dp5U8S9BvIeDp2iaHv+LdcXHk4X/CgZ3MN61zF8hNgiBo
/TkQ60FtU03Nja53cI3HYEdJMh3s5AKMjxPdc3SJSU5MCiBR8KssvrLik3H9PwID
AQABo4IBGDCCARQwHQYDVR0OBBYEFMksyg+TP17ObLHhei5fezEkGCnuMB8GA1Ud
IwQYMBaAFMksyg+TP17ObLHhei5fezEkGCnuMAwGA1UdEwQFMAMBAf8wgcMGA1Ud
HwSBuzCBuDA8oDqgOIY2aHR0cDovL2NuLXVjc2ItMS5kYXRhb25lLm9yZy9jcmwv
RGF0YU9ORVJvb3RDQV9DUkwucGVtMDugOaA3hjVodHRwOi8vY24tdW5tLTEuZGF0
YW9uZS5vcmcvY3JsL0RhdGFPTkVSb290Q0FfQ1JMLnBlbTA7oDmgN4Y1aHR0cDov
L2NuLW9yYy0xLmRhdGFvbmUub3JnL2NybC9EYXRhT05FUm9vdENBX0NSTC5wZW0w
DQYJKoZIhvcNAQEFBQADggIBALI0pQSrTGLcUyYaynr7gyvxoG5XYzD5HJLomw4R
awqJe08/d3hrPO4Re6FcqejIIqJAjX3JV+7TI58qtp4k4rzYNl5YPV5KdkJZFUf1
obzECRL0pnsrPcWJbScLaLci8cLurvp/z015iBjR6WqevH04siGQr8cADDN0d5Wm
6MxsA6RR8xFW9MMDfSFlgcZWOFlZhC9Ub4paCCho5iYRsnyhyAd2MDiD2WpUr6WR
CrYkFOvE3L4GnlVXJ79jPRZ1JnE9csmNo1BmeXbwg4IJ7nTtZXDGTsdXS6XVsjlO
yTWckIU8+SyA0ER8JGA30oPlcjpe8/WcTvUwhtsThfDRgvgFTZwVThfeh9QF9Jj/
X2aZhPD2kCARqp6bm7pbTS6j3jFZdGG9TBSg0WOgxAQYiFO5G1iLhRh9nw+8JM/Q
0K/kgTru9y52fzP9ihvKszF5CFYbFXH4OP5+0M/zmghiNbis1iu2MheHqTJ75uAZ
+03yM2tu04jCMPaYIJEiLoP2680memoBzQEnBF9GY8e5mctw6pfsQzGGt6llLxWd
eLKRy05gxiOzxQyMOP62UsFhfgKiVIKJ877ccBfHJAOd8XdLdwAGkVdd1q4vbw48
zlZ6iXC1cd9wkZ1Ju/ua+U8ALpPUzd0RP8aU3V+7uV7CNkTBBHKTtfEFWgtRQuGs
yjxv
-----END CERTIFICATE-----
Certificate:
    Data:
        Version: 3 (0x2)
        Serial Number:
            ac:ee:8c:a3:21:4d:a1:96
        Signature Algorithm: sha1WithRSAEncryption
        Issuer: dc=org/dc=dataone, CN=DataONE Root CA
        Validity
            Not Before: Mar  7 08:37:14 2012 GMT
            Not After : Feb 12 08:37:14 2112 GMT
        Subject: dc=org/dc=dataone, CN=DataONE Intermediate CA
        Subject Public Key Info:
            Public Key Algorithm: rsaEncryption
                Public-Key: (4096 bit)
                Modulus:
                    00:e3:15:42:d4:6b:06:79:0e:52:84:54:8d:ac:d9:
                    3a:b7:ed:0b:4d:05:92:c7:f9:e9:09:a0:20:6b:fe:
                    f1:f0:7e:80:f9:54:1a:d5:83:78:19:dc:58:c5:b4:
                    38:68:b4:c5:4c:e6:82:b4:93:ac:55:f9:29:02:ad:
                    fa:22:bf:f6:d4:90:23:88:8d:c2:e3:fe:b8:51:5b:
                    f6:a8:6a:ba:65:3b:67:c6:45:9d:a3:f2:7d:50:ea:
                    3a:eb:a3:97:ce:9d:3c:7f:e0:69:1f:39:1b:01:cd:
                    14:be:63:13:70:25:78:0a:65:36:ff:d0:96:b9:af:
                    5b:ad:a8:1e:d0:ba:cf:c6:16:c2:3c:ef:23:d6:15:
                    2e:fc:9d:5b:0f:ac:c8:8d:d8:c3:75:12:8e:f6:7d:
                    25:8b:e8:6b:f0:19:2c:0f:12:b0:9b:d8:aa:0d:ca:
                    7d:3b:3c:09:eb:71:30:56:17:8d:4c:89:d8:09:3c:
                    ee:a2:47:21:98:2e:96:cd:8f:fa:6f:25:23:ee:6e:
                    f1:6b:36:41:79:15:c2:f3:5b:23:6a:0a:76:99:44:
                    2e:59:e2:8e:49:b6:42:bf:32:26:2a:de:24:ee:ae:
                    0d:d6:35:df:c2:f9:a8:bf:03:53:68:87:74:80:ba:
                    c9:f8:6f:ad:6a:2e:f6:29:76:53:62:aa:61:99:8d:
                    f2:44:75:49:63:0a:88:ff:08:65:e3:dd:ef:c2:de:
                    f9:f6:3f:1b:06:46:07:07:43:d3:da:31:14:56:68:
                    f6:5d:f5:af:70:f6:34:99:f7:ef:4d:1c:8d:9c:3b:
                    d1:41:e1:ca:31:8d:3d:2a:87:95:63:2b:d4:13:e5:
                    86:d0:40:9b:9a:d3:f3:d9:49:80:81:c0:5c:50:25:
                    81:32:75:f7:7f:09:d3:e5:28:9c:4a:6e:9e:97:e4:
                    2d:b9:46:c2:e2:6f:96:a8:81:c6:eb:77:dc:c3:fb:
                    97:ac:b8:d8:19:9a:fb:3e:04:d0:b4:24:35:14:7c:
                    60:f7:05:ea:fb:b1:83:9c:e2:89:5a:91:e9:71:1a:
                    51:d2:51:2e:71:79:e1:ac:48:92:42:3c:49:64:d4:
                    eb:e7:57:83:f8:79:2c:ce:c0:2b:69:d0:01:bb:87:
                    c2:82:f1:22:29:4e:0c:93:36:65:73:72:db:d6:29:
                    db:be:c6:e1:7d:ac:bb:2b:8d:b1:5b:3b:7d:da:d0:
                    13:2b:99:00:9a:89:9a:11:52:23:34:92:d4:58:26:
                    f6:cf:7c:45:e1:2c:7c:f9:be:53:12:53:3f:ae:e4:
                    38:c5:ec:26:48:30:b7:06:5f:72:0b:00:39:a0:de:
                    ff:bb:1e:36:36:a4:ab:ae:3a:40:ec:73:71:f6:bf:
                    f2:93:0d
                Exponent: 65537 (0x10001)
        X509v3 extensions:
            X509v3 Subject Key Identifier: 
                02:F3:75:0B:3B:A8:B8:51:FB:AD:DE:37:7D:BA:31:34:A4:92:F3:DD
            X509v3 Authority Key Identifier: 
                keyid:C9:2C:CA:0F:93:3F:5E:CE:6C:B1:E1:7A:2E:5F:7B:31:24:18:29:EE

            X509v3 Basic Constraints: 
                CA:TRUE
            X509v3 CRL Distribution Points: 

                Full Name:
                  URI:http://cn-ucsb-1.dataone.org/crl/DataONERootCA_CRL.pem

                Full Name:
                  URI:http://cn-unm-1.dataone.org/crl/DataONERootCA_CRL.pem

                Full Name:
                  URI:http://cn-orc-1.dataone.org/crl/DataONERootCA_CRL.pem

    Signature Algorithm: sha1WithRSAEncryption
        04:33:94:80:de:0e:51:23:15:52:21:ef:34:99:6b:61:40:3a:
        13:7e:0e:33:1a:cd:6e:c5:11:e8:ee:b5:0c:03:b1:65:b4:26:
        c6:1b:44:f6:ab:7b:3d:c9:b1:1c:9b:74:56:c8:15:b3:27:57:
        1f:31:b7:00:58:75:50:6a:df:bf:40:3b:fc:88:b8:7b:11:81:
        71:22:5b:4a:d4:f1:6b:6d:6d:61:38:00:22:30:9d:67:73:6c:
        a4:19:68:96:f8:76:77:fd:ab:9a:81:53:19:44:9f:28:4a:95:
        1a:f0:3b:a8:76:e8:83:c7:25:99:dd:bf:aa:b2:35:89:a4:aa:
        8c:80:ad:09:46:76:74:e7:c5:d9:38:37:49:a4:33:2a:1a:93:
        33:6e:49:ab:8b:d7:0a:7f:cc:9e:e6:3f:06:b8:1d:b1:f0:2d:
        c7:74:90:8b:aa:2d:74:51:57:63:57:ef:cc:8e:63:f1:28:2d:
        4f:7e:a1:e7:ae:b6:58:52:34:ee:da:9a:57:b7:6e:1c:c1:81:
        47:ba:8d:07:08:5e:ab:76:56:52:14:54:93:71:15:05:61:27:
        d3:9c:e5:27:b7:42:8e:0a:77:dd:33:17:52:03:f5:95:61:85:
        e7:10:c5:4e:5a:b3:b4:82:64:ae:33:b0:17:9b:20:cd:27:93:
        10:93:bc:21:ce:8c:6a:ac:a8:22:e6:53:af:c6:19:a9:4b:d6:
        50:fd:0d:69:bb:17:4e:27:bc:6c:0d:da:0c:f0:6f:d8:15:00:
        d2:a0:2c:f0:4e:16:e6:b6:83:95:d8:f6:c7:f4:ba:15:08:cb:
        5b:53:54:5c:71:1f:42:df:ba:2e:d6:1a:61:7f:43:d2:b9:db:
        e1:18:ed:f8:49:5f:8d:bc:bc:b9:eb:f2:7b:f1:e3:35:d2:79:
        01:c0:f2:78:70:fc:fc:d9:b5:80:6a:9c:4a:76:35:81:b8:62:
        9b:ef:20:4c:aa:fd:1b:33:33:93:9e:66:d7:6f:0a:5f:f8:0c:
        e8:36:1c:ed:82:87:91:e8:38:e6:48:d8:94:d6:79:75:24:b7:
        2e:32:52:76:41:97:d0:fb:a1:5c:15:16:cc:7f:04:c3:11:56:
        14:42:91:6a:be:9c:ef:f9:33:6a:e4:33:97:f5:7c:e3:b3:7f:
        e3:f5:26:b3:4e:43:c9:fb:ef:b8:96:40:fc:f1:1b:e7:3a:14:
        96:2c:98:79:19:41:fd:9e:90:0d:37:c4:c1:b2:16:c7:50:12:
        bb:19:19:2e:10:c5:c3:9f:56:be:bd:21:b8:57:b3:94:c1:5e:
        b0:eb:32:97:fc:ec:42:58:8e:75:ff:9d:2e:42:d4:9b:6c:fd:
        53:f6:83:5a:c2:69:13:ba
-----BEGIN CERTIFICATE-----
MIIGNzCCBB+gAwIBAgIJAKzujKMhTaGWMA0GCSqGSIb3DQEBBQUAMEgxEzARBgoJ
kiaJk/IsZAEZFgNvcmcxFzAVBgoJkiaJk/IsZAEZFgdkYXRhb25lMRgwFgYDVQQD
DA9EYXRhT05FIFJvb3QgQ0EwIBcNMTIwMzA3MDgzNzE0WhgPMjExMjAyMTIwODM3
MTRaMFAxEzARBgoJkiaJk/IsZAEZFgNvcmcxFzAVBgoJkiaJk/IsZAEZFgdkYXRh
b25lMSAwHgYDVQQDDBdEYXRhT05FIEludGVybWVkaWF0ZSBDQTCCAiIwDQYJKoZI
hvcNAQEBBQADggIPADCCAgoCggIBAOMVQtRrBnkOUoRUjazZOrftC00Fksf56Qmg
IGv+8fB+gPlUGtWDeBncWMW0OGi0xUzmgrSTrFX5KQKt+iK/9tSQI4iNwuP+uFFb
9qhqumU7Z8ZFnaPyfVDqOuujl86dPH/gaR85GwHNFL5jE3AleAplNv/QlrmvW62o
HtC6z8YWwjzvI9YVLvydWw+syI3Yw3USjvZ9JYvoa/AZLA8SsJvYqg3KfTs8Cetx
MFYXjUyJ2Ak87qJHIZguls2P+m8lI+5u8Ws2QXkVwvNbI2oKdplELlnijkm2Qr8y
JireJO6uDdY138L5qL8DU2iHdIC6yfhvrWou9il2U2KqYZmN8kR1SWMKiP8IZePd
78Le+fY/GwZGBwdD09oxFFZo9l31r3D2NJn3700cjZw70UHhyjGNPSqHlWMr1BPl
htBAm5rT89lJgIHAXFAlgTJ1938J0+UonEpunpfkLblGwuJvlqiBxut33MP7l6y4
2Bma+z4E0LQkNRR8YPcF6vuxg5ziiVqR6XEaUdJRLnF54axIkkI8SWTU6+dXg/h5
LM7AK2nQAbuHwoLxIilODJM2ZXNy29Yp277G4X2suyuNsVs7fdrQEyuZAJqJmhFS
IzSS1Fgm9s98ReEsfPm+UxJTP67kOMXsJkgwtwZfcgsAOaDe/7seNjakq646QOxz
cfa/8pMNAgMBAAGjggEYMIIBFDAdBgNVHQ4EFgQUAvN1CzuouFH7rd43fboxNKSS
890wHwYDVR0jBBgwFoAUySzKD5M/Xs5sseF6Ll97MSQYKe4wDAYDVR0TBAUwAwEB
/zCBwwYDVR0fBIG7MIG4MDygOqA4hjZodHRwOi8vY24tdWNzYi0xLmRhdGFvbmUu
b3JnL2NybC9EYXRhT05FUm9vdENBX0NSTC5wZW0wO6A5oDeGNWh0dHA6Ly9jbi11
bm0tMS5kYXRhb25lLm9yZy9jcmwvRGF0YU9ORVJvb3RDQV9DUkwucGVtMDugOaA3
hjVodHRwOi8vY24tb3JjLTEuZGF0YW9uZS5vcmcvY3JsL0RhdGFPTkVSb290Q0Ff
Q1JMLnBlbTANBgkqhkiG9w0BAQUFAAOCAgEABDOUgN4OUSMVUiHvNJlrYUA6E34O
MxrNbsUR6O61DAOxZbQmxhtE9qt7PcmxHJt0VsgVsydXHzG3AFh1UGrfv0A7/Ii4
exGBcSJbStTxa21tYTgAIjCdZ3NspBlolvh2d/2rmoFTGUSfKEqVGvA7qHbog8cl
md2/qrI1iaSqjICtCUZ2dOfF2Tg3SaQzKhqTM25Jq4vXCn/MnuY/BrgdsfAtx3SQ
i6otdFFXY1fvzI5j8SgtT36h5662WFI07tqaV7duHMGBR7qNBwheq3ZWUhRUk3EV
BWEn05zlJ7dCjgp33TMXUgP1lWGF5xDFTlqztIJkrjOwF5sgzSeTEJO8Ic6Maqyo
IuZTr8YZqUvWUP0NabsXTie8bA3aDPBv2BUA0qAs8E4W5raDldj2x/S6FQjLW1NU
XHEfQt+6LtYaYX9D0rnb4Rjt+Elfjby8uevye/HjNdJ5AcDyeHD8/Nm1gGqcSnY1
gbhim+8gTKr9GzMzk55m128KX/gM6DYc7YKHkeg45kjYlNZ5dSS3LjJSdkGX0Puh
XBUWzH8EwxFWFEKRar6c7/kzauQzl/V847N/4/Ums05DyfvvuJZA/PEb5zoUliyY
eRlB/Z6QDTfEwbIWx1ASuxkZLhDFw59Wvr0huFezlMFesOsyl/zsQliOdf+dLkLU
m2z9U/aDWsJpE7o=
-----END CERTIFICATE-----
