Certificate:
    Data:
        Version: 3 (0x2)
        Serial Number:
            3b:67:17:07:f2:51:59:b0:17:c9:76:30:cb:45:96:20:83:dd:28:60
        Signature Algorithm: sha256WithRSAEncryption
        Issuer: DC=org, DC=dataone, CN=DataONE Test Root CA
        Validity
            Not Before: Jan 22 21:00:48 2024 GMT
            Not After : Dec 29 21:00:48 2123 GMT
        Subject: DC=org, DC=dataone, CN=DataONE Test Root CA
        Subject Public Key Info:
            Public Key Algorithm: rsaEncryption
                Public-Key: (4096 bit)
                Modulus:
                    00:b5:e1:cd:6b:8f:1b:53:9a:50:2a:9f:0d:5c:81:
                    78:30:56:0b:13:de:02:43:54:c0:7d:7e:d6:80:61:
                    83:dc:85:9b:d5:22:56:6e:07:4d:fa:af:82:21:9a:
                    68:ad:8c:a0:fa:18:78:1a:be:0b:d9:5e:a7:20:4f:
                    ef:7c:ae:24:4c:59:8b:5f:93:28:03:4c:16:96:ed:
                    c7:6f:68:82:59:f0:3d:af:93:b8:e8:b2:71:d3:ab:
                    3c:72:ff:9f:9b:6f:ba:49:8e:9d:f0:4f:26:bf:aa:
                    ae:26:89:66:84:f4:24:16:40:5b:99:b0:83:8a:3b:
                    65:d0:58:e1:25:89:85:35:33:ac:19:6d:a6:59:a1:
                    a1:8d:4b:38:7c:13:72:da:93:c9:c0:6e:a5:00:ef:
                    39:d4:a8:95:a0:bf:ae:aa:54:64:c8:d9:35:bc:7b:
                    89:9c:b1:9c:52:7f:80:29:0c:28:91:e9:cc:12:80:
                    ba:cd:09:4d:08:37:a7:19:4e:14:3c:e4:87:84:2c:
                    47:06:a2:91:98:50:74:f1:69:7d:e0:39:f1:5c:d5:
                    2b:74:ee:34:a5:3e:1c:2f:4e:21:44:8a:45:df:a8:
                    f0:bf:a1:0a:6e:88:47:a2:77:26:cb:06:29:aa:42:
                    36:b3:da:21:5a:bd:05:e5:e9:66:ac:ba:c5:d7:a8:
                    e9:74:82:6f:1b:89:5c:3b:53:63:66:47:9e:f1:ed:
                    08:7d:32:d9:3d:b9:f1:ef:a4:e5:d4:d8:52:49:23:
                    9d:40:68:01:cf:ce:f9:c3:54:88:f1:d9:18:0e:20:
                    50:ae:18:f6:12:29:21:ed:4d:98:58:ac:66:94:7e:
                    24:61:c5:07:00:5b:fe:88:32:eb:56:9f:3a:b8:ca:
                    c5:ac:84:cb:65:e4:a2:b5:bd:d5:c5:e0:b3:1b:eb:
                    2f:e7:21:b7:3e:22:97:f3:d9:75:e4:2d:7f:2c:b7:
                    56:a7:6a:76:68:17:56:e7:4e:2f:ca:3a:f2:0a:6d:
                    7e:3f:49:b7:62:79:9a:77:cb:03:e8:15:4e:5e:02:
                    dc:5e:d6:89:58:72:99:c6:15:e5:a5:23:b2:36:8c:
                    6b:7c:70:93:12:22:ee:29:11:27:d4:67:a7:b8:91:
                    8e:64:6d:ab:6f:d1:9a:56:d3:fd:8a:a0:b2:9c:5b:
                    c3:df:6c:93:a8:0b:d8:92:37:9f:e2:19:8a:6c:0d:
                    48:e0:4c:42:8c:a5:7f:ac:09:bd:bf:19:5b:0a:ee:
                    11:76:8a:2d:9e:38:ae:8f:c0:51:b6:f6:ae:de:0f:
                    a2:e6:0e:77:d0:b6:3a:6d:3a:48:cf:8c:cb:d4:e5:
                    e7:13:bc:18:23:01:f8:a7:5b:8c:00:1a:90:0d:2f:
                    ae:e5:f9
                Exponent: 65537 (0x10001)
        X509v3 extensions:
            X509v3 Subject Key Identifier: 
                F5:0C:64:8D:04:54:C1:16:0A:E2:42:EC:EE:67:9E:73:92:66:40:8E
            X509v3 Authority Key Identifier: 
                F5:0C:64:8D:04:54:C1:16:0A:E2:42:EC:EE:67:9E:73:92:66:40:8E
            X509v3 Basic Constraints: 
                CA:TRUE
            X509v3 CRL Distribution Points: 
                Full Name:
                  URI:http://releases.dataone.org/crl/DataONETestRootCA_CRL.pem
                Full Name:
                  URI:http://cn-ucsb-1.dataone.org/crl/DataONETestRootCA_CRL.pem
                Full Name:
                  URI:http://cn-orc-1.dataone.org/crl/DataONETestRootCA_CRL.pem
    Signature Algorithm: sha256WithRSAEncryption
    Signature Value:
        2b:18:ac:e4:12:27:d3:94:20:4b:0b:27:2b:b4:cb:85:23:3d:
        d5:fa:cc:4e:c8:02:6e:52:76:c1:29:34:07:39:16:15:dd:ad:
        0f:7e:d5:d0:74:dd:a5:88:a0:d7:92:a6:28:d7:55:77:fa:9c:
        6e:0b:6a:8a:2d:5b:5b:37:20:30:78:eb:53:be:d3:b8:f8:c4:
        2e:f2:29:c7:68:bb:a1:3a:fc:4c:40:18:01:91:cc:23:71:e2:
        ab:ba:df:5d:7b:16:94:10:ce:88:db:94:d9:3b:99:92:5b:9e:
        2c:d6:ba:24:89:3e:de:c8:fd:b4:ff:cc:8e:c6:b7:3c:f0:23:
        1d:34:af:68:e3:5f:cf:d3:2e:83:80:c1:1c:c8:9e:49:46:fe:
        8f:bd:24:02:7b:4d:00:6c:ff:f0:1a:d3:6a:4c:56:7b:8f:c4:
        0c:de:ec:5d:b1:aa:98:7c:c8:b3:70:f8:17:0d:c6:a0:6c:20:
        5f:cb:93:93:1a:e1:5a:4e:1b:e3:3a:57:ef:2e:61:82:87:d3:
        9d:d2:bb:ec:78:7a:60:b9:c9:43:11:ed:ef:4b:31:a2:19:14:
        ad:68:d1:cd:ef:a1:05:96:d0:b3:22:44:5d:2b:7f:ca:67:34:
        cf:02:0d:6a:55:fd:53:80:c8:b4:11:21:a4:30:e2:cf:79:e7:
        59:51:a6:a1:de:32:8d:52:d3:30:ec:7c:b0:d0:61:f5:cb:2e:
        84:f6:b8:3f:41:80:b0:40:9f:1e:d6:60:9c:f4:4b:39:79:c4:
        fa:6a:f7:c3:9d:5e:d6:10:e3:9f:9f:3c:e6:91:80:21:87:96:
        1e:2a:ea:e7:12:5d:2c:c1:7a:fa:b9:89:fc:9f:b4:53:09:a8:
        ec:e3:6a:4e:1f:5b:ce:6f:93:c9:1a:f6:cf:10:e8:b1:80:93:
        2b:4d:ae:a6:42:48:59:66:45:a7:dd:99:1a:52:e8:2f:71:6f:
        69:c1:fd:ac:fb:0f:12:4f:8c:eb:d5:cf:32:fe:fc:65:12:c3:
        15:22:f2:25:0f:3c:c3:15:22:1b:ab:81:8d:86:9f:0b:ca:9e:
        63:61:0e:4c:24:15:61:04:d5:60:db:cc:37:bd:8f:78:25:d4:
        2f:c6:cd:24:a3:11:d2:04:13:57:64:e3:6e:7a:ac:ef:62:cc:
        9a:dd:00:1d:45:d1:c2:72:63:cf:f3:ef:e4:f3:02:84:41:f8:
        20:88:7f:00:a9:d2:1c:9a:0e:56:43:8b:ef:1b:71:c5:1b:59:
        d2:e4:11:36:32:40:e9:29:07:b1:02:55:22:83:ed:8f:3c:de:
        20:65:ca:77:6b:12:a3:78:5f:6a:6f:68:f6:18:18:d1:07:e3:
        99:54:2a:b0:83:1b:c5:1c
-----BEGIN CERTIFICATE-----
MIIGUDCCBDigAwIBAgIUO2cXB/JRWbAXyXYwy0WWIIPdKGAwDQYJKoZIhvcNAQEL
BQAwTTETMBEGCgmSJomT8ixkARkWA29yZzEXMBUGCgmSJomT8ixkARkWB2RhdGFv
bmUxHTAbBgNVBAMMFERhdGFPTkUgVGVzdCBSb290IENBMCAXDTI0MDEyMjIxMDA0
OFoYDzIxMjMxMjI5MjEwMDQ4WjBNMRMwEQYKCZImiZPyLGQBGRYDb3JnMRcwFQYK
CZImiZPyLGQBGRYHZGF0YW9uZTEdMBsGA1UEAwwURGF0YU9ORSBUZXN0IFJvb3Qg
Q0EwggIiMA0GCSqGSIb3DQEBAQUAA4ICDwAwggIKAoICAQC14c1rjxtTmlAqnw1c
gXgwVgsT3gJDVMB9ftaAYYPchZvVIlZuB036r4IhmmitjKD6GHgavgvZXqcgT+98
riRMWYtfkygDTBaW7cdvaIJZ8D2vk7josnHTqzxy/5+bb7pJjp3wTya/qq4miWaE
9CQWQFuZsIOKO2XQWOEliYU1M6wZbaZZoaGNSzh8E3Lak8nAbqUA7znUqJWgv66q
VGTI2TW8e4mcsZxSf4ApDCiR6cwSgLrNCU0IN6cZThQ85IeELEcGopGYUHTxaX3g
OfFc1St07jSlPhwvTiFEikXfqPC/oQpuiEeidybLBimqQjaz2iFavQXl6WasusXX
qOl0gm8biVw7U2NmR57x7Qh9Mtk9ufHvpOXU2FJJI51AaAHPzvnDVIjx2RgOIFCu
GPYSKSHtTZhYrGaUfiRhxQcAW/6IMutWnzq4ysWshMtl5KK1vdXF4LMb6y/nIbc+
Ipfz2XXkLX8st1ananZoF1bnTi/KOvIKbX4/SbdieZp3ywPoFU5eAtxe1olYcpnG
FeWlI7I2jGt8cJMSIu4pESfUZ6e4kY5kbatv0ZpW0/2KoLKcW8PfbJOoC9iSN5/i
GYpsDUjgTEKMpX+sCb2/GVsK7hF2ii2eOK6PwFG29q7eD6LmDnfQtjptOkjPjMvU
5ecTvBgjAfinW4wAGpANL67l+QIDAQABo4IBJDCCASAwHQYDVR0OBBYEFPUMZI0E
VMEWCuJC7O5nnnOSZkCOMB8GA1UdIwQYMBaAFPUMZI0EVMEWCuJC7O5nnnOSZkCO
MAwGA1UdEwQFMAMBAf8wgc8GA1UdHwSBxzCBxDA/oD2gO4Y5aHR0cDovL3JlbGVh
c2VzLmRhdGFvbmUub3JnL2NybC9EYXRhT05FVGVzdFJvb3RDQV9DUkwucGVtMECg
PqA8hjpodHRwOi8vY24tdWNzYi0xLmRhdGFvbmUub3JnL2NybC9EYXRhT05FVGVz
dFJvb3RDQV9DUkwucGVtMD+gPaA7hjlodHRwOi8vY24tb3JjLTEuZGF0YW9uZS5v
cmcvY3JsL0RhdGFPTkVUZXN0Um9vdENBX0NSTC5wZW0wDQYJKoZIhvcNAQELBQAD
ggIBACsYrOQSJ9OUIEsLJyu0y4UjPdX6zE7IAm5SdsEpNAc5FhXdrQ9+1dB03aWI
oNeSpijXVXf6nG4LaootW1s3IDB461O+07j4xC7yKcdou6E6/ExAGAGRzCNx4qu6
3117FpQQzojblNk7mZJbnizWuiSJPt7I/bT/zI7GtzzwIx00r2jjX8/TLoOAwRzI
nklG/o+9JAJ7TQBs//Aa02pMVnuPxAze7F2xqph8yLNw+BcNxqBsIF/Lk5Ma4VpO
G+M6V+8uYYKH053Su+x4emC5yUMR7e9LMaIZFK1o0c3voQWW0LMiRF0rf8pnNM8C
DWpV/VOAyLQRIaQw4s9551lRpqHeMo1S0zDsfLDQYfXLLoT2uD9BgLBAnx7WYJz0
Szl5xPpq98OdXtYQ45+fPOaRgCGHlh4q6ucSXSzBevq5ifyftFMJqOzjak4fW85v
k8ka9s8Q6LGAkytNrqZCSFlmRafdmRpS6C9xb2nB/az7DxJPjOvVzzL+/GUSwxUi
8iUPPMMVIhurgY2GnwvKnmNhDkwkFWEE1WDbzDe9j3gl1C/GzSSjEdIEE1dk4256
rO9izJrdAB1F0cJyY8/z7+TzAoRB+CCIfwCp0hyaDlZDi+8bccUbWdLkETYyQOkp
B7ECVSKD7Y883iBlyndrEqN4X2pvaPYYGNEH45lUKrCDG8Uc
-----END CERTIFICATE-----
Certificate:
    Data:
        Version: 3 (0x2)
        Serial Number:
            3b:67:17:07:f2:51:59:b0:17:c9:76:30:cb:45:96:20:83:dd:28:61
        Signature Algorithm: sha256WithRSAEncryption
        Issuer: DC=org, DC=dataone, CN=DataONE Test Root CA
        Validity
            Not Before: Jan 22 21:42:07 2024 GMT
            Not After : Dec 29 21:42:07 2123 GMT
        Subject: DC=org, DC=dataone, CN=DataONE Test Intermediate CA
        Subject Public Key Info:
            Public Key Algorithm: rsaEncryption
                Public-Key: (4096 bit)
                Modulus:
                    00:c9:f7:9b:6e:e4:13:8c:31:d4:57:4e:b5:08:87:
                    09:70:01:c2:15:e5:0f:c2:53:19:d5:1a:d4:84:4e:
                    46:aa:5a:ce:63:76:6d:cb:ff:69:61:bf:14:f8:7d:
                    e6:76:40:05:55:be:6a:75:e2:1d:6b:62:83:8d:24:
                    1e:2d:66:7b:0f:a7:62:27:85:5d:48:f2:e3:4e:27:
                    2c:e7:66:b2:9f:90:2f:e9:f9:8b:6c:4d:ae:9c:8e:
                    04:ac:e9:72:17:b1:56:53:21:6f:e0:e4:64:9e:ce:
                    41:43:8a:39:1b:b3:59:e2:18:34:03:5c:11:28:ac:
                    bc:c3:88:d2:5e:7a:cb:4b:d3:82:7d:d1:99:70:56:
                    fa:89:01:7c:48:3a:d0:da:ac:e1:6e:2d:1e:4c:fc:
                    bd:c9:26:3c:38:db:48:f3:30:d9:1c:51:5f:26:1f:
                    4f:9b:61:5a:66:d7:f3:44:7b:82:04:88:53:61:e3:
                    e4:0a:6b:a6:65:06:e0:30:ee:a2:d4:23:2b:6c:f9:
                    87:3b:92:2f:65:23:2b:ef:a2:c3:96:89:60:37:22:
                    96:74:b2:ba:a5:fc:5d:48:8f:be:4a:3c:d9:88:89:
                    0a:70:46:fc:48:f0:11:63:3a:46:42:32:05:2e:50:
                    bc:30:bd:b4:9c:1f:86:74:c3:e0:e7:d3:5a:e1:63:
                    0f:44:df:b2:67:01:a2:bb:5a:f7:18:88:d9:15:66:
                    05:37:14:22:b9:3e:f3:45:bf:8c:5a:ba:2a:9d:2a:
                    ce:9e:db:05:b7:54:20:a9:17:f7:73:fb:ad:de:1b:
                    e2:1e:d0:3b:3a:08:78:4a:65:df:62:ab:8e:4f:63:
                    2a:a8:5f:3a:bf:0b:b2:b6:fe:ff:de:e5:61:6e:f2:
                    7a:80:f4:14:09:5c:c6:8b:a7:07:43:24:91:4b:19:
                    4f:62:22:d6:7b:fc:3b:e4:32:40:80:48:70:9d:b2:
                    91:4b:08:e0:df:97:d9:30:78:73:48:f7:68:22:d0:
                    1e:dd:b9:51:b0:66:91:4e:cc:a1:17:e6:da:ad:d9:
                    54:fe:a9:cf:2c:c7:8e:23:6e:2e:cb:01:27:54:e3:
                    e2:fe:9e:71:27:19:59:95:52:68:53:e4:79:66:5e:
                    28:87:fc:cf:6e:83:62:87:d1:b0:b2:c5:11:9b:35:
                    d8:1c:a2:92:26:26:e5:89:94:8d:6e:3e:54:0f:76:
                    74:10:47:06:7c:c4:a7:4f:f5:e0:dc:5e:42:f8:7f:
                    94:4f:f9:f9:b1:29:29:a7:f7:a1:b8:0b:42:c2:10:
                    6a:cb:94:cd:57:d4:44:f6:a3:97:64:2c:19:34:25:
                    12:34:08:83:73:2e:01:36:72:3c:e4:04:bf:a3:90:
                    2a:1e:13
                Exponent: 65537 (0x10001)
        X509v3 extensions:
            X509v3 Subject Key Identifier: 
                EF:2E:C1:27:6C:2A:8A:09:AB:6C:C3:45:7F:3B:F9:57:D5:16:A9:B3
            X509v3 Authority Key Identifier: 
                F5:0C:64:8D:04:54:C1:16:0A:E2:42:EC:EE:67:9E:73:92:66:40:8E
            X509v3 Basic Constraints: 
                CA:TRUE
            X509v3 CRL Distribution Points: 
                Full Name:
                  URI:http://releases.dataone.org/crl/DataONETestRootCA_CRL.pem
                Full Name:
                  URI:http://cn-ucsb-1.dataone.org/crl/DataONETestRootCA_CRL.pem
                Full Name:
                  URI:http://cn-orc-1.dataone.org/crl/DataONETestRootCA_CRL.pem
    Signature Algorithm: sha256WithRSAEncryption
    Signature Value:
        24:fc:37:c4:f1:76:51:60:cc:37:00:79:40:b3:ca:9c:35:56:
        13:c8:10:c0:66:bd:58:14:99:b6:65:9e:78:f6:25:41:18:f4:
        00:fb:04:a3:40:0d:27:ce:47:aa:88:a3:2d:08:c9:07:fa:3e:
        19:be:4c:c9:d3:91:08:f8:60:d0:63:0a:d4:b6:b0:4e:6c:e2:
        3f:b1:98:76:37:5a:8c:7d:c6:67:0e:3c:4b:77:d2:3a:e8:61:
        91:06:b3:57:d4:15:bb:3f:1c:ce:ed:a9:86:37:70:26:74:db:
        ab:6d:ad:d1:a6:0d:0b:e1:5c:1b:7f:85:ad:55:83:9a:9b:8d:
        6f:fd:2e:e6:6a:74:38:88:a7:ef:59:5f:b0:e9:fb:95:4b:dd:
        14:55:7d:2d:0c:da:6b:1e:2a:d1:08:f3:f7:f1:c7:af:2b:35:
        47:5a:1c:29:45:ed:d4:71:7a:6b:e8:4f:7b:32:1f:8b:e5:c1:
        e1:bd:7e:1a:bc:25:87:eb:cc:8f:db:80:74:5b:22:da:fc:b8:
        65:e5:44:3f:1f:90:61:00:38:08:8b:4c:d9:f1:eb:b1:d1:1b:
        3c:86:63:9d:e2:fd:92:b7:5e:09:db:91:d1:b3:84:f8:5c:0b:
        f3:b5:0c:ef:62:89:59:1a:1a:64:85:cc:10:d2:74:e7:03:c4:
        51:b9:f9:21:a0:da:d6:46:aa:08:fb:26:d7:f9:07:ea:02:ba:
        30:01:e1:2b:fd:cc:1a:48:47:0c:f5:dd:cf:af:36:cc:92:f9:
        ed:2a:9c:0b:ac:b3:c4:17:b2:44:1e:de:5e:03:ca:1a:87:bd:
        28:6a:ee:cd:3a:1e:56:2a:3c:d7:a5:f5:40:29:f1:d4:5c:f6:
        f0:6f:fc:b5:16:f0:79:bf:25:3a:3c:73:a4:84:d7:a0:15:bd:
        2d:be:91:eb:25:26:b8:0d:bc:5d:29:59:59:ee:b8:ba:25:8d:
        90:36:25:da:89:f3:9f:00:b7:bd:99:66:7c:9c:58:f5:91:64:
        ca:52:1c:5a:2f:77:de:ec:e9:66:90:9d:19:b9:28:56:9a:c9:
        76:a1:39:c8:b1:43:9e:40:a4:ce:8e:6b:2e:37:38:7a:e8:78:
        93:15:07:95:98:97:12:a4:8b:13:64:dd:fe:34:07:41:d3:4e:
        b4:d6:5d:5c:d6:1c:de:7d:09:4b:ed:85:b4:81:33:3f:0f:e8:
        2e:19:27:cd:86:12:4d:83:33:7e:e4:9b:cb:1e:80:c9:92:93:
        cc:e3:cd:d5:de:eb:9b:ca:e9:81:71:99:78:a7:88:08:34:06:
        20:44:ef:9a:cd:ce:9c:96:81:40:e9:4c:0c:82:64:48:ea:d5:
        36:ca:37:fd:fe:21:a7:c7
-----BEGIN CERTIFICATE-----
MIIGWDCCBECgAwIBAgIUO2cXB/JRWbAXyXYwy0WWIIPdKGEwDQYJKoZIhvcNAQEL
BQAwTTETMBEGCgmSJomT8ixkARkWA29yZzEXMBUGCgmSJomT8ixkARkWB2RhdGFv
bmUxHTAbBgNVBAMMFERhdGFPTkUgVGVzdCBSb290IENBMCAXDTI0MDEyMjIxNDIw
N1oYDzIxMjMxMjI5MjE0MjA3WjBVMRMwEQYKCZImiZPyLGQBGRYDb3JnMRcwFQYK
CZImiZPyLGQBGRYHZGF0YW9uZTElMCMGA1UEAwwcRGF0YU9ORSBUZXN0IEludGVy
bWVkaWF0ZSBDQTCCAiIwDQYJKoZIhvcNAQEBBQADggIPADCCAgoCggIBAMn3m27k
E4wx1FdOtQiHCXABwhXlD8JTGdUa1IRORqpazmN2bcv/aWG/FPh95nZABVW+anXi
HWtig40kHi1mew+nYieFXUjy404nLOdmsp+QL+n5i2xNrpyOBKzpchexVlMhb+Dk
ZJ7OQUOKORuzWeIYNANcESisvMOI0l56y0vTgn3RmXBW+okBfEg60Nqs4W4tHkz8
vckmPDjbSPMw2RxRXyYfT5thWmbX80R7ggSIU2Hj5AprpmUG4DDuotQjK2z5hzuS
L2UjK++iw5aJYDcilnSyuqX8XUiPvko82YiJCnBG/EjwEWM6RkIyBS5QvDC9tJwf
hnTD4OfTWuFjD0TfsmcBorta9xiI2RVmBTcUIrk+80W/jFq6Kp0qzp7bBbdUIKkX
93P7rd4b4h7QOzoIeEpl32Krjk9jKqhfOr8Lsrb+/97lYW7yeoD0FAlcxounB0Mk
kUsZT2Ii1nv8O+QyQIBIcJ2ykUsI4N+X2TB4c0j3aCLQHt25UbBmkU7MoRfm2q3Z
VP6pzyzHjiNuLssBJ1Tj4v6ecScZWZVSaFPkeWZeKIf8z26DYofRsLLFEZs12Byi
kiYm5YmUjW4+VA92dBBHBnzEp0/14NxeQvh/lE/5+bEpKaf3obgLQsIQasuUzVfU
RPajl2QsGTQlEjQIg3MuATZyPOQEv6OQKh4TAgMBAAGjggEkMIIBIDAdBgNVHQ4E
FgQU7y7BJ2wqigmrbMNFfzv5V9UWqbMwHwYDVR0jBBgwFoAU9QxkjQRUwRYK4kLs
7meec5JmQI4wDAYDVR0TBAUwAwEB/zCBzwYDVR0fBIHHMIHEMD+gPaA7hjlodHRw
Oi8vcmVsZWFzZXMuZGF0YW9uZS5vcmcvY3JsL0RhdGFPTkVUZXN0Um9vdENBX0NS
TC5wZW0wQKA+oDyGOmh0dHA6Ly9jbi11Y3NiLTEuZGF0YW9uZS5vcmcvY3JsL0Rh
dGFPTkVUZXN0Um9vdENBX0NSTC5wZW0wP6A9oDuGOWh0dHA6Ly9jbi1vcmMtMS5k
YXRhb25lLm9yZy9jcmwvRGF0YU9ORVRlc3RSb290Q0FfQ1JMLnBlbTANBgkqhkiG
9w0BAQsFAAOCAgEAJPw3xPF2UWDMNwB5QLPKnDVWE8gQwGa9WBSZtmWeePYlQRj0
APsEo0ANJ85HqoijLQjJB/o+Gb5MydORCPhg0GMK1LawTmziP7GYdjdajH3GZw48
S3fSOuhhkQazV9QVuz8czu2phjdwJnTbq22t0aYNC+FcG3+FrVWDmpuNb/0u5mp0
OIin71lfsOn7lUvdFFV9LQzaax4q0Qjz9/HHrys1R1ocKUXt1HF6a+hPezIfi+XB
4b1+Grwlh+vMj9uAdFsi2vy4ZeVEPx+QYQA4CItM2fHrsdEbPIZjneL9krdeCduR
0bOE+FwL87UM72KJWRoaZIXMENJ05wPEUbn5IaDa1kaqCPsm1/kH6gK6MAHhK/3M
GkhHDPXdz682zJL57SqcC6yzxBeyRB7eXgPKGoe9KGruzToeVio816X1QCnx1Fz2
8G/8tRbweb8lOjxzpITXoBW9Lb6R6yUmuA28XSlZWe64uiWNkDYl2onznwC3vZlm
fJxY9ZFkylIcWi933uzpZpCdGbkoVprJdqE5yLFDnkCkzo5rLjc4euh4kxUHlZiX
EqSLE2Td/jQHQdNOtNZdXNYc3n0JS+2FtIEzPw/oLhknzYYSTYMzfuSbyx6AyZKT
zOPN1d7rm8rpgXGZeKeICDQGIETvms3OnJaBQOlMDIJkSOrVNso3/f4hp8c=
-----END CERTIFICATE-----
