Certificate:
    Data:
        Version: 3 (0x2)
        Serial Number:
            3f:60:46:5d:4d:7f:be:35:3d:d0:6c:fe:b2:3e:86:ca:a8:b3:5c:51
        Signature Algorithm: sha256WithRSAEncryption
        Issuer: DC=org, DC=dataone, CN=DataONE Prod Root CA
        Validity
            Not Before: Jan 23 00:39:44 2024 GMT
            Not After : Dec 30 00:39:44 2123 GMT
        Subject: DC=org, DC=dataone, CN=DataONE Prod Root CA
        Subject Public Key Info:
            Public Key Algorithm: rsaEncryption
                Public-Key: (4096 bit)
                Modulus:
                    00:c0:10:4f:e0:43:7b:1e:2a:17:b4:9a:55:eb:c6:
                    41:f0:36:61:44:f0:6a:76:be:7d:47:23:ab:92:61:
                    36:f8:e9:99:39:8f:59:04:60:30:77:17:ee:18:ac:
                    c0:69:69:d5:09:f0:05:52:61:8d:25:2f:a3:7e:43:
                    cc:e1:23:f6:b6:00:62:55:3d:90:82:38:46:68:5c:
                    74:f7:57:65:59:7b:bf:89:0a:9f:53:d4:89:65:11:
                    09:68:e0:1f:db:39:d8:fd:95:42:36:ca:39:f3:4a:
                    38:77:27:64:16:2d:b9:9b:b6:da:88:fc:93:ad:75:
                    74:81:29:14:e9:04:df:b5:1a:60:30:df:c3:85:f7:
                    28:e6:ee:31:1b:7f:3e:aa:14:23:13:18:a5:93:47:
                    f0:d5:77:36:2b:21:cd:3e:92:a2:b5:3c:64:56:ee:
                    6f:c9:47:84:94:6f:bf:74:7c:9c:4f:b0:3c:e2:84:
                    12:08:62:5e:77:b8:9f:f9:c2:59:63:27:fa:21:15:
                    5f:44:71:6f:7e:cf:ed:84:14:aa:9a:4e:e8:e1:85:
                    92:65:49:d9:c8:3f:8f:ad:16:5f:fc:4e:7e:65:4f:
                    b9:82:b3:63:08:4f:84:fc:cf:33:c1:7c:f1:00:44:
                    28:c1:25:ba:f4:2d:96:a9:f1:b6:48:dc:83:4c:40:
                    03:9c:5a:7e:55:01:2a:d8:85:f8:97:cd:4f:af:5b:
                    71:a0:b2:43:ac:18:60:0c:e9:98:06:de:3c:67:0f:
                    bf:d5:1d:38:ca:b6:3d:f9:11:73:1d:33:96:8e:9b:
                    04:d9:75:6b:05:a7:54:ae:36:14:92:ef:7a:d3:e2:
                    36:fa:e1:08:37:d1:8f:9d:5b:6c:f0:33:fa:e5:7c:
                    74:b5:ed:c4:6d:44:d7:45:97:39:04:c3:eb:33:95:
                    34:d5:37:1a:69:3c:6b:e8:f2:29:83:b0:80:0a:d8:
                    74:2e:50:ac:da:0a:24:e9:65:10:b4:a6:9e:ca:b0:
                    8a:70:9a:7f:85:fe:d1:e5:1e:1e:82:62:12:21:76:
                    13:f1:fd:2e:2e:96:ff:5a:95:93:da:44:5f:a7:85:
                    3b:c8:ac:2a:a2:a2:96:5f:36:fe:ce:f5:1e:bb:d8:
                    8b:f8:0e:bf:19:67:3e:df:20:b7:3d:57:07:4e:fc:
                    be:28:02:9b:8f:2a:54:9f:ce:c2:c1:1a:5a:b4:a2:
                    2c:20:e3:c4:ce:db:b6:71:1c:7e:b0:0f:29:4c:35:
                    96:cd:de:50:d9:60:66:fd:c7:51:fc:05:c4:4c:95:
                    cc:e4:92:8c:7e:1d:31:a2:79:e5:bd:eb:1d:07:2f:
                    4e:69:88:e4:44:09:e3:1b:bd:54:c7:c1:08:e6:4e:
                    9a:04:67
                Exponent: 65537 (0x10001)
        X509v3 extensions:
            X509v3 Subject Key Identifier: 
                AA:7F:64:CF:26:93:B7:B8:4B:B4:C3:A0:84:11:27:08:24:A7:D0:9D
            X509v3 Authority Key Identifier: 
                AA:7F:64:CF:26:93:B7:B8:4B:B4:C3:A0:84:11:27:08:24:A7:D0:9D
            X509v3 Basic Constraints: 
                CA:TRUE
            X509v3 CRL Distribution Points: 
                Full Name:
                  URI:http://cn-ucsb-1.dataone.org/crl/DataONEProdRootCA_CRL.pem
                Full Name:
                  URI:http://cn-orc-1.dataone.org/crl/DataONEProdRootCA_CRL.pem
    Signature Algorithm: sha256WithRSAEncryption
    Signature Value:
        25:0b:b5:13:31:7e:14:79:27:06:3a:89:1d:3b:cf:18:41:01:
        c7:b1:69:0d:b7:52:5b:39:d1:94:2e:ec:cf:01:40:1b:9b:0e:
        06:82:93:6f:d0:9f:dd:6a:a4:f8:cf:cf:98:7e:3c:12:fa:2a:
        51:be:1d:26:6e:72:a5:6f:c0:06:3b:eb:b9:df:0b:6f:c6:ca:
        7d:64:1b:6b:ac:e6:4a:f3:e7:fb:d0:96:d8:dd:80:8d:8d:39:
        c2:43:72:da:07:e6:f4:d3:3b:4f:99:ea:95:34:09:cd:94:21:
        cb:f9:96:6d:57:6f:37:78:e9:34:0b:18:8f:1a:31:4f:49:42:
        3e:2e:23:54:49:25:58:1f:99:94:b5:69:a9:69:04:7f:08:0f:
        85:bf:d7:4e:a1:e0:49:f8:4e:c9:0a:2a:43:e6:e0:09:f2:68:
        80:c5:95:a9:9e:0a:f8:e8:e9:1b:52:00:3e:c2:a2:d5:89:75:
        98:0e:f7:df:6c:b2:b7:34:d9:94:4b:16:bf:05:9f:82:96:6b:
        73:f4:60:ea:0e:b3:50:97:17:cb:2e:6c:ba:b9:7a:47:b1:86:
        a1:aa:6c:17:ff:f6:24:97:7a:86:bf:13:ac:03:18:b6:a7:4a:
        fc:5b:d1:ce:8b:af:1d:6d:f0:19:b1:7d:81:78:99:e3:c8:c6:
        95:1d:c8:97:a1:9f:48:b6:73:13:38:58:8b:fb:fa:ad:3f:a1:
        4f:3d:d3:be:a5:d2:b9:fd:13:37:d1:1b:ae:0b:4f:cd:83:fa:
        90:c5:ac:14:24:b2:35:5d:6f:9f:46:42:06:6d:dc:db:bf:6d:
        d4:2f:92:61:24:4f:67:71:d6:d3:fc:a1:60:76:b0:5e:17:93:
        70:6b:e6:c8:38:cd:52:c7:cf:a3:c6:ea:c3:68:0e:ad:26:c1:
        d9:f7:83:de:78:4c:c0:8a:f2:34:b3:dc:37:33:8f:f5:b1:61:
        e7:7e:22:74:b3:36:e8:f6:de:32:b8:70:56:13:31:7a:85:a9:
        e1:0e:e9:9c:94:7a:d9:c8:ce:40:c7:41:fd:b0:78:b4:0c:b0:
        51:86:93:ee:8c:2b:67:64:99:df:aa:8d:a0:78:44:ff:a3:79:
        ce:38:4b:f1:b7:3a:de:1b:ab:58:a2:14:c7:31:da:43:f6:2c:
        b4:b1:29:9d:32:91:51:12:0d:fe:6e:d1:58:cf:ca:bc:9e:02:
        68:ba:21:7b:d0:26:7b:65:98:3f:42:2b:0a:ac:4c:19:44:33:
        76:6c:a9:d3:84:9c:ac:52:5f:61:98:cc:8d:9a:aa:7a:cd:66:
        71:f8:fe:24:df:c4:01:4e:5f:f8:6f:7a:39:a3:e9:dc:8a:54:
        00:8f:0f:44:04:f5:9f:57
-----BEGIN CERTIFICATE-----
MIIGDTCCA/WgAwIBAgIUP2BGXU1/vjU90Gz+sj6GyqizXFEwDQYJKoZIhvcNAQEL
BQAwTTETMBEGCgmSJomT8ixkARkWA29yZzEXMBUGCgmSJomT8ixkARkWB2RhdGFv
bmUxHTAbBgNVBAMMFERhdGFPTkUgUHJvZCBSb290IENBMCAXDTI0MDEyMzAwMzk0
NFoYDzIxMjMxMjMwMDAzOTQ0WjBNMRMwEQYKCZImiZPyLGQBGRYDb3JnMRcwFQYK
CZImiZPyLGQBGRYHZGF0YW9uZTEdMBsGA1UEAwwURGF0YU9ORSBQcm9kIFJvb3Qg
Q0EwggIiMA0GCSqGSIb3DQEBAQUAA4ICDwAwggIKAoICAQDAEE/gQ3seKhe0mlXr
xkHwNmFE8Gp2vn1HI6uSYTb46Zk5j1kEYDB3F+4YrMBpadUJ8AVSYY0lL6N+Q8zh
I/a2AGJVPZCCOEZoXHT3V2VZe7+JCp9T1IllEQlo4B/bOdj9lUI2yjnzSjh3J2QW
LbmbttqI/JOtdXSBKRTpBN+1GmAw38OF9yjm7jEbfz6qFCMTGKWTR/DVdzYrIc0+
kqK1PGRW7m/JR4SUb790fJxPsDzihBIIYl53uJ/5wlljJ/ohFV9EcW9+z+2EFKqa
TujhhZJlSdnIP4+tFl/8Tn5lT7mCs2MIT4T8zzPBfPEARCjBJbr0LZap8bZI3INM
QAOcWn5VASrYhfiXzU+vW3GgskOsGGAM6ZgG3jxnD7/VHTjKtj35EXMdM5aOmwTZ
dWsFp1SuNhSS73rT4jb64Qg30Y+dW2zwM/rlfHS17cRtRNdFlzkEw+szlTTVNxpp
PGvo8imDsIAK2HQuUKzaCiTpZRC0pp7KsIpwmn+F/tHlHh6CYhIhdhPx/S4ulv9a
lZPaRF+nhTvIrCqiopZfNv7O9R672Iv4Dr8ZZz7fILc9VwdO/L4oApuPKlSfzsLB
Glq0oiwg48TO27ZxHH6wDylMNZbN3lDZYGb9x1H8BcRMlczkkox+HTGieeW96x0H
L05piORECeMbvVTHwQjmTpoEZwIDAQABo4HiMIHfMB0GA1UdDgQWBBSqf2TPJpO3
uEu0w6CEEScIJKfQnTAfBgNVHSMEGDAWgBSqf2TPJpO3uEu0w6CEEScIJKfQnTAM
BgNVHRMEBTADAQH/MIGOBgNVHR8EgYYwgYMwQKA+oDyGOmh0dHA6Ly9jbi11Y3Ni
LTEuZGF0YW9uZS5vcmcvY3JsL0RhdGFPTkVQcm9kUm9vdENBX0NSTC5wZW0wP6A9
oDuGOWh0dHA6Ly9jbi1vcmMtMS5kYXRhb25lLm9yZy9jcmwvRGF0YU9ORVByb2RS
b290Q0FfQ1JMLnBlbTANBgkqhkiG9w0BAQsFAAOCAgEAJQu1EzF+FHknBjqJHTvP
GEEBx7FpDbdSWznRlC7szwFAG5sOBoKTb9Cf3Wqk+M/PmH48EvoqUb4dJm5ypW/A
Bjvrud8Lb8bKfWQba6zmSvPn+9CW2N2AjY05wkNy2gfm9NM7T5nqlTQJzZQhy/mW
bVdvN3jpNAsYjxoxT0lCPi4jVEklWB+ZlLVpqWkEfwgPhb/XTqHgSfhOyQoqQ+bg
CfJogMWVqZ4K+OjpG1IAPsKi1Yl1mA7332yytzTZlEsWvwWfgpZrc/Rg6g6zUJcX
yy5surl6R7GGoapsF//2JJd6hr8TrAMYtqdK/FvRzouvHW3wGbF9gXiZ48jGlR3I
l6GfSLZzEzhYi/v6rT+hTz3TvqXSuf0TN9EbrgtPzYP6kMWsFCSyNV1vn0ZCBm3c
279t1C+SYSRPZ3HW0/yhYHawXheTcGvmyDjNUsfPo8bqw2gOrSbB2feD3nhMwIry
NLPcNzOP9bFh534idLM26PbeMrhwVhMxeoWp4Q7pnJR62cjOQMdB/bB4tAywUYaT
7owrZ2SZ36qNoHhE/6N5zjhL8bc63hurWKIUxzHaQ/YstLEpnTKRURIN/m7RWM/K
vJ4CaLohe9Ame2WYP0IrCqxMGUQzdmyp04ScrFJfYZjMjZqqes1mcfj+JN/EAU5f
+G96OaPp3IpUAI8PRAT1n1c=
-----END CERTIFICATE-----
Certificate:
    Data:
        Version: 3 (0x2)
        Serial Number:
            3f:60:46:5d:4d:7f:be:35:3d:d0:6c:fe:b2:3e:86:ca:a8:b3:5c:52
        Signature Algorithm: sha256WithRSAEncryption
        Issuer: DC=org, DC=dataone, CN=DataONE Prod Root CA
        Validity
            Not Before: Jan 23 00:57:58 2024 GMT
            Not After : Dec 30 00:57:58 2123 GMT
        Subject: DC=org, DC=dataone, CN=DataONE Production CA
        Subject Public Key Info:
            Public Key Algorithm: rsaEncryption
                Public-Key: (4096 bit)
                Modulus:
                    00:b0:e7:20:a6:6d:ed:34:b4:de:b6:2e:05:57:fd:
                    43:34:fd:90:a0:9f:41:3b:8e:12:71:6f:a4:f5:db:
                    c9:04:1d:22:36:b7:c2:64:0b:53:42:1f:1f:a2:6b:
                    e6:73:2a:ca:82:25:87:be:d9:52:44:f9:9b:04:4d:
                    27:0a:42:12:2f:09:44:f6:07:14:10:72:61:ee:bd:
                    96:6f:a5:ca:4d:29:42:a6:77:c8:8e:b5:ad:a7:46:
                    97:9b:54:5d:98:ec:8f:3d:e8:ca:9f:c3:c9:d6:af:
                    3b:12:72:ce:18:e5:25:e5:55:e8:1f:f0:0a:08:1b:
                    76:16:7b:1c:52:8f:55:98:d4:8c:7a:8e:82:c4:f2:
                    48:fe:3c:7f:e5:a9:5d:0a:68:a1:94:ae:66:21:60:
                    c5:03:9c:b2:47:be:f9:b4:6e:42:db:4b:df:b1:84:
                    b9:d6:7d:d7:c4:7d:c6:20:3d:b4:90:d2:a5:92:8e:
                    f2:da:d9:f8:b2:aa:28:f1:0b:2d:f2:a0:6d:39:f8:
                    6f:c0:4d:bb:37:82:f3:02:db:d9:b0:07:67:1c:34:
                    4f:d9:b0:b1:01:5b:ca:b2:89:47:f9:11:fa:3e:b9:
                    17:99:77:f0:fd:52:85:0f:63:b8:8d:06:47:6d:7a:
                    03:77:9c:87:81:49:5f:54:24:e3:d9:4f:32:3d:bd:
                    58:67:21:07:3f:4b:6e:e1:ff:a7:69:0c:e6:f9:a3:
                    93:f8:2f:af:49:84:77:3d:c6:67:2b:eb:3a:45:74:
                    38:8a:21:32:df:a3:76:3b:c9:33:2c:14:73:14:00:
                    d0:09:04:f5:e0:fd:fe:dc:10:45:9c:b2:1b:0f:9d:
                    ac:04:f5:df:25:b0:ad:6c:27:2b:9c:a6:0c:34:4b:
                    b9:41:8e:ca:1a:85:96:b5:b8:b1:fd:c4:7e:7e:13:
                    cc:47:58:9f:7c:15:cb:05:fc:de:82:24:82:77:51:
                    e1:e7:7f:ca:2f:32:0a:e1:84:d4:2a:97:ce:bf:65:
                    62:f3:fa:87:3a:7c:28:00:1b:3a:85:2b:fe:13:bb:
                    57:cf:4c:73:6a:bd:c8:cb:71:11:97:a5:1d:03:ce:
                    9a:57:c4:49:b8:d8:0a:35:fe:6d:7d:c8:ed:65:19:
                    43:d0:b0:b1:79:ef:08:3c:8e:fd:40:b8:59:91:4a:
                    12:8f:98:d9:c8:c6:73:03:82:9c:5f:f9:29:9b:6f:
                    bb:eb:d6:73:6e:3e:39:fe:57:f6:21:8f:fd:9a:a9:
                    94:df:c9:af:5a:c5:fe:8a:14:5f:7f:60:47:ac:37:
                    62:fa:f0:ca:ee:2c:8b:b0:11:d0:01:0c:7f:85:44:
                    22:bc:7f:15:6b:3e:2a:16:a3:3a:b1:7d:42:1d:ee:
                    63:0d:c3
                Exponent: 65537 (0x10001)
        X509v3 extensions:
            X509v3 Subject Key Identifier: 
                BD:C5:21:FE:16:AF:2F:0E:83:DB:B7:65:FF:18:C5:D6:BD:89:A6:2B
            X509v3 Authority Key Identifier: 
                AA:7F:64:CF:26:93:B7:B8:4B:B4:C3:A0:84:11:27:08:24:A7:D0:9D
            X509v3 Basic Constraints: 
                CA:TRUE
            X509v3 CRL Distribution Points: 
                Full Name:
                  URI:http://cn-ucsb-1.dataone.org/crl/DataONEProdRootCA_CRL.pem
                Full Name:
                  URI:http://cn-orc-1.dataone.org/crl/DataONEProdRootCA_CRL.pem
    Signature Algorithm: sha256WithRSAEncryption
    Signature Value:
        96:3d:a4:81:27:c9:ed:8b:cb:82:1f:6e:e2:7b:5a:22:94:e9:
        95:1d:00:fa:a8:2b:03:d6:5c:43:5f:8b:d5:4c:d4:ab:4f:b8:
        9d:38:5d:38:90:13:0e:99:f7:72:f1:7b:fb:54:88:a9:3c:62:
        60:57:35:d4:13:84:62:7d:0b:07:44:8a:89:b5:d5:2e:e1:25:
        07:6d:b6:23:cb:76:5b:bf:21:45:db:f6:a4:d7:c7:86:81:a8:
        f9:78:28:a9:3d:94:1b:d0:05:03:e7:df:92:f5:18:84:5e:3a:
        54:38:78:46:e3:cd:8e:11:c1:e1:87:ce:f7:44:d8:28:c8:05:
        49:12:f1:89:f3:29:b9:20:ae:91:10:44:c2:14:7d:99:5f:16:
        1e:e8:99:e2:4d:b1:5e:29:5e:16:a2:95:0e:cb:49:a9:97:46:
        c3:27:7d:53:df:03:b2:83:27:42:c0:f7:9f:58:79:ce:80:36:
        98:e1:88:bf:9d:11:83:00:57:37:c1:39:7f:f4:52:43:fd:cb:
        cf:9d:d5:f8:76:c4:1a:dc:58:00:be:d7:3f:f7:5d:b4:1a:11:
        a4:0a:ae:54:0e:81:2e:30:ed:10:3e:cd:a6:41:69:38:9c:b7:
        d9:d3:05:f6:c7:00:30:e0:0f:ce:c4:c5:28:ee:43:93:70:e0:
        1e:af:22:6b:e0:f7:66:0b:7d:db:6f:f6:4b:f2:d1:f9:7f:e4:
        82:18:7f:14:50:52:f5:ac:a7:b2:63:a7:d3:96:68:2d:10:06:
        a7:d9:70:79:76:70:d9:0f:cc:d6:7a:cd:40:83:56:0b:12:80:
        eb:0f:e3:db:bc:1e:1d:e9:00:6b:a3:75:cc:0f:80:e6:16:2e:
        2b:cc:2a:44:15:13:4a:1f:92:d5:08:bb:31:53:f8:8b:05:22:
        6f:e9:22:35:41:b1:99:a9:a7:cc:f4:9b:fc:ed:7f:ca:54:e0:
        91:9d:f9:36:fa:68:ff:79:9f:3a:05:10:47:d9:dc:7d:61:01:
        b9:6d:ec:17:4d:dc:ec:dd:05:40:46:1f:0e:c7:b3:1d:70:ef:
        a8:ce:2e:6d:62:4e:45:a6:f6:14:25:84:ec:9b:82:8b:10:03:
        38:c6:fd:d4:92:d9:c1:26:bd:ff:19:35:79:ab:30:62:11:02:
        eb:e9:54:51:d4:7e:6d:df:a1:9f:78:35:4f:5f:5f:5c:a1:6f:
        4d:9d:ca:06:10:34:6d:1d:32:12:b3:42:d1:6e:1a:ff:de:00:
        53:38:c0:ec:18:91:b9:b8:29:2f:eb:8e:2a:3c:8e:9e:97:ea:
        92:e3:dc:4e:d6:d0:b5:45:19:49:12:48:91:16:21:d8:91:a1:
        b0:07:45:bb:90:c6:5e:84
-----BEGIN CERTIFICATE-----
MIIGDjCCA/agAwIBAgIUP2BGXU1/vjU90Gz+sj6GyqizXFIwDQYJKoZIhvcNAQEL
BQAwTTETMBEGCgmSJomT8ixkARkWA29yZzEXMBUGCgmSJomT8ixkARkWB2RhdGFv
bmUxHTAbBgNVBAMMFERhdGFPTkUgUHJvZCBSb290IENBMCAXDTI0MDEyMzAwNTc1
OFoYDzIxMjMxMjMwMDA1NzU4WjBOMRMwEQYKCZImiZPyLGQBGRYDb3JnMRcwFQYK
CZImiZPyLGQBGRYHZGF0YW9uZTEeMBwGA1UEAwwVRGF0YU9ORSBQcm9kdWN0aW9u
IENBMIICIjANBgkqhkiG9w0BAQEFAAOCAg8AMIICCgKCAgEAsOcgpm3tNLTeti4F
V/1DNP2QoJ9BO44ScW+k9dvJBB0iNrfCZAtTQh8fomvmcyrKgiWHvtlSRPmbBE0n
CkISLwlE9gcUEHJh7r2Wb6XKTSlCpnfIjrWtp0aXm1RdmOyPPejKn8PJ1q87EnLO
GOUl5VXoH/AKCBt2FnscUo9VmNSMeo6CxPJI/jx/5aldCmihlK5mIWDFA5yyR775
tG5C20vfsYS51n3XxH3GID20kNKlko7y2tn4sqoo8Qst8qBtOfhvwE27N4LzAtvZ
sAdnHDRP2bCxAVvKsolH+RH6PrkXmXfw/VKFD2O4jQZHbXoDd5yHgUlfVCTj2U8y
Pb1YZyEHP0tu4f+naQzm+aOT+C+vSYR3PcZnK+s6RXQ4iiEy36N2O8kzLBRzFADQ
CQT14P3+3BBFnLIbD52sBPXfJbCtbCcrnKYMNEu5QY7KGoWWtbix/cR+fhPMR1if
fBXLBfzegiSCd1Hh53/KLzIK4YTUKpfOv2Vi8/qHOnwoABs6hSv+E7tXz0xzar3I
y3ERl6UdA86aV8RJuNgKNf5tfcjtZRlD0LCxee8IPI79QLhZkUoSj5jZyMZzA4Kc
X/kpm2+769Zzbj45/lf2IY/9mqmU38mvWsX+ihRff2BHrDdi+vDK7iyLsBHQAQx/
hUQivH8Vaz4qFqM6sX1CHe5jDcMCAwEAAaOB4jCB3zAdBgNVHQ4EFgQUvcUh/hav
Lw6D27dl/xjF1r2JpiswHwYDVR0jBBgwFoAUqn9kzyaTt7hLtMOghBEnCCSn0J0w
DAYDVR0TBAUwAwEB/zCBjgYDVR0fBIGGMIGDMECgPqA8hjpodHRwOi8vY24tdWNz
Yi0xLmRhdGFvbmUub3JnL2NybC9EYXRhT05FUHJvZFJvb3RDQV9DUkwucGVtMD+g
PaA7hjlodHRwOi8vY24tb3JjLTEuZGF0YW9uZS5vcmcvY3JsL0RhdGFPTkVQcm9k
Um9vdENBX0NSTC5wZW0wDQYJKoZIhvcNAQELBQADggIBAJY9pIEnye2Ly4IfbuJ7
WiKU6ZUdAPqoKwPWXENfi9VM1KtPuJ04XTiQEw6Z93Lxe/tUiKk8YmBXNdQThGJ9
CwdEiom11S7hJQdttiPLdlu/IUXb9qTXx4aBqPl4KKk9lBvQBQPn35L1GIReOlQ4
eEbjzY4RweGHzvdE2CjIBUkS8YnzKbkgrpEQRMIUfZlfFh7omeJNsV4pXhailQ7L
SamXRsMnfVPfA7KDJ0LA959Yec6ANpjhiL+dEYMAVzfBOX/0UkP9y8+d1fh2xBrc
WAC+1z/3XbQaEaQKrlQOgS4w7RA+zaZBaTict9nTBfbHADDgD87ExSjuQ5Nw4B6v
Imvg92YLfdtv9kvy0fl/5IIYfxRQUvWsp7Jjp9OWaC0QBqfZcHl2cNkPzNZ6zUCD
VgsSgOsP49u8Hh3pAGujdcwPgOYWLivMKkQVE0ofktUIuzFT+IsFIm/pIjVBsZmp
p8z0m/ztf8pU4JGd+Tb6aP95nzoFEEfZ3H1hAblt7BdN3OzdBUBGHw7Hsx1w76jO
Lm1iTkWm9hQlhOybgosQAzjG/dSS2cEmvf8ZNXmrMGIRAuvpVFHUfm3foZ94NU9f
X1yhb02dygYQNG0dMhKzQtFuGv/eAFM4wOwYkbm4KS/rjio8jp6X6pLj3E7W0LVF
GUkSSJEWIdiRobAHRbuQxl6E
-----END CERTIFICATE-----
