Certificate:
    Data:
        Version: 3 (0x2)
        Serial Number:
            da:32:63:a2:a1:2d:00:12
        Signature Algorithm: sha1WithRSAEncryption
        Issuer: dc=org/dc=dataone, CN=DataONE Test CA
        Validity
            Not Before: Mar 10 01:28:11 2012 GMT
            Not After : Mar 10 01:28:11 2015 GMT
        Subject: dc=org/dc=dataone, CN=urn:node:DEMO2
        Subject Public Key Info:
            Public Key Algorithm: rsaEncryption
                Public-Key: (2048 bit)
                Modulus:
                    00:b1:00:29:e0:07:de:6a:3f:7a:36:e1:dc:f8:3d:
                    37:54:2a:34:f9:d5:49:07:96:c6:e0:72:9f:82:1a:
                    fe:d0:ae:73:29:17:c7:5f:0b:20:03:bb:20:c6:7b:
                    bc:81:5d:b4:87:35:c9:04:48:0c:38:97:78:e3:03:
                    b2:23:20:4a:90:00:a7:a7:4c:8e:7c:f4:4f:f9:60:
                    26:db:4d:ca:4e:11:9d:7b:93:81:4a:ad:6b:c1:1e:
                    23:7b:8f:14:83:c0:fb:2b:9c:13:e2:4d:af:5a:16:
                    d8:16:6c:04:ae:5d:b6:4c:11:ca:9a:e0:dc:dd:e1:
                    6d:9f:c9:a6:7c:44:19:27:73:50:e1:7d:42:e7:57:
                    7f:83:72:16:00:31:a1:a6:ae:06:50:35:31:9f:e0:
                    d4:6a:a8:94:e5:aa:65:8a:24:53:06:ed:81:6e:9a:
                    68:3f:8f:68:15:2c:69:28:d4:d3:b9:d6:be:96:f1:
                    21:12:59:4a:a3:b3:7d:d1:7e:95:cf:32:54:7e:e2:
                    d3:a7:e0:58:be:9b:62:5f:19:14:4c:46:ef:31:09:
                    6b:62:8c:f3:8f:8b:ca:b4:30:83:cf:2d:d4:49:d3:
                    0b:11:b7:36:d4:f0:97:1f:6e:b2:51:c0:d2:a0:c2:
                    49:de:9d:96:a4:28:95:8e:62:fd:f1:6f:59:20:c3:
                    83:7b
                Exponent: 65537 (0x10001)
        X509v3 extensions:
            X509v3 Basic Constraints: 
                CA:FALSE
            Netscape Comment: 
                OpenSSL Generated Certificate
            X509v3 Subject Key Identifier: 
                69:6F:8C:FA:DC:0B:46:D1:9C:0F:D3:22:8F:A4:6F:B8:BA:2B:F1:33
            X509v3 Authority Key Identifier: 
                keyid:9E:8B:82:0D:E5:97:34:40:F4:CB:7E:5A:0C:3B:CA:91:FD:5A:31:73

            X509v3 CRL Distribution Points: 

                Full Name:
                  URI:http://cn-ucsb-1.dataone.org/crl/DataONETest_CRL.pem

                Full Name:
                  URI:http://cn-unm-1.dataone.org/crl/DataONETest_CRL.pem

                Full Name:
                  URI:http://cn-orc-1.dataone.org/crl/DataONETest_CRL.pem

    Signature Algorithm: sha1WithRSAEncryption
        93:22:97:0c:5e:0d:5e:5c:b8:cc:b5:e5:23:f3:d5:6f:70:6d:
        c1:90:5b:7a:37:74:84:6c:2f:62:93:dc:f2:1b:16:bb:d7:cf:
        59:14:2b:9b:ea:cc:87:57:16:42:ae:d1:52:c8:25:57:f7:03:
        e6:38:30:94:1d:11:44:7b:a7:10:3e:bb:89:18:37:8c:02:a8:
        2f:b6:b0:75:ec:36:41:8b:b9:86:e6:7a:65:ee:85:50:59:26:
        9b:c1:8f:9c:54:51:ec:9e:fd:32:37:9d:01:5c:1b:31:75:de:
        d0:53:36:76:22:80:53:da:93:49:55:d4:68:bf:ba:28:50:a4:
        78:c5:4b:aa:71:a1:63:75:31:b3:95:70:98:f6:ae:34:e5:06:
        42:ae:3b:1a:e1:d5:63:b6:8c:cc:9c:8c:c5:58:46:80:7f:c5:
        e7:11:e3:64:2f:f5:58:e0:d4:b1:2f:bc:76:13:7f:04:07:50:
        64:91:71:84:f5:d4:49:24:55:aa:93:bd:96:c0:8a:56:a7:01:
        2e:4a:9c:de:84:6c:d4:6b:e3:b2:db:5a:87:af:e7:25:0f:63:
        57:81:c5:be:97:c3:f8:ed:ae:dc:78:38:f8:bb:33:21:ad:c8:
        8d:34:70:3e:db:fd:f0:76:0b:16:78:0f:56:77:b3:97:67:03:
        c8:66:77:39:b0:ba:fb:17:d8:f5:7f:f2:8b:57:e6:f4:a7:69:
        45:b3:b4:a5:f6:e5:cf:c2:27:51:74:2f:7b:58:35:87:5f:b1:
        82:65:39:15:90:00:d8:47:6d:b9:ed:a7:9b:22:23:1b:5e:a4:
        74:17:e9:f0:17:a2:4f:2c:79:02:d9:57:a1:1c:3a:01:38:62:
        17:d1:ff:55:27:c1:a9:4d:c2:45:50:54:a9:37:1f:c0:e1:4a:
        e3:87:ad:99:e7:19:48:ee:13:a9:85:f4:06:65:83:6f:73:b1:
        1e:ac:5e:5b:df:f5:1c:b0:97:bb:aa:44:c7:a9:77:8d:d0:6a:
        6b:0e:d5:ec:ca:2e:45:e6:01:f0:7e:3a:c8:fa:6f:09:89:75:
        27:98:4c:88:c9:c6:41:09:de:30:dc:da:61:54:e7:e5:60:eb:
        ce:04:61:25:9e:1d:b9:1c:59:9b:52:54:e8:5b:5e:6b:f7:0e:
        02:e1:e3:bf:5a:72:be:98:66:44:4f:48:f0:8f:5d:bc:97:c8:
        69:16:2f:cb:4f:fc:e5:7b:30:5e:d4:eb:35:68:ac:3a:98:ba:
        4f:68:5d:15:4a:06:a9:98:3c:3d:3e:9e:68:b0:5b:b2:21:9c:
        1c:5d:97:f7:e5:c3:9a:2e:9c:4a:39:26:7c:b6:57:33:c0:cd:
        17:ca:d0:b0:3d:1e:43:08
-----BEGIN CERTIFICATE-----
MIIFUTCCAzmgAwIBAgIJANoyY6KhLQASMA0GCSqGSIb3DQEBBQUAMEgxEzARBgoJ
kiaJk/IsZAEZFgNvcmcxFzAVBgoJkiaJk/IsZAEZFgdkYXRhb25lMRgwFgYDVQQD
DA9EYXRhT05FIFRlc3QgQ0EwHhcNMTIwMzEwMDEyODExWhcNMTUwMzEwMDEyODEx
WjBHMRMwEQYKCZImiZPyLGQBGRYDb3JnMRcwFQYKCZImiZPyLGQBGRYHZGF0YW9u
ZTEXMBUGA1UEAwwOdXJuOm5vZGU6REVNTzIwggEiMA0GCSqGSIb3DQEBAQUAA4IB
DwAwggEKAoIBAQCxACngB95qP3o24dz4PTdUKjT51UkHlsbgcp+CGv7QrnMpF8df
CyADuyDGe7yBXbSHNckESAw4l3jjA7IjIEqQAKenTI589E/5YCbbTcpOEZ17k4FK
rWvBHiN7jxSDwPsrnBPiTa9aFtgWbASuXbZMEcqa4Nzd4W2fyaZ8RBknc1DhfULn
V3+DchYAMaGmrgZQNTGf4NRqqJTlqmWKJFMG7YFummg/j2gVLGko1NO51r6W8SES
WUqjs33RfpXPMlR+4tOn4Fi+m2JfGRRMRu8xCWtijPOPi8q0MIPPLdRJ0wsRtzbU
8JcfbrJRwNKgwknenZakKJWOYv3xb1kgw4N7AgMBAAGjggE9MIIBOTAJBgNVHRME
AjAAMCwGCWCGSAGG+EIBDQQfFh1PcGVuU1NMIEdlbmVyYXRlZCBDZXJ0aWZpY2F0
ZTAdBgNVHQ4EFgQUaW+M+twLRtGcD9Mij6RvuLor8TMwHwYDVR0jBBgwFoAUnouC
DeWXNED0y35aDDvKkf1aMXMwgb0GA1UdHwSBtTCBsjA6oDigNoY0aHR0cDovL2Nu
LXVjc2ItMS5kYXRhb25lLm9yZy9jcmwvRGF0YU9ORVRlc3RfQ1JMLnBlbTA5oDeg
NYYzaHR0cDovL2NuLXVubS0xLmRhdGFvbmUub3JnL2NybC9EYXRhT05FVGVzdF9D
UkwucGVtMDmgN6A1hjNodHRwOi8vY24tb3JjLTEuZGF0YW9uZS5vcmcvY3JsL0Rh
dGFPTkVUZXN0X0NSTC5wZW0wDQYJKoZIhvcNAQEFBQADggIBAJMilwxeDV5cuMy1
5SPz1W9wbcGQW3o3dIRsL2KT3PIbFrvXz1kUK5vqzIdXFkKu0VLIJVf3A+Y4MJQd
EUR7pxA+u4kYN4wCqC+2sHXsNkGLuYbmemXuhVBZJpvBj5xUUeye/TI3nQFcGzF1
3tBTNnYigFPak0lV1Gi/uihQpHjFS6pxoWN1MbOVcJj2rjTlBkKuOxrh1WO2jMyc
jMVYRoB/xecR42Qv9Vjg1LEvvHYTfwQHUGSRcYT11EkkVaqTvZbAilanAS5KnN6E
bNRr47LbWoev5yUPY1eBxb6Xw/jtrtx4OPi7MyGtyI00cD7b/fB2CxZ4D1Z3s5dn
A8hmdzmwuvsX2PV/8otX5vSnaUWztKX25c/CJ1F0L3tYNYdfsYJlORWQANhHbbnt
p5siIxtepHQX6fAXok8seQLZV6EcOgE4YhfR/1UnwalNwkVQVKk3H8DhSuOHrZnn
GUjuE6mF9AZlg29zsR6sXlvf9Rywl7uqRMepd43QamsO1ezKLkXmAfB+Osj6bwmJ
dSeYTIjJxkEJ3jDc2mFU5+Vg684EYSWeHbkcWZtSVOhbXmv3DgLh479acr6YZkRP
SPCPXbyXyGkWL8tP/OV7MF7U6zVorDqYuk9oXRVKBqmYPD0+nmiwW7IhnBxdl/fl
w5ounEo5Jny2VzPAzRfK0LA9HkMI
-----END CERTIFICATE-----
