Certificate:
    Data:
        Version: 3 (0x2)
        Serial Number:
            da:32:63:a2:a1:2d:00:26
        Signature Algorithm: sha1WithRSAEncryption
        Issuer: dc=org/dc=dataone, CN=DataONE Test CA
        Validity
            Not Before: Apr 11 00:15:54 2012 GMT
            Not After : Apr 11 00:15:54 2015 GMT
        Subject: dc=org/dc=dataone, CN=urn:node:mnSandboxUCSB1
        Subject Public Key Info:
            Public Key Algorithm: rsaEncryption
                Public-Key: (2048 bit)
                Modulus:
                    00:b0:2e:ba:16:52:c4:f3:df:e0:f4:ed:75:b6:bb:
                    4a:6d:67:7d:1d:5d:b0:4c:fd:f6:0e:53:36:8a:92:
                    66:b7:5b:48:b0:49:d0:0d:1e:73:e2:4c:89:1e:d8:
                    e4:36:9c:ac:6e:10:8a:02:1c:f8:5e:b5:56:22:ff:
                    ce:fb:d2:fd:fa:1a:7f:28:9b:05:be:75:2a:29:f6:
                    c2:42:7d:08:d6:40:18:cc:f2:71:67:2f:13:f7:f2:
                    a4:56:35:74:1c:73:0a:ae:31:6c:80:04:20:38:0b:
                    20:8f:2d:c8:2b:1a:43:b1:ec:34:c1:b5:21:c5:84:
                    c1:52:dc:33:bc:39:de:99:9f:25:bc:e2:7a:de:b6:
                    82:21:bf:76:de:81:22:42:e2:cc:af:d8:69:64:fd:
                    9b:d2:69:1e:5d:19:c0:98:af:e8:ed:28:48:c9:9b:
                    43:81:df:8c:5b:56:d1:aa:62:30:7d:d9:0d:c0:00:
                    e5:02:a8:ee:e2:19:62:d8:33:bc:d7:23:87:4a:67:
                    92:9a:16:ec:21:67:ae:94:ea:4b:c9:cb:a8:40:e5:
                    f7:7d:00:6f:53:7c:06:86:f5:4d:27:34:af:89:de:
                    b1:c8:da:19:12:2b:e2:bc:13:df:e0:3d:71:52:4f:
                    41:aa:cc:b8:b8:62:4c:38:64:e3:0d:40:bb:ce:24:
                    68:1d
                Exponent: 65537 (0x10001)
        X509v3 extensions:
            X509v3 Basic Constraints: 
                CA:FALSE
            Netscape Comment: 
                OpenSSL Generated Certificate
            X509v3 Subject Key Identifier: 
                54:75:81:DD:65:73:85:07:38:C3:4D:C2:40:95:1A:1D:87:67:34:B3
            X509v3 Authority Key Identifier: 
                keyid:9E:8B:82:0D:E5:97:34:40:F4:CB:7E:5A:0C:3B:CA:91:FD:5A:31:73

            X509v3 CRL Distribution Points: 

                Full Name:
                  URI:http://cn-ucsb-1.dataone.org/crl/DataONETest_CRL.pem

                Full Name:
                  URI:http://cn-unm-1.dataone.org/crl/DataONETest_CRL.pem

                Full Name:
                  URI:http://cn-orc-1.dataone.org/crl/DataONETest_CRL.pem

    Signature Algorithm: sha1WithRSAEncryption
        a3:85:6c:0c:a8:ff:f9:89:fc:53:37:a3:60:cb:5a:7c:6a:c8:
        f7:2c:19:cb:a0:99:9b:4f:35:fc:6f:c3:85:0e:5c:8b:c9:8b:
        fa:4e:80:f9:06:da:47:a0:2b:ce:95:bc:68:d6:20:b4:9d:65:
        6d:f7:ec:04:b9:23:ec:a8:f0:df:25:ad:0d:0a:c9:5e:33:5a:
        9b:46:bd:e5:99:d7:46:28:71:05:45:95:75:4f:73:bb:df:29:
        dc:29:b4:6f:6e:e6:c0:14:ba:12:ad:ed:be:72:25:90:ff:4f:
        9b:6c:02:cc:d0:3b:ca:7e:2d:93:1e:c5:a2:27:a4:25:19:f6:
        f7:dd:9f:94:50:83:fe:89:da:ae:bb:5c:51:ce:21:13:70:da:
        85:25:3e:5d:1b:93:95:a4:c9:9b:c0:1a:6b:8b:8e:15:e5:40:
        df:0a:95:c7:31:a1:4f:56:90:8f:6e:2a:5b:41:d1:32:0c:c2:
        3a:d4:aa:fa:6d:0c:90:be:d4:f7:66:73:0d:31:7c:d6:03:45:
        73:5e:14:e6:39:36:ab:d6:7c:bb:c2:5c:44:d7:92:30:d0:d3:
        b7:e7:70:5e:ee:d0:6e:99:47:ed:22:30:2d:7b:53:d9:1c:34:
        56:f6:b6:a8:a8:66:46:66:61:45:b5:ed:57:ae:1b:3b:f6:e8:
        62:96:e7:f9:57:0b:70:66:0b:cb:46:3b:03:e5:4b:e8:34:98:
        c8:1b:77:1c:64:ae:73:87:45:9c:d1:c2:51:cc:a1:b3:78:41:
        3f:5d:ab:45:4b:46:4e:40:57:4f:2e:2a:b1:a1:4f:26:74:99:
        a6:12:0d:84:70:0e:17:b7:79:12:d3:e4:59:af:7e:2e:ae:3d:
        89:90:ad:54:12:09:1b:94:4e:c0:ea:3d:e2:4f:7c:42:ba:73:
        da:30:9a:22:c0:0a:fc:1e:c2:c3:4d:b8:4c:68:76:d2:3d:49:
        16:ad:7f:bd:5f:b1:b5:5f:11:47:f2:9b:fe:88:ac:d0:25:e1:
        40:aa:d1:f8:94:3b:c3:34:ef:ef:32:10:c5:b6:7b:cf:6a:93:
        ba:0a:ca:e0:8d:67:f5:61:b2:39:b5:78:1e:70:dd:83:95:57:
        47:f1:53:d8:17:49:07:ae:b3:06:21:f3:e2:44:1c:6f:cf:36:
        46:2d:ee:93:58:e9:95:b7:50:c8:48:3c:99:b9:0c:08:4d:3a:
        0d:1f:61:59:47:0c:e1:6a:7e:66:e0:f1:83:e9:d4:01:56:19:
        50:b1:86:e6:90:68:5e:eb:eb:1f:97:66:83:41:49:67:8e:a6:
        5d:79:e0:43:2f:60:3b:17:54:71:ab:e6:14:9b:3b:59:b5:e5:
        bf:b4:91:f8:1b:4b:b9:51
-----BEGIN CERTIFICATE-----
MIIFWjCCA0KgAwIBAgIJANoyY6KhLQAmMA0GCSqGSIb3DQEBBQUAMEgxEzARBgoJ
kiaJk/IsZAEZFgNvcmcxFzAVBgoJkiaJk/IsZAEZFgdkYXRhb25lMRgwFgYDVQQD
DA9EYXRhT05FIFRlc3QgQ0EwHhcNMTIwNDExMDAxNTU0WhcNMTUwNDExMDAxNTU0
WjBQMRMwEQYKCZImiZPyLGQBGRYDb3JnMRcwFQYKCZImiZPyLGQBGRYHZGF0YW9u
ZTEgMB4GA1UEAwwXdXJuOm5vZGU6bW5TYW5kYm94VUNTQjEwggEiMA0GCSqGSIb3
DQEBAQUAA4IBDwAwggEKAoIBAQCwLroWUsTz3+D07XW2u0ptZ30dXbBM/fYOUzaK
kma3W0iwSdANHnPiTIke2OQ2nKxuEIoCHPhetVYi/8770v36Gn8omwW+dSop9sJC
fQjWQBjM8nFnLxP38qRWNXQccwquMWyABCA4CyCPLcgrGkOx7DTBtSHFhMFS3DO8
Od6ZnyW84nretoIhv3begSJC4syv2Glk/ZvSaR5dGcCYr+jtKEjJm0OB34xbVtGq
YjB92Q3AAOUCqO7iGWLYM7zXI4dKZ5KaFuwhZ66U6kvJy6hA5fd9AG9TfAaG9U0n
NK+J3rHI2hkSK+K8E9/gPXFST0GqzLi4Ykw4ZOMNQLvOJGgdAgMBAAGjggE9MIIB
OTAJBgNVHRMEAjAAMCwGCWCGSAGG+EIBDQQfFh1PcGVuU1NMIEdlbmVyYXRlZCBD
ZXJ0aWZpY2F0ZTAdBgNVHQ4EFgQUVHWB3WVzhQc4w03CQJUaHYdnNLMwHwYDVR0j
BBgwFoAUnouCDeWXNED0y35aDDvKkf1aMXMwgb0GA1UdHwSBtTCBsjA6oDigNoY0
aHR0cDovL2NuLXVjc2ItMS5kYXRhb25lLm9yZy9jcmwvRGF0YU9ORVRlc3RfQ1JM
LnBlbTA5oDegNYYzaHR0cDovL2NuLXVubS0xLmRhdGFvbmUub3JnL2NybC9EYXRh
T05FVGVzdF9DUkwucGVtMDmgN6A1hjNodHRwOi8vY24tb3JjLTEuZGF0YW9uZS5v
cmcvY3JsL0RhdGFPTkVUZXN0X0NSTC5wZW0wDQYJKoZIhvcNAQEFBQADggIBAKOF
bAyo//mJ/FM3o2DLWnxqyPcsGcugmZtPNfxvw4UOXIvJi/pOgPkG2kegK86VvGjW
ILSdZW337AS5I+yo8N8lrQ0KyV4zWptGveWZ10YocQVFlXVPc7vfKdwptG9u5sAU
uhKt7b5yJZD/T5tsAszQO8p+LZMexaInpCUZ9vfdn5RQg/6J2q67XFHOIRNw2oUl
Pl0bk5WkyZvAGmuLjhXlQN8KlccxoU9WkI9uKltB0TIMwjrUqvptDJC+1Pdmcw0x
fNYDRXNeFOY5NqvWfLvCXETXkjDQ07fncF7u0G6ZR+0iMC17U9kcNFb2tqioZkZm
YUW17VeuGzv26GKW5/lXC3BmC8tGOwPlS+g0mMgbdxxkrnOHRZzRwlHMobN4QT9d
q0VLRk5AV08uKrGhTyZ0maYSDYRwDhe3eRLT5Fmvfi6uPYmQrVQSCRuUTsDqPeJP
fEK6c9owmiLACvwewsNNuExodtI9SRatf71fsbVfEUfym/6IrNAl4UCq0fiUO8M0
7+8yEMW2e89qk7oKyuCNZ/Vhsjm1eB5w3YOVV0fxU9gXSQeuswYh8+JEHG/PNkYt
7pNY6ZW3UMhIPJm5DAhNOg0fYVlHDOFqfmbg8YPp1AFWGVCxhuaQaF7r6x+XZoNB
SWeOpl154EMvYDsXVHGr5hSbO1m15b+0kfgbS7lR
-----END CERTIFICATE-----
