Certificate:
    Data:
        Version: 3 (0x2)
        Serial Number:
            da:32:63:a2:a1:2d:00:14
        Signature Algorithm: sha1WithRSAEncryption
        Issuer: dc=org/dc=dataone, CN=DataONE Test CA
        Validity
            Not Before: Mar 10 01:28:30 2012 GMT
            Not After : Mar 10 01:28:30 2015 GMT
        Subject: dc=org/dc=dataone, CN=urn:node:DEMO4
        Subject Public Key Info:
            Public Key Algorithm: rsaEncryption
                Public-Key: (2048 bit)
                Modulus:
                    00:a2:99:ae:d9:83:60:b1:3a:5a:70:c6:51:72:75:
                    d9:9d:50:0e:dc:0e:6c:48:f4:15:22:44:7c:55:89:
                    07:f5:8e:03:a2:17:dc:5f:15:ca:6a:7c:5e:ec:c1:
                    f1:f2:10:bb:e2:a6:ae:53:22:aa:30:41:9a:f0:9c:
                    90:fd:4f:40:16:b1:10:b0:9c:24:59:80:ef:50:c7:
                    3e:b6:bc:70:eb:5f:16:5d:41:a1:8f:24:66:37:3d:
                    40:03:6e:b8:74:7a:14:e8:dc:73:29:be:05:84:4f:
                    57:1d:4f:23:b4:b8:6a:bf:da:8d:aa:ea:99:c0:c8:
                    0e:79:b6:9b:2a:25:57:93:9b:2c:a4:42:9f:0f:34:
                    b2:1a:ac:11:1c:c1:ce:ea:a0:6c:76:42:cd:8a:67:
                    89:eb:5d:b4:47:0c:ac:40:39:dc:10:ee:e5:34:f7:
                    03:91:8c:c4:63:a1:2b:40:ed:49:c2:5b:71:f4:2f:
                    b5:f2:14:09:06:0b:9e:55:9e:be:2a:2f:89:56:88:
                    6f:48:40:74:d1:2b:10:37:e7:0a:3e:6d:d5:26:1b:
                    dd:4b:a7:36:e6:20:99:8b:d5:60:2b:b7:64:44:7e:
                    1f:bb:33:37:4b:fb:84:7f:1c:7b:fe:b9:b2:a9:21:
                    f6:fc:78:00:c1:5f:69:48:43:53:e6:17:af:e4:22:
                    f1:d7
                Exponent: 65537 (0x10001)
        X509v3 extensions:
            X509v3 Basic Constraints: 
                CA:FALSE
            Netscape Comment: 
                OpenSSL Generated Certificate
            X509v3 Subject Key Identifier: 
                E6:C3:51:7C:83:1B:0C:DE:6C:AF:DC:11:DD:53:79:B2:54:E3:74:CB
            X509v3 Authority Key Identifier: 
                keyid:9E:8B:82:0D:E5:97:34:40:F4:CB:7E:5A:0C:3B:CA:91:FD:5A:31:73

            X509v3 CRL Distribution Points: 

                Full Name:
                  URI:http://cn-ucsb-1.dataone.org/crl/DataONETest_CRL.pem

                Full Name:
                  URI:http://cn-unm-1.dataone.org/crl/DataONETest_CRL.pem

                Full Name:
                  URI:http://cn-orc-1.dataone.org/crl/DataONETest_CRL.pem

    Signature Algorithm: sha1WithRSAEncryption
        97:81:d7:c2:c3:f4:36:c1:26:93:26:d4:38:30:83:58:95:7f:
        3a:5d:ad:a6:3f:a6:1a:c6:8c:2c:57:bf:65:6b:bd:9e:ee:d3:
        ce:f5:3c:55:ad:9a:c2:8c:4f:30:2a:ee:4d:a7:85:f2:90:1c:
        91:ff:2c:fe:02:2f:23:4e:33:e4:c6:72:6b:00:4b:ca:dc:1f:
        76:48:82:ce:1a:b4:df:1d:de:4f:66:20:da:cc:49:1f:4c:d0:
        fc:4b:af:68:58:17:5c:eb:1a:04:1d:4d:17:0d:4c:25:da:bb:
        de:84:e6:1c:c3:93:b6:fe:72:2d:57:28:03:47:54:2a:82:98:
        9a:8f:d2:07:69:af:10:4a:97:4d:ee:78:e5:06:95:cb:59:0b:
        b8:41:13:d3:32:a8:d2:05:2b:01:47:63:14:32:6b:27:5f:1f:
        72:8b:be:80:8d:d6:c2:35:78:98:2e:db:a1:4a:a0:5b:25:ad:
        1a:8f:74:3d:0d:7a:cb:48:4a:e4:12:06:a2:02:7c:67:5a:0e:
        6b:54:1d:08:c1:c1:40:1a:55:a0:4b:d0:36:87:48:1d:25:3b:
        2f:ee:b1:97:13:8e:de:43:7b:b6:a7:07:82:54:0c:29:47:6b:
        ca:6f:a9:d2:8d:e1:d5:1c:88:dc:95:39:41:ea:66:13:48:2d:
        e7:b9:4e:f8:8b:40:94:ef:e1:b9:3d:1a:58:2a:41:39:1e:90:
        44:ff:ae:44:c0:c1:06:46:6c:c6:a2:fc:06:2b:04:dc:8c:2c:
        8c:4a:af:94:ad:34:b3:95:98:14:ef:97:d5:f8:6f:52:9d:19:
        26:ff:72:6a:97:a7:9c:3b:8f:1b:de:b0:8c:7a:5e:6c:ff:46:
        d2:bc:1e:47:52:ad:93:a5:69:7f:67:49:55:a9:f4:80:d4:33:
        2b:a3:51:71:eb:81:8b:02:51:c0:4a:0b:be:c6:34:fe:21:8b:
        3d:21:78:f9:08:6c:e2:44:ed:ed:53:1f:d2:4d:c2:e7:a4:f3:
        82:85:0d:ba:dc:d4:e3:85:95:25:70:97:58:1c:c1:13:f7:2f:
        7f:af:99:09:bf:32:03:55:57:c3:1c:e2:4c:55:b8:f8:ea:a0:
        3e:e5:e1:9c:08:55:0f:c3:8b:63:73:1f:7c:99:ca:ec:cc:91:
        16:57:9f:74:24:ce:9c:b9:4e:8b:9a:6b:db:c6:f1:68:6c:f3:
        01:59:30:30:9c:30:46:95:cb:6d:9c:e7:77:8d:e5:4d:0c:d9:
        bb:50:55:e7:9a:ef:84:c7:07:48:19:9e:5a:d9:88:af:bb:cd:
        d9:77:3f:51:26:ba:27:12:17:34:43:c4:6d:ba:bd:c0:3f:46:
        8a:b3:04:de:66:17:a7:96
-----BEGIN CERTIFICATE-----
MIIFUTCCAzmgAwIBAgIJANoyY6KhLQAUMA0GCSqGSIb3DQEBBQUAMEgxEzARBgoJ
kiaJk/IsZAEZFgNvcmcxFzAVBgoJkiaJk/IsZAEZFgdkYXRhb25lMRgwFgYDVQQD
DA9EYXRhT05FIFRlc3QgQ0EwHhcNMTIwMzEwMDEyODMwWhcNMTUwMzEwMDEyODMw
WjBHMRMwEQYKCZImiZPyLGQBGRYDb3JnMRcwFQYKCZImiZPyLGQBGRYHZGF0YW9u
ZTEXMBUGA1UEAwwOdXJuOm5vZGU6REVNTzQwggEiMA0GCSqGSIb3DQEBAQUAA4IB
DwAwggEKAoIBAQCima7Zg2CxOlpwxlFyddmdUA7cDmxI9BUiRHxViQf1jgOiF9xf
FcpqfF7swfHyELvipq5TIqowQZrwnJD9T0AWsRCwnCRZgO9Qxz62vHDrXxZdQaGP
JGY3PUADbrh0ehTo3HMpvgWET1cdTyO0uGq/2o2q6pnAyA55tpsqJVeTmyykQp8P
NLIarBEcwc7qoGx2Qs2KZ4nrXbRHDKxAOdwQ7uU09wORjMRjoStA7UnCW3H0L7Xy
FAkGC55Vnr4qL4lWiG9IQHTRKxA35wo+bdUmG91LpzbmIJmL1WArt2REfh+7MzdL
+4R/HHv+ubKpIfb8eADBX2lIQ1PmF6/kIvHXAgMBAAGjggE9MIIBOTAJBgNVHRME
AjAAMCwGCWCGSAGG+EIBDQQfFh1PcGVuU1NMIEdlbmVyYXRlZCBDZXJ0aWZpY2F0
ZTAdBgNVHQ4EFgQU5sNRfIMbDN5sr9wR3VN5slTjdMswHwYDVR0jBBgwFoAUnouC
DeWXNED0y35aDDvKkf1aMXMwgb0GA1UdHwSBtTCBsjA6oDigNoY0aHR0cDovL2Nu
LXVjc2ItMS5kYXRhb25lLm9yZy9jcmwvRGF0YU9ORVRlc3RfQ1JMLnBlbTA5oDeg
NYYzaHR0cDovL2NuLXVubS0xLmRhdGFvbmUub3JnL2NybC9EYXRhT05FVGVzdF9D
UkwucGVtMDmgN6A1hjNodHRwOi8vY24tb3JjLTEuZGF0YW9uZS5vcmcvY3JsL0Rh
dGFPTkVUZXN0X0NSTC5wZW0wDQYJKoZIhvcNAQEFBQADggIBAJeB18LD9DbBJpMm
1Dgwg1iVfzpdraY/phrGjCxXv2VrvZ7u0871PFWtmsKMTzAq7k2nhfKQHJH/LP4C
LyNOM+TGcmsAS8rcH3ZIgs4atN8d3k9mINrMSR9M0PxLr2hYF1zrGgQdTRcNTCXa
u96E5hzDk7b+ci1XKANHVCqCmJqP0gdprxBKl03ueOUGlctZC7hBE9MyqNIFKwFH
YxQyaydfH3KLvoCN1sI1eJgu26FKoFslrRqPdD0NestISuQSBqICfGdaDmtUHQjB
wUAaVaBL0DaHSB0lOy/usZcTjt5De7anB4JUDClHa8pvqdKN4dUciNyVOUHqZhNI
Lee5TviLQJTv4bk9GlgqQTkekET/rkTAwQZGbMai/AYrBNyMLIxKr5StNLOVmBTv
l9X4b1KdGSb/cmqXp5w7jxvesIx6Xmz/RtK8HkdSrZOlaX9nSVWp9IDUMyujUXHr
gYsCUcBKC77GNP4hiz0hePkIbOJE7e1TH9JNwuek84KFDbrc1OOFlSVwl1gcwRP3
L3+vmQm/MgNVV8Mc4kxVuPjqoD7l4ZwIVQ/Di2NzH3yZyuzMkRZXn3Qkzpy5Toua
a9vG8Whs8wFZMDCcMEaVy22c53eN5U0M2btQVeea74THB0gZnlrZiK+7zdl3P1Em
uicSFzRDxG26vcA/RoqzBN5mF6eW
-----END CERTIFICATE-----
