Certificate:
    Data:
        Version: 3 (0x2)
        Serial Number:
            da:32:63:a2:a1:2d:00:29
        Signature Algorithm: sha1WithRSAEncryption
        Issuer: dc=org/dc=dataone, CN=DataONE Test CA
        Validity
            Not Before: Apr 11 00:16:42 2012 GMT
            Not After : Apr 11 00:16:42 2015 GMT
        Subject: dc=org/dc=dataone, CN=urn:node:mnSandboxORC1
        Subject Public Key Info:
            Public Key Algorithm: rsaEncryption
                Public-Key: (2048 bit)
                Modulus:
                    00:b6:89:96:90:32:70:c7:5a:ef:59:73:70:8d:13:
                    28:68:ea:20:be:d5:23:a8:63:8b:ad:8c:92:22:db:
                    2e:1b:50:a2:c2:4d:9e:af:d0:72:80:d7:f0:8c:af:
                    57:b1:e2:e1:7b:1d:3a:91:4d:e3:92:23:79:32:45:
                    af:39:6c:8c:ac:dd:4f:4b:41:15:6d:04:97:bc:0c:
                    fa:c5:bf:8d:94:5c:b0:11:cc:25:e4:14:35:37:56:
                    ce:c8:48:42:c0:ed:22:84:ef:46:75:51:af:b3:23:
                    c1:83:62:db:16:e1:4a:f8:80:3c:1b:10:3d:ec:62:
                    15:36:5b:6a:78:0e:d5:69:b1:17:6a:b3:cd:41:6f:
                    11:92:6d:bc:d3:74:53:ea:6b:d6:8a:59:de:02:d7:
                    15:a5:0d:89:5c:f8:f1:d2:a6:26:a8:92:6b:8a:5c:
                    ca:e9:d7:fb:e6:0f:dd:8f:95:a7:9f:2e:7b:9f:fd:
                    42:fa:b7:7e:25:84:98:2c:6c:76:44:d7:a3:c9:ac:
                    3f:e9:49:d4:41:18:e4:6a:df:fe:60:cc:9f:05:63:
                    9f:f3:fb:fb:2a:3a:22:70:2d:5d:86:54:bc:20:7a:
                    10:f6:0f:5e:45:71:80:73:61:d5:58:48:d5:07:54:
                    11:1d:af:ec:a0:a2:3c:73:39:55:c6:59:40:52:07:
                    00:03
                Exponent: 65537 (0x10001)
        X509v3 extensions:
            X509v3 Basic Constraints: 
                CA:FALSE
            Netscape Comment: 
                OpenSSL Generated Certificate
            X509v3 Subject Key Identifier: 
                3F:8B:26:E2:50:CE:A4:10:22:3B:26:27:9C:4D:60:54:05:0E:7B:ED
            X509v3 Authority Key Identifier: 
                keyid:9E:8B:82:0D:E5:97:34:40:F4:CB:7E:5A:0C:3B:CA:91:FD:5A:31:73

            X509v3 CRL Distribution Points: 

                Full Name:
                  URI:http://cn-ucsb-1.dataone.org/crl/DataONETest_CRL.pem

                Full Name:
                  URI:http://cn-unm-1.dataone.org/crl/DataONETest_CRL.pem

                Full Name:
                  URI:http://cn-orc-1.dataone.org/crl/DataONETest_CRL.pem

    Signature Algorithm: sha1WithRSAEncryption
        57:6e:62:41:61:c7:25:83:db:fa:4a:96:be:19:67:2c:d7:50:
        2e:8d:51:bf:ab:87:e3:b6:81:9c:12:d1:30:02:fa:20:fb:87:
        5b:9e:55:28:fa:8f:02:1c:c6:fe:e3:53:05:77:91:6c:00:fc:
        3b:e7:4c:92:24:96:45:e2:7a:b6:e2:0a:ab:2d:44:05:ca:96:
        84:b8:56:73:44:b1:42:29:fa:90:d2:fe:2d:37:26:0c:85:78:
        b3:8d:9c:e7:53:91:13:5b:00:97:30:c3:e1:a2:f1:4a:71:4f:
        ed:ba:1e:f7:f9:12:f9:38:d6:97:a9:66:ed:ba:b3:65:dc:99:
        95:b3:b2:d0:e1:e4:35:e6:eb:4b:22:d6:e3:3a:03:c8:e8:86:
        ec:7e:ad:01:78:18:19:00:5a:36:27:13:6d:ca:cf:c5:be:0f:
        7d:0e:52:97:9b:a5:49:00:3c:2c:43:b2:ce:96:b5:38:39:26:
        a5:21:54:5e:d0:97:f3:cc:33:fc:f8:c0:1d:00:64:d9:2c:f9:
        90:1d:ee:04:e9:9f:17:b5:a5:5b:ce:e5:1f:61:d0:a5:c4:91:
        b5:4b:7b:a0:65:65:28:d0:be:75:60:f3:99:26:aa:4d:b8:a2:
        c1:03:fd:4c:0a:c1:90:2f:b9:d2:cb:70:37:c1:73:1f:70:af:
        f1:c5:fc:c1:c8:c4:83:ce:5c:39:04:51:54:c2:45:4c:2c:d3:
        b0:f6:4e:be:36:8f:40:f2:53:8d:7c:d5:a0:9b:68:cf:5f:27:
        ab:58:30:ec:6b:e0:00:b7:a9:7f:77:68:a6:62:b7:65:84:3f:
        a9:b8:10:d3:8f:c6:c6:39:d8:04:f0:65:da:2a:03:0c:18:8e:
        aa:08:6a:24:51:01:dc:bc:f2:13:cc:d1:e6:74:23:3c:93:d4:
        c7:f2:2b:da:10:fb:38:da:ab:dc:52:63:ef:07:25:d2:99:37:
        67:33:29:fb:77:6e:45:97:8a:7c:06:56:66:65:c7:ff:d6:9f:
        7f:09:94:5a:4d:90:a3:a2:07:8f:61:9f:75:45:cd:21:2c:75:
        da:76:de:4a:92:2f:f2:e2:0b:86:df:13:2b:48:9c:7c:37:d8:
        da:09:fa:4b:ff:5f:6e:9d:a1:0a:f2:3d:c9:97:99:52:91:c2:
        ef:dd:a2:62:87:cd:69:e5:88:9b:f3:e9:f5:62:5d:88:cf:09:
        7c:a5:da:ae:57:bb:05:b4:bf:9d:4f:95:35:fb:f5:79:cd:72:
        7f:9c:27:b2:b4:95:c6:d9:86:f9:43:cd:7e:07:cd:aa:65:42:
        e5:22:47:27:53:99:3b:74:eb:7a:58:2f:10:9d:07:e7:80:1e:
        7d:79:e8:9e:ed:c5:ce:ab
-----BEGIN CERTIFICATE-----
MIIFWTCCA0GgAwIBAgIJANoyY6KhLQApMA0GCSqGSIb3DQEBBQUAMEgxEzARBgoJ
kiaJk/IsZAEZFgNvcmcxFzAVBgoJkiaJk/IsZAEZFgdkYXRhb25lMRgwFgYDVQQD
DA9EYXRhT05FIFRlc3QgQ0EwHhcNMTIwNDExMDAxNjQyWhcNMTUwNDExMDAxNjQy
WjBPMRMwEQYKCZImiZPyLGQBGRYDb3JnMRcwFQYKCZImiZPyLGQBGRYHZGF0YW9u
ZTEfMB0GA1UEAwwWdXJuOm5vZGU6bW5TYW5kYm94T1JDMTCCASIwDQYJKoZIhvcN
AQEBBQADggEPADCCAQoCggEBALaJlpAycMda71lzcI0TKGjqIL7VI6hji62MkiLb
LhtQosJNnq/QcoDX8IyvV7Hi4XsdOpFN45IjeTJFrzlsjKzdT0tBFW0El7wM+sW/
jZRcsBHMJeQUNTdWzshIQsDtIoTvRnVRr7MjwYNi2xbhSviAPBsQPexiFTZbangO
1WmxF2qzzUFvEZJtvNN0U+pr1opZ3gLXFaUNiVz48dKmJqiSa4pcyunX++YP3Y+V
p58ue5/9Qvq3fiWEmCxsdkTXo8msP+lJ1EEY5Grf/mDMnwVjn/P7+yo6InAtXYZU
vCB6EPYPXkVxgHNh1VhI1QdUER2v7KCiPHM5VcZZQFIHAAMCAwEAAaOCAT0wggE5
MAkGA1UdEwQCMAAwLAYJYIZIAYb4QgENBB8WHU9wZW5TU0wgR2VuZXJhdGVkIENl
cnRpZmljYXRlMB0GA1UdDgQWBBQ/iybiUM6kECI7JiecTWBUBQ577TAfBgNVHSME
GDAWgBSei4IN5Zc0QPTLfloMO8qR/VoxczCBvQYDVR0fBIG1MIGyMDqgOKA2hjRo
dHRwOi8vY24tdWNzYi0xLmRhdGFvbmUub3JnL2NybC9EYXRhT05FVGVzdF9DUkwu
cGVtMDmgN6A1hjNodHRwOi8vY24tdW5tLTEuZGF0YW9uZS5vcmcvY3JsL0RhdGFP
TkVUZXN0X0NSTC5wZW0wOaA3oDWGM2h0dHA6Ly9jbi1vcmMtMS5kYXRhb25lLm9y
Zy9jcmwvRGF0YU9ORVRlc3RfQ1JMLnBlbTANBgkqhkiG9w0BAQUFAAOCAgEAV25i
QWHHJYPb+kqWvhlnLNdQLo1Rv6uH47aBnBLRMAL6IPuHW55VKPqPAhzG/uNTBXeR
bAD8O+dMkiSWReJ6tuIKqy1EBcqWhLhWc0SxQin6kNL+LTcmDIV4s42c51ORE1sA
lzDD4aLxSnFP7boe9/kS+TjWl6lm7bqzZdyZlbOy0OHkNebrSyLW4zoDyOiG7H6t
AXgYGQBaNicTbcrPxb4PfQ5Sl5ulSQA8LEOyzpa1ODkmpSFUXtCX88wz/PjAHQBk
2Sz5kB3uBOmfF7WlW87lH2HQpcSRtUt7oGVlKNC+dWDzmSaqTbiiwQP9TArBkC+5
0stwN8FzH3Cv8cX8wcjEg85cOQRRVMJFTCzTsPZOvjaPQPJTjXzVoJtoz18nq1gw
7GvgALepf3dopmK3ZYQ/qbgQ04/GxjnYBPBl2ioDDBiOqghqJFEB3LzyE8zR5nQj
PJPUx/Ir2hD7ONqr3FJj7wcl0pk3ZzMp+3duRZeKfAZWZmXH/9affwmUWk2Qo6IH
j2GfdUXNISx12nbeSpIv8uILht8TK0icfDfY2gn6S/9fbp2hCvI9yZeZUpHC792i
YofNaeWIm/Pp9WJdiM8JfKXarle7BbS/nU+VNfv1ec1yf5wnsrSVxtmG+UPNfgfN
qmVC5SJHJ1OZO3TrelgvEJ0H54AefXnonu3Fzqs=
-----END CERTIFICATE-----
