Certificate:
    Data:
        Version: 3 (0x2)
        Serial Number:
            da:32:63:a2:a1:2d:00:21
        Signature Algorithm: sha1WithRSAEncryption
        Issuer: dc=org/dc=dataone, CN=DataONE Test CA
        Validity
            Not Before: Apr 11 00:13:22 2012 GMT
            Not After : Apr 11 00:13:22 2015 GMT
        Subject: dc=org/dc=dataone, CN=urn:node:D1USGS3
        Subject Public Key Info:
            Public Key Algorithm: rsaEncryption
                Public-Key: (2048 bit)
                Modulus:
                    00:f4:9f:0d:9d:0c:5a:24:bb:f2:ce:5d:41:a1:41:
                    1b:ed:25:3a:76:50:6d:77:ff:cd:a7:5f:44:1d:ed:
                    50:b5:19:c4:54:83:6f:e5:ca:20:15:19:35:87:d5:
                    ea:25:69:b6:49:22:65:4a:ed:df:96:b5:90:e4:f0:
                    4a:f4:b5:33:eb:41:d6:94:a6:5c:1a:f5:b2:05:ab:
                    f4:f2:81:54:c3:71:be:bc:59:19:7b:ae:94:da:e3:
                    44:04:14:e5:1b:01:5d:a1:1f:b6:bc:49:2d:4b:a4:
                    a7:c3:09:82:51:f3:73:8f:9c:52:af:62:96:95:5d:
                    47:7f:da:0c:d5:a4:6a:9b:e7:a8:ff:07:66:b4:29:
                    9f:bf:51:a4:7c:15:1d:2b:e4:33:93:89:5e:69:4c:
                    5b:78:26:a8:80:31:a8:63:bd:e8:9c:5a:ee:ad:bf:
                    e2:38:5d:ef:09:0a:7a:b7:e2:2f:94:b6:7f:a7:e1:
                    b9:08:73:ed:db:24:1e:89:f9:ca:95:3e:d4:c7:81:
                    b1:70:ed:27:c1:76:cf:24:79:49:74:ba:d5:24:91:
                    17:96:68:df:f4:5b:c5:57:9a:2f:5c:04:ee:09:98:
                    23:c9:36:ba:cb:32:a6:71:55:99:3e:9d:f1:b1:cc:
                    39:a5:4e:ec:5b:65:a0:9d:0c:fb:1a:09:1e:79:7c:
                    ab:4d
                Exponent: 65537 (0x10001)
        X509v3 extensions:
            X509v3 Basic Constraints: 
                CA:FALSE
            Netscape Comment: 
                OpenSSL Generated Certificate
            X509v3 Subject Key Identifier: 
                17:DE:0F:98:F5:AE:42:6C:CD:7A:2C:CA:6B:D4:7C:EF:61:E6:23:58
            X509v3 Authority Key Identifier: 
                keyid:9E:8B:82:0D:E5:97:34:40:F4:CB:7E:5A:0C:3B:CA:91:FD:5A:31:73

            X509v3 CRL Distribution Points: 

                Full Name:
                  URI:http://cn-ucsb-1.dataone.org/crl/DataONETest_CRL.pem

                Full Name:
                  URI:http://cn-unm-1.dataone.org/crl/DataONETest_CRL.pem

                Full Name:
                  URI:http://cn-orc-1.dataone.org/crl/DataONETest_CRL.pem

    Signature Algorithm: sha1WithRSAEncryption
        04:3c:8f:ae:c0:60:04:c6:dd:81:88:8a:cf:cf:c5:ba:aa:d5:
        6e:74:0e:7d:bc:f2:ab:9c:fa:65:be:71:1a:97:7f:23:23:6d:
        00:66:13:c6:d9:c2:51:d1:c0:bb:d0:6e:b1:98:98:2b:67:f4:
        4b:ec:22:6f:21:f4:06:2e:41:fa:03:b0:9b:51:3a:05:f5:b0:
        56:83:a4:1a:b0:73:cc:ad:9f:74:8e:35:8d:0c:99:46:94:42:
        ea:46:9e:c2:5c:70:c5:ea:06:f0:d5:99:cc:b4:a3:07:04:0e:
        f0:8a:31:03:f8:30:6a:52:07:18:ff:30:10:68:da:14:59:0a:
        ad:5d:44:82:5c:ea:35:bd:11:25:4f:89:30:45:49:74:80:d8:
        a5:c2:ec:17:eb:bb:d6:d5:7c:d7:c3:5e:af:f0:7a:ff:73:ec:
        74:b9:54:a0:fb:63:7b:c7:13:85:c9:dd:65:1b:6d:f1:0d:5c:
        e1:44:6c:0a:25:74:51:50:d9:28:ee:6a:f8:51:cd:59:f2:28:
        f1:b1:40:f7:54:0d:11:b5:07:db:ec:56:65:29:22:d5:16:f7:
        7d:d7:d3:34:b6:6d:ec:79:43:a5:5b:fe:02:66:e4:eb:db:2c:
        0d:29:3f:e1:af:8c:47:4e:10:a6:2c:3e:d2:ad:5c:38:7c:70:
        bc:14:74:65:19:4a:18:70:77:29:ea:b5:93:09:b6:8c:5f:d3:
        2d:70:31:9a:e5:5d:5f:be:9c:80:84:ed:f3:f4:ba:e2:41:6a:
        ef:93:27:c0:43:e3:b9:bc:df:b2:c6:e0:50:05:d1:06:bd:c7:
        f3:fe:46:a7:b9:46:9f:4e:09:6b:da:90:37:7f:d6:66:54:b9:
        15:de:94:96:b9:55:88:96:7f:ef:b9:b6:a0:f5:53:a4:30:53:
        d1:a4:47:d0:d0:e0:5a:8d:7e:24:90:c5:dc:3f:d2:6d:27:91:
        fa:b0:ab:1b:4a:e7:d1:62:34:1b:c6:e1:0f:fb:8e:d2:0c:ee:
        6d:2b:4c:cb:3c:24:5b:a4:9d:62:8f:2c:35:ea:7e:40:fd:5f:
        ae:cc:6d:d7:ed:04:b7:0a:a9:ee:2a:0e:c3:50:4f:33:fa:34:
        6e:98:7a:b6:c0:e9:11:80:64:0a:cb:b7:3e:78:e6:4b:06:0e:
        77:06:36:d3:d1:15:cd:e4:55:c3:a6:53:43:e7:2d:74:ef:a7:
        82:ec:b9:16:81:a3:d5:e9:8a:b8:d5:a6:95:00:4e:bb:a3:f1:
        a4:0d:80:d7:72:05:06:5d:08:f2:6d:62:ad:cd:3f:f3:09:3c:
        82:e5:ac:78:61:06:27:4f:64:d0:88:3c:25:8e:9c:7d:29:63:
        4f:64:f2:93:87:a4:a1:fe
-----BEGIN CERTIFICATE-----
MIIFUzCCAzugAwIBAgIJANoyY6KhLQAhMA0GCSqGSIb3DQEBBQUAMEgxEzARBgoJ
kiaJk/IsZAEZFgNvcmcxFzAVBgoJkiaJk/IsZAEZFgdkYXRhb25lMRgwFgYDVQQD
DA9EYXRhT05FIFRlc3QgQ0EwHhcNMTIwNDExMDAxMzIyWhcNMTUwNDExMDAxMzIy
WjBJMRMwEQYKCZImiZPyLGQBGRYDb3JnMRcwFQYKCZImiZPyLGQBGRYHZGF0YW9u
ZTEZMBcGA1UEAwwQdXJuOm5vZGU6RDFVU0dTMzCCASIwDQYJKoZIhvcNAQEBBQAD
ggEPADCCAQoCggEBAPSfDZ0MWiS78s5dQaFBG+0lOnZQbXf/zadfRB3tULUZxFSD
b+XKIBUZNYfV6iVptkkiZUrt35a1kOTwSvS1M+tB1pSmXBr1sgWr9PKBVMNxvrxZ
GXuulNrjRAQU5RsBXaEftrxJLUukp8MJglHzc4+cUq9ilpVdR3/aDNWkapvnqP8H
ZrQpn79RpHwVHSvkM5OJXmlMW3gmqIAxqGO96Jxa7q2/4jhd7wkKerfiL5S2f6fh
uQhz7dskHon5ypU+1MeBsXDtJ8F2zyR5SXS61SSRF5Zo3/RbxVeaL1wE7gmYI8k2
ussypnFVmT6d8bHMOaVO7FtloJ0M+xoJHnl8q00CAwEAAaOCAT0wggE5MAkGA1Ud
EwQCMAAwLAYJYIZIAYb4QgENBB8WHU9wZW5TU0wgR2VuZXJhdGVkIENlcnRpZmlj
YXRlMB0GA1UdDgQWBBQX3g+Y9a5CbM16LMpr1HzvYeYjWDAfBgNVHSMEGDAWgBSe
i4IN5Zc0QPTLfloMO8qR/VoxczCBvQYDVR0fBIG1MIGyMDqgOKA2hjRodHRwOi8v
Y24tdWNzYi0xLmRhdGFvbmUub3JnL2NybC9EYXRhT05FVGVzdF9DUkwucGVtMDmg
N6A1hjNodHRwOi8vY24tdW5tLTEuZGF0YW9uZS5vcmcvY3JsL0RhdGFPTkVUZXN0
X0NSTC5wZW0wOaA3oDWGM2h0dHA6Ly9jbi1vcmMtMS5kYXRhb25lLm9yZy9jcmwv
RGF0YU9ORVRlc3RfQ1JMLnBlbTANBgkqhkiG9w0BAQUFAAOCAgEABDyPrsBgBMbd
gYiKz8/FuqrVbnQOfbzyq5z6Zb5xGpd/IyNtAGYTxtnCUdHAu9BusZiYK2f0S+wi
byH0Bi5B+gOwm1E6BfWwVoOkGrBzzK2fdI41jQyZRpRC6kaewlxwxeoG8NWZzLSj
BwQO8IoxA/gwalIHGP8wEGjaFFkKrV1EglzqNb0RJU+JMEVJdIDYpcLsF+u71tV8
18Ner/B6/3PsdLlUoPtje8cThcndZRtt8Q1c4URsCiV0UVDZKO5q+FHNWfIo8bFA
91QNEbUH2+xWZSki1Rb3fdfTNLZt7HlDpVv+Ambk69ssDSk/4a+MR04Qpiw+0q1c
OHxwvBR0ZRlKGHB3Keq1kwm2jF/TLXAxmuVdX76cgITt8/S64kFq75MnwEPjubzf
ssbgUAXRBr3H8/5Gp7lGn04Ja9qQN3/WZlS5Fd6UlrlViJZ/77m2oPVTpDBT0aRH
0NDgWo1+JJDF3D/SbSeR+rCrG0rn0WI0G8bhD/uO0gzubStMyzwkW6SdYo8sNep+
QP1frsxt1+0Etwqp7ioOw1BPM/o0bph6tsDpEYBkCsu3PnjmSwYOdwY209EVzeRV
w6ZTQ+ctdO+nguy5FoGj1emKuNWmlQBOu6PxpA2A13IFBl0I8m1irc0/8wk8guWs
eGEGJ09k0Ig8JY6cfSljT2Tyk4ekof4=
-----END CERTIFICATE-----
