Certificate:
    Data:
        Version: 3 (0x2)
        Serial Number:
            da:32:63:a2:a1:2d:00:1b
        Signature Algorithm: sha1WithRSAEncryption
        Issuer: dc=org/dc=dataone, CN=DataONE Test CA
        Validity
            Not Before: Mar 10 02:14:16 2012 GMT
            Not After : Mar 10 02:14:16 2015 GMT
        Subject: dc=org/dc=dataone, CN=cn-sandbox-unm-1.dataone.org
        Subject Public Key Info:
            Public Key Algorithm: rsaEncryption
                Public-Key: (2048 bit)
                Modulus:
                    00:ca:d2:7b:9a:2d:e8:90:77:0c:0f:13:c9:12:a8:
                    72:ca:bc:e3:17:61:72:9d:b1:08:df:01:4b:d6:e8:
                    19:e1:75:c3:20:99:a5:39:68:f4:91:90:83:09:ab:
                    c7:73:45:84:dd:d3:43:7e:64:04:8e:a1:6a:13:cf:
                    72:93:13:51:f1:15:06:cb:dc:98:f7:c3:8b:78:89:
                    30:3d:ba:1f:27:ff:c5:60:7d:74:3c:e9:a5:29:47:
                    a2:34:b1:ca:7e:5c:77:93:f7:f3:33:15:7d:0b:e2:
                    d3:31:e1:16:07:5c:65:6a:fb:b8:ad:df:ba:8c:d3:
                    d3:19:c4:23:1f:01:f1:9f:b3:ac:ce:e3:80:3e:9c:
                    96:43:7a:04:bb:bd:75:04:7b:76:19:96:3d:06:fc:
                    df:c8:fc:a8:d9:b1:34:b7:02:17:9e:35:6d:45:d6:
                    fc:65:0a:97:07:05:9b:d9:0d:c0:67:14:fd:73:de:
                    2c:d8:e4:1f:12:9c:03:60:88:17:81:39:cd:3b:4e:
                    e3:3d:56:52:de:87:7f:67:30:03:f3:4e:e7:b1:a2:
                    7b:b9:34:34:d4:57:78:80:3c:7e:75:65:bb:d1:c1:
                    30:17:a3:f9:15:c3:d1:a3:58:27:60:2f:a3:d8:51:
                    8e:c5:01:56:fe:0c:a7:87:22:9a:ff:10:b4:78:3e:
                    34:c3
                Exponent: 65537 (0x10001)
        X509v3 extensions:
            X509v3 Basic Constraints: 
                CA:FALSE
            Netscape Comment: 
                OpenSSL Generated Certificate
            X509v3 Subject Key Identifier: 
                37:98:D8:58:82:F1:E7:F5:77:D1:93:44:E7:72:33:CF:5E:35:F3:ED
            X509v3 Authority Key Identifier: 
                keyid:9E:8B:82:0D:E5:97:34:40:F4:CB:7E:5A:0C:3B:CA:91:FD:5A:31:73

            X509v3 CRL Distribution Points: 

                Full Name:
                  URI:http://cn-ucsb-1.dataone.org/crl/DataONETest_CRL.pem

                Full Name:
                  URI:http://cn-unm-1.dataone.org/crl/DataONETest_CRL.pem

                Full Name:
                  URI:http://cn-orc-1.dataone.org/crl/DataONETest_CRL.pem

    Signature Algorithm: sha1WithRSAEncryption
        62:d8:51:17:20:e9:09:54:6c:d9:d4:0d:59:9e:d7:5c:b8:38:
        e9:4b:61:1d:32:c8:b5:df:46:46:09:5a:0c:2b:a4:4a:31:7d:
        c0:e0:c7:fb:62:4f:e0:f8:0b:13:0b:13:1e:df:f6:7b:b9:4b:
        0e:6b:1c:70:5a:92:6a:10:d0:3e:a9:ef:7f:7a:15:45:3e:1b:
        b8:12:cc:31:2c:da:e2:f2:ff:9a:e7:bd:3d:11:e7:1d:0b:2b:
        0d:ec:0b:9a:ca:eb:56:4c:2d:c3:a4:56:a4:f9:44:3e:57:aa:
        39:fa:e6:b3:be:38:c5:2d:1e:88:8f:f9:1b:36:7d:21:d0:82:
        83:5c:57:6c:80:38:e7:e4:11:97:e6:c9:8b:8e:31:9a:3f:9a:
        01:bc:72:e1:c7:3a:08:31:ae:cf:46:35:df:95:a8:b0:5d:eb:
        f9:92:7e:1d:f3:db:45:f3:58:59:49:05:0a:1c:fc:b6:0e:5c:
        5e:d8:ca:1b:fb:51:24:e1:35:dd:18:e4:5f:a3:36:2a:c1:9a:
        36:7e:bc:55:54:50:00:4d:13:f0:b0:0f:59:53:93:c0:16:43:
        55:a3:cf:55:a1:6e:dd:77:79:b2:98:76:7f:d7:ef:6a:2f:e6:
        33:20:13:5d:52:9d:7a:9b:b3:5f:7b:59:4d:d8:72:9e:2b:b0:
        40:b4:6a:a8:d4:66:a7:9d:95:11:9f:51:93:15:a1:3a:eb:20:
        d7:c0:aa:91:48:eb:33:d5:e0:cf:ce:ff:17:88:18:bd:9a:d4:
        8c:dc:65:fd:e3:75:1f:4d:77:0a:7c:10:90:b8:93:d1:7a:fa:
        3b:be:d5:f2:60:66:f7:74:db:16:a1:9b:e1:16:22:1a:b6:63:
        fa:5a:5a:81:da:3e:82:7c:10:9d:09:be:fa:c4:dc:7f:32:b2:
        25:a3:9e:9f:4e:4b:a2:ca:92:d9:a9:9a:6e:5f:96:19:52:c7:
        2e:c8:8f:4c:c4:29:aa:b7:f4:6f:b9:93:77:45:0c:85:b9:3e:
        e7:13:a2:01:91:a3:35:8c:3e:5f:27:4a:c5:c8:7e:5a:d6:fc:
        7e:41:87:0c:74:ee:ad:bb:bc:b8:97:97:d7:03:e3:ef:c3:27:
        98:78:6e:e5:70:37:1f:df:33:03:bf:94:a7:e5:2c:10:12:83:
        c8:f0:d3:c6:ec:41:90:d6:a9:20:e1:31:95:0e:53:9a:e1:0c:
        fa:10:8a:62:7d:2b:ea:9e:94:61:cf:e1:aa:b9:0f:41:bf:14:
        1f:de:a8:d5:d9:a1:f7:ed:1f:fd:6e:d5:ea:31:9a:29:39:21:
        20:98:21:16:fb:c9:a4:bb:e4:50:13:77:9b:ff:45:b4:23:7d:
        9f:4c:9e:70:2c:17:95:ac
-----BEGIN CERTIFICATE-----
MIIFXzCCA0egAwIBAgIJANoyY6KhLQAbMA0GCSqGSIb3DQEBBQUAMEgxEzARBgoJ
kiaJk/IsZAEZFgNvcmcxFzAVBgoJkiaJk/IsZAEZFgdkYXRhb25lMRgwFgYDVQQD
DA9EYXRhT05FIFRlc3QgQ0EwHhcNMTIwMzEwMDIxNDE2WhcNMTUwMzEwMDIxNDE2
WjBVMRMwEQYKCZImiZPyLGQBGRYDb3JnMRcwFQYKCZImiZPyLGQBGRYHZGF0YW9u
ZTElMCMGA1UEAwwcY24tc2FuZGJveC11bm0tMS5kYXRhb25lLm9yZzCCASIwDQYJ
KoZIhvcNAQEBBQADggEPADCCAQoCggEBAMrSe5ot6JB3DA8TyRKocsq84xdhcp2x
CN8BS9boGeF1wyCZpTlo9JGQgwmrx3NFhN3TQ35kBI6hahPPcpMTUfEVBsvcmPfD
i3iJMD26Hyf/xWB9dDzppSlHojSxyn5cd5P38zMVfQvi0zHhFgdcZWr7uK3fuozT
0xnEIx8B8Z+zrM7jgD6clkN6BLu9dQR7dhmWPQb838j8qNmxNLcCF541bUXW/GUK
lwcFm9kNwGcU/XPeLNjkHxKcA2CIF4E5zTtO4z1WUt6Hf2cwA/NO57Gie7k0NNRX
eIA8fnVlu9HBMBej+RXD0aNYJ2Avo9hRjsUBVv4Mp4cimv8QtHg+NMMCAwEAAaOC
AT0wggE5MAkGA1UdEwQCMAAwLAYJYIZIAYb4QgENBB8WHU9wZW5TU0wgR2VuZXJh
dGVkIENlcnRpZmljYXRlMB0GA1UdDgQWBBQ3mNhYgvHn9XfRk0TncjPPXjXz7TAf
BgNVHSMEGDAWgBSei4IN5Zc0QPTLfloMO8qR/VoxczCBvQYDVR0fBIG1MIGyMDqg
OKA2hjRodHRwOi8vY24tdWNzYi0xLmRhdGFvbmUub3JnL2NybC9EYXRhT05FVGVz
dF9DUkwucGVtMDmgN6A1hjNodHRwOi8vY24tdW5tLTEuZGF0YW9uZS5vcmcvY3Js
L0RhdGFPTkVUZXN0X0NSTC5wZW0wOaA3oDWGM2h0dHA6Ly9jbi1vcmMtMS5kYXRh
b25lLm9yZy9jcmwvRGF0YU9ORVRlc3RfQ1JMLnBlbTANBgkqhkiG9w0BAQUFAAOC
AgEAYthRFyDpCVRs2dQNWZ7XXLg46UthHTLItd9GRglaDCukSjF9wODH+2JP4PgL
EwsTHt/2e7lLDmsccFqSahDQPqnvf3oVRT4buBLMMSza4vL/mue9PRHnHQsrDewL
msrrVkwtw6RWpPlEPleqOfrms744xS0eiI/5GzZ9IdCCg1xXbIA45+QRl+bJi44x
mj+aAbxy4cc6CDGuz0Y135WosF3r+ZJ+HfPbRfNYWUkFChz8tg5cXtjKG/tRJOE1
3RjkX6M2KsGaNn68VVRQAE0T8LAPWVOTwBZDVaPPVaFu3Xd5sph2f9fvai/mMyAT
XVKdepuzX3tZTdhyniuwQLRqqNRmp52VEZ9RkxWhOusg18CqkUjrM9Xgz87/F4gY
vZrUjNxl/eN1H013CnwQkLiT0Xr6O77V8mBm93TbFqGb4RYiGrZj+lpagdo+gnwQ
nQm++sTcfzKyJaOen05LosqS2amabl+WGVLHLsiPTMQpqrf0b7mTd0UMhbk+5xOi
AZGjNYw+XydKxch+Wtb8fkGHDHTurbu8uJeX1wPj78MnmHhu5XA3H98zA7+Up+Us
EBKDyPDTxuxBkNapIOExlQ5TmuEM+hCKYn0r6p6UYc/hqrkPQb8UH96o1dmh9+0f
/W7V6jGaKTkhIJghFvvJpLvkUBN3m/9FtCN9n0yecCwXlaw=
-----END CERTIFICATE-----
