Certificate:
    Data:
        Version: 3 (0x2)
        Serial Number:
            da:32:63:a2:a1:2d:00:19
        Signature Algorithm: sha1WithRSAEncryption
        Issuer: dc=org/dc=dataone, CN=DataONE Test CA
        Validity
            Not Before: Mar 10 02:13:31 2012 GMT
            Not After : Mar 10 02:13:31 2015 GMT
        Subject: dc=org/dc=dataone, CN=cn-sandbox-ucsb-1.dataone.org
        Subject Public Key Info:
            Public Key Algorithm: rsaEncryption
                Public-Key: (2048 bit)
                Modulus:
                    00:bc:29:b7:10:8a:7a:18:43:3f:a5:57:2a:ca:e2:
                    df:32:cc:dd:27:18:b0:81:1e:87:fd:c4:62:e7:e4:
                    df:d6:63:33:99:61:5a:58:95:94:46:1b:bc:67:dc:
                    36:23:2a:b9:1b:a7:19:f6:01:b2:3e:b7:31:36:61:
                    fa:05:f0:10:ff:dc:4c:16:3f:a7:f5:a7:fe:e7:c5:
                    df:a7:23:24:d3:24:a9:11:78:35:9d:4b:eb:51:d0:
                    5a:c4:9c:17:6f:bc:2d:25:72:4e:e0:73:3e:9c:3c:
                    ee:71:96:5b:84:10:12:5c:5a:4f:5d:40:1d:8e:e9:
                    8b:0c:77:07:7e:57:9a:ab:a5:34:27:49:4c:37:ab:
                    30:1f:e8:82:ad:87:45:59:48:fe:a2:01:fc:27:5f:
                    85:c0:7a:9c:f1:e7:10:48:10:8d:97:ed:69:88:f2:
                    43:38:a0:86:02:cc:a0:06:23:a1:52:36:36:54:3a:
                    8b:9e:c5:ae:60:4e:d0:c3:3f:db:bb:86:b4:22:34:
                    a1:10:fe:28:c7:c8:73:56:3f:44:24:0d:ec:8f:2f:
                    a1:eb:0c:d3:76:b0:7c:73:95:1e:f2:75:6e:1e:e7:
                    e1:4f:9a:1f:e9:9f:08:8e:8b:33:a8:99:7f:7f:b2:
                    7c:ef:31:d2:a1:18:df:65:c0:03:9a:23:46:59:01:
                    05:85
                Exponent: 65537 (0x10001)
        X509v3 extensions:
            X509v3 Basic Constraints: 
                CA:FALSE
            Netscape Comment: 
                OpenSSL Generated Certificate
            X509v3 Subject Key Identifier: 
                50:A0:4A:EF:3D:20:A5:46:2F:30:C7:3E:89:16:18:13:CC:66:17:7F
            X509v3 Authority Key Identifier: 
                keyid:9E:8B:82:0D:E5:97:34:40:F4:CB:7E:5A:0C:3B:CA:91:FD:5A:31:73

            X509v3 CRL Distribution Points: 

                Full Name:
                  URI:http://cn-ucsb-1.dataone.org/crl/DataONETest_CRL.pem

                Full Name:
                  URI:http://cn-unm-1.dataone.org/crl/DataONETest_CRL.pem

                Full Name:
                  URI:http://cn-orc-1.dataone.org/crl/DataONETest_CRL.pem

    Signature Algorithm: sha1WithRSAEncryption
        6c:8a:b4:8f:58:df:e2:11:99:79:31:c0:ef:32:be:c3:df:da:
        d4:59:f3:6d:98:eb:a1:e0:10:94:03:e4:a3:f5:c2:e8:1b:6a:
        fe:52:17:db:80:47:6c:21:48:74:7a:c5:02:07:0e:61:b4:f7:
        65:5d:4e:35:6b:0c:fe:01:07:f2:33:20:ad:f2:20:19:fb:f4:
        4e:9b:a2:2f:88:a0:6a:6a:86:ba:e6:33:20:66:fe:29:a3:40:
        75:78:93:57:9e:31:75:f2:17:60:f5:50:78:47:86:c0:06:f6:
        b9:b5:17:f5:0e:32:d6:f9:4f:b6:fb:de:75:5b:8a:94:ae:a8:
        b2:fd:cb:b9:ed:f0:14:5a:fb:39:0c:e1:9f:9b:75:3b:bb:86:
        d5:64:8a:a0:85:01:ed:da:52:23:e6:df:db:cc:f7:f1:46:8d:
        82:be:9e:ae:ee:c2:4e:a3:78:ce:94:9c:a6:55:77:d3:6c:c0:
        4f:f3:f1:9d:69:72:99:ed:ce:ee:2e:73:48:f0:af:6c:dd:63:
        8a:a3:a0:d4:7f:25:57:c9:6e:a5:bf:51:13:d9:21:73:0f:c0:
        6d:30:02:4e:db:e3:02:f1:37:7f:61:3d:6e:06:53:5e:62:67:
        bc:39:6a:14:40:37:1d:53:dd:f3:51:78:7a:11:a0:8c:b5:3b:
        83:51:eb:db:16:f9:d8:59:b0:79:c8:f3:6f:dc:b5:e8:bc:14:
        26:99:ff:d3:a9:9d:3c:47:89:ee:c1:80:9d:95:df:3d:90:9f:
        a7:ca:47:68:fd:32:3b:e0:15:3f:7f:2a:b4:7e:94:cb:16:73:
        12:4d:89:42:09:07:dc:76:1b:2b:32:09:95:74:89:18:dc:68:
        ba:24:bf:c1:8a:a7:7b:ff:ff:35:a8:a7:d2:6f:b0:95:ca:3e:
        79:27:47:84:a1:83:de:b0:34:b0:19:b2:5e:3a:16:a9:9b:0a:
        54:ee:2f:13:5e:ec:ce:6d:98:87:4d:b1:35:d4:d0:86:49:b5:
        de:b9:aa:41:23:30:c9:3e:b7:09:6a:f2:7e:36:fb:fc:73:27:
        a0:a3:63:e3:6e:61:5d:a0:9c:c1:41:d0:24:ff:f1:3a:f9:5c:
        98:74:82:71:4d:54:65:0a:f5:7e:cd:c2:7a:0f:3c:81:4b:ae:
        56:b8:fa:62:3b:14:78:79:5b:2b:87:78:81:ba:b7:86:e0:49:
        d7:fc:15:fa:a0:cb:80:e7:e3:7f:24:c7:65:7c:9f:de:6c:53:
        99:98:2b:85:9b:22:4c:0b:9d:97:5b:fa:2f:36:f9:e4:54:0b:
        71:9b:cc:91:da:98:b7:29:fa:b1:c4:4f:d7:20:d0:36:a5:4c:
        64:8c:c6:06:f3:b8:f5:df
-----BEGIN CERTIFICATE-----
MIIFYDCCA0igAwIBAgIJANoyY6KhLQAZMA0GCSqGSIb3DQEBBQUAMEgxEzARBgoJ
kiaJk/IsZAEZFgNvcmcxFzAVBgoJkiaJk/IsZAEZFgdkYXRhb25lMRgwFgYDVQQD
DA9EYXRhT05FIFRlc3QgQ0EwHhcNMTIwMzEwMDIxMzMxWhcNMTUwMzEwMDIxMzMx
WjBWMRMwEQYKCZImiZPyLGQBGRYDb3JnMRcwFQYKCZImiZPyLGQBGRYHZGF0YW9u
ZTEmMCQGA1UEAwwdY24tc2FuZGJveC11Y3NiLTEuZGF0YW9uZS5vcmcwggEiMA0G
CSqGSIb3DQEBAQUAA4IBDwAwggEKAoIBAQC8KbcQinoYQz+lVyrK4t8yzN0nGLCB
Hof9xGLn5N/WYzOZYVpYlZRGG7xn3DYjKrkbpxn2AbI+tzE2YfoF8BD/3EwWP6f1
p/7nxd+nIyTTJKkReDWdS+tR0FrEnBdvvC0lck7gcz6cPO5xlluEEBJcWk9dQB2O
6YsMdwd+V5qrpTQnSUw3qzAf6IKth0VZSP6iAfwnX4XAepzx5xBIEI2X7WmI8kM4
oIYCzKAGI6FSNjZUOouexa5gTtDDP9u7hrQiNKEQ/ijHyHNWP0QkDeyPL6HrDNN2
sHxzlR7ydW4e5+FPmh/pnwiOizOomX9/snzvMdKhGN9lwAOaI0ZZAQWFAgMBAAGj
ggE9MIIBOTAJBgNVHRMEAjAAMCwGCWCGSAGG+EIBDQQfFh1PcGVuU1NMIEdlbmVy
YXRlZCBDZXJ0aWZpY2F0ZTAdBgNVHQ4EFgQUUKBK7z0gpUYvMMc+iRYYE8xmF38w
HwYDVR0jBBgwFoAUnouCDeWXNED0y35aDDvKkf1aMXMwgb0GA1UdHwSBtTCBsjA6
oDigNoY0aHR0cDovL2NuLXVjc2ItMS5kYXRhb25lLm9yZy9jcmwvRGF0YU9ORVRl
c3RfQ1JMLnBlbTA5oDegNYYzaHR0cDovL2NuLXVubS0xLmRhdGFvbmUub3JnL2Ny
bC9EYXRhT05FVGVzdF9DUkwucGVtMDmgN6A1hjNodHRwOi8vY24tb3JjLTEuZGF0
YW9uZS5vcmcvY3JsL0RhdGFPTkVUZXN0X0NSTC5wZW0wDQYJKoZIhvcNAQEFBQAD
ggIBAGyKtI9Y3+IRmXkxwO8yvsPf2tRZ822Y66HgEJQD5KP1wugbav5SF9uAR2wh
SHR6xQIHDmG092VdTjVrDP4BB/IzIK3yIBn79E6boi+IoGpqhrrmMyBm/imjQHV4
k1eeMXXyF2D1UHhHhsAG9rm1F/UOMtb5T7b73nVbipSuqLL9y7nt8BRa+zkM4Z+b
dTu7htVkiqCFAe3aUiPm39vM9/FGjYK+nq7uwk6jeM6UnKZVd9NswE/z8Z1pcpnt
zu4uc0jwr2zdY4qjoNR/JVfJbqW/URPZIXMPwG0wAk7b4wLxN39hPW4GU15iZ7w5
ahRANx1T3fNReHoRoIy1O4NR69sW+dhZsHnI82/ctei8FCaZ/9OpnTxHie7BgJ2V
3z2Qn6fKR2j9MjvgFT9/KrR+lMsWcxJNiUIJB9x2GysyCZV0iRjcaLokv8GKp3v/
/zWop9JvsJXKPnknR4Shg96wNLAZsl46FqmbClTuLxNe7M5tmIdNsTXU0IZJtd65
qkEjMMk+twlq8n42+/xzJ6CjY+NuYV2gnMFB0CT/8Tr5XJh0gnFNVGUK9X7NwnoP
PIFLrla4+mI7FHh5WyuHeIG6t4bgSdf8Ffqgy4Dn438kx2V8n95sU5mYK4WbIkwL
nZdb+i82+eRUC3GbzJHamLcp+rHET9cg0DalTGSMxgbzuPXf
-----END CERTIFICATE-----
