Certificate:
    Data:
        Version: 3 (0x2)
        Serial Number:
            da:32:63:a2:a1:2d:00:0d
        Signature Algorithm: sha1WithRSAEncryption
        Issuer: dc=org/dc=dataone, CN=DataONE Test CA
        Validity
            Not Before: Mar 10 01:22:44 2012 GMT
            Not After : Mar 10 01:22:44 2015 GMT
        Subject: dc=org/dc=dataone, CN=urn:node:mnStageORC1
        Subject Public Key Info:
            Public Key Algorithm: rsaEncryption
                Public-Key: (2048 bit)
                Modulus:
                    00:bc:9b:c5:11:8e:4c:fa:cb:06:fc:de:10:c0:83:
                    82:28:ee:5f:1d:7a:91:43:3f:29:36:2e:47:aa:86:
                    57:54:bb:66:d8:d9:12:be:10:2c:28:54:28:38:aa:
                    57:05:84:d1:a0:cd:9d:a6:4c:ae:f2:b4:fb:6e:b6:
                    01:34:1a:51:de:cd:da:d1:e7:bd:af:22:5b:fa:31:
                    87:4a:13:ce:1b:36:9e:d2:1a:21:bb:ad:31:2d:3b:
                    39:6f:9e:6e:e9:75:7c:0e:96:78:a0:bf:9a:60:4a:
                    09:bb:ce:dd:9f:bd:82:fa:50:74:1f:cf:42:0d:79:
                    8c:05:9f:5d:22:3d:69:ea:29:43:ac:51:5d:b5:52:
                    7a:a1:ff:8c:6d:14:3c:48:56:1a:18:94:dc:8c:7d:
                    0e:0f:97:37:1e:49:31:8b:40:e0:14:70:57:f8:c1:
                    9b:c5:02:7f:de:b8:d4:53:b5:0c:cd:55:23:b1:8a:
                    5d:a5:89:ee:64:f5:cd:2b:fa:a2:84:92:4f:c9:de:
                    37:20:fb:62:52:c3:44:60:07:44:d2:ed:a2:04:c8:
                    e4:43:20:8c:30:94:34:e1:c8:91:21:5a:62:30:e0:
                    a4:49:fc:ba:5e:47:7e:1d:31:24:0c:28:5b:b9:49:
                    a8:e3:47:d5:1d:4f:f3:f2:be:46:58:33:b4:9f:c8:
                    15:95
                Exponent: 65537 (0x10001)
        X509v3 extensions:
            X509v3 Basic Constraints: 
                CA:FALSE
            Netscape Comment: 
                OpenSSL Generated Certificate
            X509v3 Subject Key Identifier: 
                79:DD:E2:E6:35:43:A4:CF:E6:EE:0D:36:10:27:D6:98:6F:02:C6:E1
            X509v3 Authority Key Identifier: 
                keyid:9E:8B:82:0D:E5:97:34:40:F4:CB:7E:5A:0C:3B:CA:91:FD:5A:31:73

            X509v3 CRL Distribution Points: 

                Full Name:
                  URI:http://cn-ucsb-1.dataone.org/crl/DataONETest_CRL.pem

                Full Name:
                  URI:http://cn-unm-1.dataone.org/crl/DataONETest_CRL.pem

                Full Name:
                  URI:http://cn-orc-1.dataone.org/crl/DataONETest_CRL.pem

    Signature Algorithm: sha1WithRSAEncryption
        8b:50:2c:df:c9:9e:19:79:59:86:61:27:7f:0a:02:b2:91:68:
        1e:9d:3a:51:29:3a:3a:b7:31:6e:fa:17:2c:c8:b0:e2:69:b0:
        fc:c0:00:c0:c5:ab:e8:56:02:5a:33:e4:e4:cc:fb:a3:01:99:
        68:bb:6d:4b:14:7f:cb:c2:82:7c:cc:4c:f8:36:b9:3f:75:7b:
        40:12:ca:f1:d0:3f:00:89:12:14:da:0f:6c:e4:cf:9f:c3:bd:
        01:ef:89:f4:7b:90:08:e1:5f:7b:97:70:94:64:c1:7b:7a:cf:
        3e:f9:d4:45:a3:4e:d9:3e:9c:7b:04:05:d6:f1:9b:7d:02:41:
        da:aa:ce:e5:e1:4d:97:c7:a6:f2:dc:bd:52:fc:a8:48:d8:d5:
        ed:39:ac:ec:a0:49:25:3a:e0:b3:6a:03:66:38:7b:ec:3b:6a:
        e6:99:64:3b:e5:3a:01:6c:db:25:90:68:74:43:51:83:b9:77:
        d4:37:cd:99:95:20:f6:70:5b:c8:0b:ba:94:81:07:d5:86:6f:
        b5:97:f1:b2:74:3d:72:d0:f1:09:46:9e:5a:3a:e6:58:17:38:
        6b:f7:06:fa:58:79:bf:14:bf:11:1e:51:fb:3f:d5:9a:bf:62:
        c5:20:83:98:88:5a:d9:3e:80:ef:52:5f:aa:cb:fd:1e:74:e8:
        18:b3:fa:e0:0e:3a:dc:99:46:27:6c:00:37:a7:38:ec:a1:1d:
        19:e3:4e:21:bc:6a:64:9b:02:6e:d5:d6:4d:0b:52:67:2e:51:
        a3:76:ed:4d:47:ad:c3:08:e9:8f:4e:27:12:59:24:e1:ec:6b:
        48:80:64:1a:b3:25:d4:b6:b9:a8:83:a3:70:57:3e:5e:c0:d9:
        8f:2a:47:d4:26:47:93:71:f9:85:58:28:e4:40:a5:07:96:82:
        62:56:1a:6a:8d:e9:d6:83:b6:1a:09:f8:a5:84:de:f6:ce:71:
        4f:3a:50:cb:88:d1:96:e4:6d:92:0b:2f:cc:fa:48:6a:1f:d9:
        6a:0f:c1:78:b1:31:dd:90:f1:da:b7:e3:32:19:80:21:f4:25:
        29:f0:c0:cd:e6:42:c2:25:d0:df:17:d1:f3:2d:74:b0:f7:ad:
        f0:a1:41:5e:8e:29:b4:9c:27:53:a2:64:13:09:64:5c:d6:9c:
        04:0d:ce:69:19:f0:a8:4a:7f:c4:c6:b8:bc:fe:ad:67:69:1d:
        3d:03:3e:8b:4d:da:16:4a:4c:aa:19:0c:56:e4:0b:e3:ef:33:
        9b:d9:73:f7:1e:11:b4:22:92:ab:a5:c0:4a:18:bc:36:b9:39:
        0d:a7:9d:ea:63:e0:8e:57:85:84:4f:7e:4e:f8:ab:6c:e3:3a:
        d4:b9:fd:c4:ab:08:6b:0a
-----BEGIN CERTIFICATE-----
MIIFVzCCAz+gAwIBAgIJANoyY6KhLQANMA0GCSqGSIb3DQEBBQUAMEgxEzARBgoJ
kiaJk/IsZAEZFgNvcmcxFzAVBgoJkiaJk/IsZAEZFgdkYXRhb25lMRgwFgYDVQQD
DA9EYXRhT05FIFRlc3QgQ0EwHhcNMTIwMzEwMDEyMjQ0WhcNMTUwMzEwMDEyMjQ0
WjBNMRMwEQYKCZImiZPyLGQBGRYDb3JnMRcwFQYKCZImiZPyLGQBGRYHZGF0YW9u
ZTEdMBsGA1UEAwwUdXJuOm5vZGU6bW5TdGFnZU9SQzEwggEiMA0GCSqGSIb3DQEB
AQUAA4IBDwAwggEKAoIBAQC8m8URjkz6ywb83hDAg4Io7l8depFDPyk2LkeqhldU
u2bY2RK+ECwoVCg4qlcFhNGgzZ2mTK7ytPtutgE0GlHezdrR572vIlv6MYdKE84b
Np7SGiG7rTEtOzlvnm7pdXwOlnigv5pgSgm7zt2fvYL6UHQfz0INeYwFn10iPWnq
KUOsUV21Unqh/4xtFDxIVhoYlNyMfQ4PlzceSTGLQOAUcFf4wZvFAn/euNRTtQzN
VSOxil2lie5k9c0r+qKEkk/J3jcg+2JSw0RgB0TS7aIEyORDIIwwlDThyJEhWmIw
4KRJ/LpeR34dMSQMKFu5SajjR9UdT/PyvkZYM7SfyBWVAgMBAAGjggE9MIIBOTAJ
BgNVHRMEAjAAMCwGCWCGSAGG+EIBDQQfFh1PcGVuU1NMIEdlbmVyYXRlZCBDZXJ0
aWZpY2F0ZTAdBgNVHQ4EFgQUed3i5jVDpM/m7g02ECfWmG8CxuEwHwYDVR0jBBgw
FoAUnouCDeWXNED0y35aDDvKkf1aMXMwgb0GA1UdHwSBtTCBsjA6oDigNoY0aHR0
cDovL2NuLXVjc2ItMS5kYXRhb25lLm9yZy9jcmwvRGF0YU9ORVRlc3RfQ1JMLnBl
bTA5oDegNYYzaHR0cDovL2NuLXVubS0xLmRhdGFvbmUub3JnL2NybC9EYXRhT05F
VGVzdF9DUkwucGVtMDmgN6A1hjNodHRwOi8vY24tb3JjLTEuZGF0YW9uZS5vcmcv
Y3JsL0RhdGFPTkVUZXN0X0NSTC5wZW0wDQYJKoZIhvcNAQEFBQADggIBAItQLN/J
nhl5WYZhJ38KArKRaB6dOlEpOjq3MW76FyzIsOJpsPzAAMDFq+hWAloz5OTM+6MB
mWi7bUsUf8vCgnzMTPg2uT91e0ASyvHQPwCJEhTaD2zkz5/DvQHvifR7kAjhX3uX
cJRkwXt6zz751EWjTtk+nHsEBdbxm30CQdqqzuXhTZfHpvLcvVL8qEjY1e05rOyg
SSU64LNqA2Y4e+w7auaZZDvlOgFs2yWQaHRDUYO5d9Q3zZmVIPZwW8gLupSBB9WG
b7WX8bJ0PXLQ8QlGnlo65lgXOGv3BvpYeb8UvxEeUfs/1Zq/YsUgg5iIWtk+gO9S
X6rL/R506Biz+uAOOtyZRidsADenOOyhHRnjTiG8amSbAm7V1k0LUmcuUaN27U1H
rcMI6Y9OJxJZJOHsa0iAZBqzJdS2uaiDo3BXPl7A2Y8qR9QmR5Nx+YVYKORApQeW
gmJWGmqN6daDthoJ+KWE3vbOcU86UMuI0ZbkbZILL8z6SGof2WoPwXixMd2Q8dq3
4zIZgCH0JSnwwM3mQsIl0N8X0fMtdLD3rfChQV6OKbScJ1OiZBMJZFzWnAQNzmkZ
8KhKf8TGuLz+rWdpHT0DPotN2hZKTKoZDFbkC+PvM5vZc/ceEbQikqulwEoYvDa5
OQ2nnepj4I5XhYRPfk74q2zjOtS5/cSrCGsK
-----END CERTIFICATE-----
