Certificate:
    Data:
        Version: 3 (0x2)
        Serial Number:
            da:32:63:a2:a1:2d:00:0e
        Signature Algorithm: sha1WithRSAEncryption
        Issuer: dc=org/dc=dataone, CN=DataONE Test CA
        Validity
            Not Before: Mar 10 01:27:03 2012 GMT
            Not After : Mar 10 01:27:03 2015 GMT
        Subject: dc=org/dc=dataone, CN=urn:node:cnDevUCSB1
        Subject Public Key Info:
            Public Key Algorithm: rsaEncryption
                Public-Key: (2048 bit)
                Modulus:
                    00:ca:d4:95:d2:50:77:31:a0:9b:f9:05:18:12:e8:
                    ed:56:e6:e6:5d:dc:ae:c4:33:b1:2e:29:24:97:df:
                    9e:25:a8:8c:cf:ff:76:5c:8e:10:9b:23:69:1f:fa:
                    c3:29:06:54:85:b6:7f:97:b1:b0:af:bc:63:1b:21:
                    49:9b:49:c4:aa:b5:e4:eb:f2:a0:54:bb:97:0d:ab:
                    cc:da:15:e2:16:f1:26:60:ec:bd:84:e3:d1:d2:ac:
                    d6:e4:10:ac:5a:55:46:1e:34:2c:e3:c1:f4:e5:85:
                    ad:f4:4e:82:2d:20:d8:d2:48:52:ee:b9:b0:e6:87:
                    f9:50:90:1c:09:b2:15:0f:18:4d:22:5a:11:37:e8:
                    7f:a7:db:dc:a5:13:75:8e:b6:2e:02:e7:73:be:59:
                    8f:10:28:ca:ce:d3:ca:fc:4c:96:ab:df:c9:9d:a4:
                    7f:72:38:a0:a4:b2:df:b7:13:de:66:5e:c0:5f:dd:
                    7c:32:f5:ba:59:09:cc:07:9a:e4:a7:17:83:a2:be:
                    db:6e:40:7b:21:6c:c5:e9:9a:f2:12:f6:d1:4f:23:
                    7b:45:1f:9a:5e:38:97:e4:fc:f2:c4:fd:45:01:79:
                    cd:75:4c:16:ac:53:6d:fb:7a:41:51:3c:ea:00:e2:
                    43:44:ff:70:6d:8c:19:64:70:4b:2b:5b:88:28:9a:
                    5d:5b
                Exponent: 65537 (0x10001)
        X509v3 extensions:
            X509v3 Basic Constraints: 
                CA:FALSE
            Netscape Comment: 
                OpenSSL Generated Certificate
            X509v3 Subject Key Identifier: 
                87:9D:30:FB:EE:D7:52:7D:83:FD:AA:67:C8:18:22:9E:AD:BE:C0:0F
            X509v3 Authority Key Identifier: 
                keyid:9E:8B:82:0D:E5:97:34:40:F4:CB:7E:5A:0C:3B:CA:91:FD:5A:31:73

            X509v3 CRL Distribution Points: 

                Full Name:
                  URI:http://cn-ucsb-1.dataone.org/crl/DataONETest_CRL.pem

                Full Name:
                  URI:http://cn-unm-1.dataone.org/crl/DataONETest_CRL.pem

                Full Name:
                  URI:http://cn-orc-1.dataone.org/crl/DataONETest_CRL.pem

    Signature Algorithm: sha1WithRSAEncryption
        3d:55:22:5c:bc:2e:45:77:11:1c:0e:99:8c:ed:26:06:a8:90:
        cf:d1:3a:0a:db:a7:71:c2:a3:af:43:a2:bb:6c:94:6d:6d:a3:
        34:22:f6:1f:db:15:f2:a1:2e:c2:9c:ca:e3:a4:87:17:44:37:
        d3:39:5b:1e:13:5d:35:04:bf:d4:9d:61:41:14:74:87:c5:16:
        b7:a6:a5:b5:8c:25:a0:63:1b:f7:e5:cf:af:3c:d8:1d:68:37:
        ba:84:c8:e6:b6:b5:86:f4:d8:81:fe:c8:99:bd:45:d7:60:28:
        27:75:61:f4:36:ed:04:fb:9a:e9:80:4f:55:98:a6:6c:2f:61:
        a7:fd:69:82:90:40:1f:ae:b2:f1:04:62:c9:85:be:88:b9:6b:
        e5:70:bc:17:6b:79:22:6b:a7:cb:f1:b6:97:03:da:93:f6:19:
        b3:ec:fe:dd:14:45:cf:e9:1f:47:f8:aa:f1:8a:fd:51:fb:19:
        d4:ab:0c:a0:19:90:a0:7f:cc:f9:d6:65:a1:d2:bf:ed:b0:62:
        62:65:ab:36:0f:dc:49:c3:50:25:11:7c:59:d3:46:2c:dc:7f:
        e4:eb:18:f4:e8:f0:40:8a:f8:72:ce:d0:17:ed:e9:34:e3:ff:
        77:2d:81:7c:fa:31:9d:d7:f2:0d:fb:56:54:e7:73:fe:87:df:
        92:2c:e3:5b:b3:ce:96:90:49:2c:3f:95:c8:5d:6d:46:60:23:
        e1:21:36:de:52:84:88:5e:46:a9:1d:4f:7a:59:63:f6:b4:3b:
        fb:19:70:87:95:e2:ae:1f:e3:be:77:7b:fc:b2:5e:d9:2b:23:
        4d:61:2b:12:f5:d9:0d:0a:aa:a8:0a:0c:3b:34:5d:0c:b3:ce:
        d6:90:dc:be:e7:1d:62:f9:61:3c:73:d9:f4:7d:1d:54:6a:14:
        35:6a:22:dc:3f:5f:ba:3a:1d:14:c7:b2:7f:c0:ef:18:66:2b:
        24:b2:f9:12:e6:df:41:51:fe:fc:47:52:41:2f:0e:19:9b:00:
        a5:5b:a5:8f:16:2e:f9:4e:79:a8:a1:9f:f7:e6:5a:01:e2:68:
        28:dd:05:ed:e5:41:fe:15:e2:78:57:e9:7f:66:23:f8:1b:a4:
        84:8c:8a:f7:d9:bc:5b:e7:31:57:86:60:a0:77:00:7c:61:aa:
        df:d6:5e:ca:97:33:15:4b:92:54:d9:20:e2:69:98:46:3c:29:
        16:43:2a:f5:52:b0:50:49:a5:0d:ca:e6:f3:f8:8d:a5:e7:18:
        bf:84:b3:47:93:a0:8c:d0:47:f1:4c:f5:33:4d:6c:e4:3e:f4:
        33:30:00:a2:32:7d:9b:fa:04:0f:ce:3f:00:fa:bf:34:00:ab:
        2c:ca:20:81:bf:cc:73:bd
-----BEGIN CERTIFICATE-----
MIIFVjCCAz6gAwIBAgIJANoyY6KhLQAOMA0GCSqGSIb3DQEBBQUAMEgxEzARBgoJ
kiaJk/IsZAEZFgNvcmcxFzAVBgoJkiaJk/IsZAEZFgdkYXRhb25lMRgwFgYDVQQD
DA9EYXRhT05FIFRlc3QgQ0EwHhcNMTIwMzEwMDEyNzAzWhcNMTUwMzEwMDEyNzAz
WjBMMRMwEQYKCZImiZPyLGQBGRYDb3JnMRcwFQYKCZImiZPyLGQBGRYHZGF0YW9u
ZTEcMBoGA1UEAwwTdXJuOm5vZGU6Y25EZXZVQ1NCMTCCASIwDQYJKoZIhvcNAQEB
BQADggEPADCCAQoCggEBAMrUldJQdzGgm/kFGBLo7Vbm5l3crsQzsS4pJJffniWo
jM//dlyOEJsjaR/6wykGVIW2f5exsK+8YxshSZtJxKq15OvyoFS7lw2rzNoV4hbx
JmDsvYTj0dKs1uQQrFpVRh40LOPB9OWFrfROgi0g2NJIUu65sOaH+VCQHAmyFQ8Y
TSJaETfof6fb3KUTdY62LgLnc75ZjxAoys7TyvxMlqvfyZ2kf3I4oKSy37cT3mZe
wF/dfDL1ulkJzAea5KcXg6K+225AeyFsxema8hL20U8je0Ufml44l+T88sT9RQF5
zXVMFqxTbft6QVE86gDiQ0T/cG2MGWRwSytbiCiaXVsCAwEAAaOCAT0wggE5MAkG
A1UdEwQCMAAwLAYJYIZIAYb4QgENBB8WHU9wZW5TU0wgR2VuZXJhdGVkIENlcnRp
ZmljYXRlMB0GA1UdDgQWBBSHnTD77tdSfYP9qmfIGCKerb7ADzAfBgNVHSMEGDAW
gBSei4IN5Zc0QPTLfloMO8qR/VoxczCBvQYDVR0fBIG1MIGyMDqgOKA2hjRodHRw
Oi8vY24tdWNzYi0xLmRhdGFvbmUub3JnL2NybC9EYXRhT05FVGVzdF9DUkwucGVt
MDmgN6A1hjNodHRwOi8vY24tdW5tLTEuZGF0YW9uZS5vcmcvY3JsL0RhdGFPTkVU
ZXN0X0NSTC5wZW0wOaA3oDWGM2h0dHA6Ly9jbi1vcmMtMS5kYXRhb25lLm9yZy9j
cmwvRGF0YU9ORVRlc3RfQ1JMLnBlbTANBgkqhkiG9w0BAQUFAAOCAgEAPVUiXLwu
RXcRHA6ZjO0mBqiQz9E6CtunccKjr0Oiu2yUbW2jNCL2H9sV8qEuwpzK46SHF0Q3
0zlbHhNdNQS/1J1hQRR0h8UWt6altYwloGMb9+XPrzzYHWg3uoTI5ra1hvTYgf7I
mb1F12AoJ3Vh9DbtBPua6YBPVZimbC9hp/1pgpBAH66y8QRiyYW+iLlr5XC8F2t5
Imuny/G2lwPak/YZs+z+3RRFz+kfR/iq8Yr9UfsZ1KsMoBmQoH/M+dZlodK/7bBi
YmWrNg/cScNQJRF8WdNGLNx/5OsY9OjwQIr4cs7QF+3pNOP/dy2BfPoxndfyDftW
VOdz/offkizjW7POlpBJLD+VyF1tRmAj4SE23lKEiF5GqR1Pellj9rQ7+xlwh5Xi
rh/jvnd7/LJe2SsjTWErEvXZDQqqqAoMOzRdDLPO1pDcvucdYvlhPHPZ9H0dVGoU
NWoi3D9fujodFMeyf8DvGGYrJLL5EubfQVH+/EdSQS8OGZsApVuljxYu+U55qKGf
9+ZaAeJoKN0F7eVB/hXieFfpf2Yj+BukhIyK99m8W+cxV4ZgoHcAfGGq39Zeypcz
FUuSVNkg4mmYRjwpFkMq9VKwUEmlDcrm8/iNpecYv4SzR5OgjNBH8Uz1M01s5D70
MzAAojJ9m/oED84/APq/NACrLMoggb/Mc70=
-----END CERTIFICATE-----
