Certificate:
    Data:
        Version: 3 (0x2)
        Serial Number:
            da:32:63:a2:a1:2d:00:20
        Signature Algorithm: sha1WithRSAEncryption
        Issuer: dc=org/dc=dataone, CN=DataONE Test CA
        Validity
            Not Before: Apr 11 00:13:11 2012 GMT
            Not After : Apr 11 00:13:11 2015 GMT
        Subject: dc=org/dc=dataone, CN=urn:node:D1USGS2
        Subject Public Key Info:
            Public Key Algorithm: rsaEncryption
                Public-Key: (2048 bit)
                Modulus:
                    00:d6:e9:00:63:8e:99:06:89:4a:db:f0:67:77:ea:
                    b8:fb:7d:44:96:4c:5f:7a:4a:69:6e:63:dd:d4:1e:
                    9d:b1:b8:7c:6e:91:8f:4a:b5:c2:2f:41:22:c1:52:
                    90:6b:8e:a4:48:2f:7e:72:97:dd:0a:a3:b7:22:47:
                    ca:cb:74:14:61:b7:44:3a:31:c4:61:6d:98:f3:d0:
                    a8:41:fc:ab:5a:b3:f1:a5:58:1f:2e:76:c3:a0:7f:
                    69:6b:ba:4f:de:88:6e:ff:ac:03:a9:28:9e:d7:85:
                    bd:cb:a1:92:54:fd:aa:6e:90:9f:17:d9:60:f7:76:
                    9a:c3:52:31:d7:ab:66:dc:c0:c5:cc:14:8f:99:b4:
                    15:f1:96:84:be:8d:63:1a:0d:7d:a0:22:ef:dc:14:
                    5b:84:92:fe:b8:11:3e:1d:c7:49:12:09:2b:89:59:
                    5a:ed:f9:41:b8:3b:1c:1a:4e:e5:1d:f8:98:8f:ec:
                    2a:87:cf:94:04:b4:5b:06:90:27:d0:dd:af:03:e0:
                    ce:90:32:ce:ea:a8:57:ac:53:d4:05:3d:53:c2:3b:
                    c2:32:be:b6:b7:8f:5d:26:23:7a:5f:9c:5e:55:60:
                    7a:6e:d8:1e:69:71:a6:73:dc:9d:11:14:ba:e6:20:
                    fa:56:15:e8:68:83:a5:55:50:91:b4:b2:0b:02:cc:
                    e2:55
                Exponent: 65537 (0x10001)
        X509v3 extensions:
            X509v3 Basic Constraints: 
                CA:FALSE
            Netscape Comment: 
                OpenSSL Generated Certificate
            X509v3 Subject Key Identifier: 
                38:95:1C:B4:3A:A9:12:3A:0E:A9:24:06:EE:A5:44:5E:0A:81:BB:5B
            X509v3 Authority Key Identifier: 
                keyid:9E:8B:82:0D:E5:97:34:40:F4:CB:7E:5A:0C:3B:CA:91:FD:5A:31:73

            X509v3 CRL Distribution Points: 

                Full Name:
                  URI:http://cn-ucsb-1.dataone.org/crl/DataONETest_CRL.pem

                Full Name:
                  URI:http://cn-unm-1.dataone.org/crl/DataONETest_CRL.pem

                Full Name:
                  URI:http://cn-orc-1.dataone.org/crl/DataONETest_CRL.pem

    Signature Algorithm: sha1WithRSAEncryption
        3a:cb:5b:a8:00:ac:32:33:35:f4:0a:7e:e2:c6:09:e7:eb:05:
        51:fe:70:79:1c:3c:4b:66:af:58:47:6b:e4:48:b3:3f:98:0a:
        eb:90:c6:24:c8:3c:05:d4:e0:7e:2e:eb:70:c6:f5:e6:4c:39:
        b7:f1:8d:4c:14:73:78:3d:d6:37:ac:ed:90:ce:56:f5:2f:df:
        27:48:eb:b1:68:83:7e:5d:a0:56:df:26:b8:7f:a2:f8:39:61:
        4c:92:06:b5:69:a7:72:86:6a:b6:cf:08:a4:69:31:64:c1:53:
        c8:a8:0f:e3:99:87:19:32:d7:ab:44:d9:66:02:80:8b:e6:3d:
        70:2f:51:26:b0:bd:a7:73:29:47:03:94:51:bc:7d:b0:01:e4:
        11:fe:f9:c2:76:fd:32:56:d2:34:b6:4f:4a:7f:c8:3c:50:53:
        75:85:4c:ee:ad:de:dd:f9:e0:17:6a:3d:1a:8d:34:82:24:25:
        c5:e8:27:be:70:b2:13:fd:37:48:53:b7:8a:3c:1f:52:11:40:
        f8:bd:17:35:32:d4:cb:b5:37:f5:80:07:c7:ec:a8:42:c5:e8:
        f9:e6:14:72:4b:f7:67:7e:97:9b:cc:fd:49:94:a0:b6:c8:85:
        79:40:6f:97:8d:ec:b1:d9:e8:21:5f:01:69:ea:f7:d4:fa:1a:
        ff:02:4f:3b:be:07:73:94:bf:c3:29:f5:0e:b3:fa:27:38:d9:
        6a:25:b5:77:32:b4:a4:0d:70:fc:00:0b:c8:af:a1:82:9f:bf:
        2e:f5:89:2a:b8:4a:db:a9:39:52:42:93:d0:4d:e3:3b:a7:83:
        99:d7:b0:c2:ac:af:5a:e0:9f:9c:6c:ca:c8:43:68:5a:bc:1a:
        f3:ae:d9:21:a3:2d:33:2d:54:f0:d6:1a:3e:88:22:59:07:9c:
        4d:e9:14:5a:12:97:9b:f9:08:6f:b3:a2:09:48:8c:fb:89:95:
        83:0d:21:8b:ce:e1:a4:6c:38:71:25:32:d3:d9:c7:a1:80:02:
        9b:cb:a6:ae:fd:42:4c:5d:95:f0:db:79:e7:3c:eb:4b:43:96:
        88:35:c5:49:d2:b2:0d:d3:d5:31:5c:42:f3:41:a3:b7:0a:7a:
        41:42:47:b4:e8:b1:f0:25:c2:af:73:3f:e3:5c:00:98:9f:84:
        6c:15:b8:6d:72:11:47:b7:81:b2:fc:7f:ee:fc:a4:1b:dd:09:
        10:21:00:d4:cf:a5:ef:fe:5c:5f:1f:26:af:79:5d:09:87:76:
        8b:0f:99:8f:e7:15:e9:fc:55:cc:0a:ef:62:20:b4:c0:a4:3e:
        9c:a3:43:35:af:45:c2:d9:ca:81:1c:8b:7f:ae:3d:23:55:d1:
        ae:33:97:64:ac:d2:28:d2
-----BEGIN CERTIFICATE-----
MIIFUzCCAzugAwIBAgIJANoyY6KhLQAgMA0GCSqGSIb3DQEBBQUAMEgxEzARBgoJ
kiaJk/IsZAEZFgNvcmcxFzAVBgoJkiaJk/IsZAEZFgdkYXRhb25lMRgwFgYDVQQD
DA9EYXRhT05FIFRlc3QgQ0EwHhcNMTIwNDExMDAxMzExWhcNMTUwNDExMDAxMzEx
WjBJMRMwEQYKCZImiZPyLGQBGRYDb3JnMRcwFQYKCZImiZPyLGQBGRYHZGF0YW9u
ZTEZMBcGA1UEAwwQdXJuOm5vZGU6RDFVU0dTMjCCASIwDQYJKoZIhvcNAQEBBQAD
ggEPADCCAQoCggEBANbpAGOOmQaJStvwZ3fquPt9RJZMX3pKaW5j3dQenbG4fG6R
j0q1wi9BIsFSkGuOpEgvfnKX3QqjtyJHyst0FGG3RDoxxGFtmPPQqEH8q1qz8aVY
Hy52w6B/aWu6T96Ibv+sA6konteFvcuhklT9qm6QnxfZYPd2msNSMderZtzAxcwU
j5m0FfGWhL6NYxoNfaAi79wUW4SS/rgRPh3HSRIJK4lZWu35Qbg7HBpO5R34mI/s
KofPlAS0WwaQJ9DdrwPgzpAyzuqoV6xT1AU9U8I7wjK+trePXSYjel+cXlVgem7Y
HmlxpnPcnREUuuYg+lYV6GiDpVVQkbSyCwLM4lUCAwEAAaOCAT0wggE5MAkGA1Ud
EwQCMAAwLAYJYIZIAYb4QgENBB8WHU9wZW5TU0wgR2VuZXJhdGVkIENlcnRpZmlj
YXRlMB0GA1UdDgQWBBQ4lRy0OqkSOg6pJAbupUReCoG7WzAfBgNVHSMEGDAWgBSe
i4IN5Zc0QPTLfloMO8qR/VoxczCBvQYDVR0fBIG1MIGyMDqgOKA2hjRodHRwOi8v
Y24tdWNzYi0xLmRhdGFvbmUub3JnL2NybC9EYXRhT05FVGVzdF9DUkwucGVtMDmg
N6A1hjNodHRwOi8vY24tdW5tLTEuZGF0YW9uZS5vcmcvY3JsL0RhdGFPTkVUZXN0
X0NSTC5wZW0wOaA3oDWGM2h0dHA6Ly9jbi1vcmMtMS5kYXRhb25lLm9yZy9jcmwv
RGF0YU9ORVRlc3RfQ1JMLnBlbTANBgkqhkiG9w0BAQUFAAOCAgEAOstbqACsMjM1
9Ap+4sYJ5+sFUf5weRw8S2avWEdr5EizP5gK65DGJMg8BdTgfi7rcMb15kw5t/GN
TBRzeD3WN6ztkM5W9S/fJ0jrsWiDfl2gVt8muH+i+DlhTJIGtWmncoZqts8IpGkx
ZMFTyKgP45mHGTLXq0TZZgKAi+Y9cC9RJrC9p3MpRwOUUbx9sAHkEf75wnb9MlbS
NLZPSn/IPFBTdYVM7q3e3fngF2o9Go00giQlxegnvnCyE/03SFO3ijwfUhFA+L0X
NTLUy7U39YAHx+yoQsXo+eYUckv3Z36Xm8z9SZSgtsiFeUBvl43ssdnoIV8Baer3
1Poa/wJPO74Hc5S/wyn1DrP6JzjZaiW1dzK0pA1w/AALyK+hgp+/LvWJKrhK26k5
UkKT0E3jO6eDmdewwqyvWuCfnGzKyENoWrwa867ZIaMtMy1U8NYaPogiWQecTekU
WhKXm/kIb7OiCUiM+4mVgw0hi87hpGw4cSUy09nHoYACm8umrv1CTF2V8Nt55zzr
S0OWiDXFSdKyDdPVMVxC80Gjtwp6QUJHtOix8CXCr3M/41wAmJ+EbBW4bXIRR7eB
svx/7vykG90JECEA1M+l7/5cXx8mr3ldCYd2iw+Zj+cV6fxVzArvYiC0wKQ+nKND
Na9FwtnKgRyLf649I1XRrjOXZKzSKNI=
-----END CERTIFICATE-----
