Certificate:
    Data:
        Version: 3 (0x2)
        Serial Number:
            da:32:63:a2:a1:2d:00:13
        Signature Algorithm: sha1WithRSAEncryption
        Issuer: dc=org/dc=dataone, CN=DataONE Test CA
        Validity
            Not Before: Mar 10 01:28:20 2012 GMT
            Not After : Mar 10 01:28:20 2015 GMT
        Subject: dc=org/dc=dataone, CN=urn:node:DEMO3
        Subject Public Key Info:
            Public Key Algorithm: rsaEncryption
                Public-Key: (2048 bit)
                Modulus:
                    00:d6:d5:c6:7c:d0:9a:73:95:08:5c:14:65:1a:fd:
                    1e:c2:7e:6f:af:30:c0:cc:ae:bb:a2:f1:62:60:32:
                    b8:85:69:c9:bc:6a:92:fb:1a:de:95:05:d2:d5:f7:
                    03:dd:52:7e:8f:00:16:06:bc:1f:b4:32:d3:0f:8b:
                    9a:77:21:08:84:4c:ae:fd:13:18:19:93:79:7d:01:
                    d3:c3:9d:e4:e1:ff:09:26:6c:41:9d:5f:ae:10:d8:
                    8f:06:a1:00:db:e2:10:86:9e:08:63:2a:9a:3c:b4:
                    b3:f4:16:fd:ae:38:c1:03:c3:bc:43:60:78:fc:a4:
                    15:5d:6c:7c:c6:c6:75:cd:1f:93:a1:6e:7f:b6:9f:
                    b1:66:33:e8:ea:f2:03:9c:4d:83:d2:0b:c6:04:65:
                    62:78:f4:50:ac:fd:6c:4c:56:4e:dc:75:7c:1b:42:
                    c0:85:61:95:ee:3f:5b:23:8b:24:01:e5:88:8c:24:
                    19:26:77:5e:df:8c:64:da:3c:30:a3:7c:b7:67:79:
                    df:45:5c:93:e7:2f:f3:19:7f:19:a6:73:d8:5e:72:
                    b7:50:9d:15:f4:00:0c:51:00:c6:ec:e5:92:55:24:
                    68:51:94:d4:be:5d:3a:bc:fa:74:d0:15:6f:ab:e8:
                    e3:b0:d8:6a:d4:6f:85:fd:a8:71:9b:29:86:2a:71:
                    f4:ad
                Exponent: 65537 (0x10001)
        X509v3 extensions:
            X509v3 Basic Constraints: 
                CA:FALSE
            Netscape Comment: 
                OpenSSL Generated Certificate
            X509v3 Subject Key Identifier: 
                6F:06:65:D6:E9:F3:A9:27:49:1B:B4:0B:12:32:A5:51:2D:21:35:D4
            X509v3 Authority Key Identifier: 
                keyid:9E:8B:82:0D:E5:97:34:40:F4:CB:7E:5A:0C:3B:CA:91:FD:5A:31:73

            X509v3 CRL Distribution Points: 

                Full Name:
                  URI:http://cn-ucsb-1.dataone.org/crl/DataONETest_CRL.pem

                Full Name:
                  URI:http://cn-unm-1.dataone.org/crl/DataONETest_CRL.pem

                Full Name:
                  URI:http://cn-orc-1.dataone.org/crl/DataONETest_CRL.pem

    Signature Algorithm: sha1WithRSAEncryption
        39:a8:5e:d1:35:b3:74:a7:df:70:0a:21:d6:7e:ed:a9:5a:7f:
        9d:ab:52:09:b0:84:a5:33:b3:a9:89:6e:1c:bd:0a:86:95:01:
        09:37:9c:e6:cc:bd:83:5d:19:d7:26:56:00:c7:16:fa:16:67:
        1d:5d:fc:f5:c5:72:3f:7f:bf:2c:e3:bb:ca:10:0e:94:ae:67:
        93:ec:d9:0e:87:95:ec:98:d4:7d:0e:78:46:3e:dc:16:59:74:
        47:be:9e:64:75:67:fe:d0:fc:c9:12:b7:ab:35:09:aa:72:4e:
        3d:33:ab:df:76:13:49:7a:f7:fa:28:7d:a0:fd:84:78:d3:f7:
        f7:d1:84:4a:a3:c0:02:0b:dc:bf:92:04:2e:e0:3f:8d:39:f3:
        e9:41:14:6d:1f:4b:06:db:fe:72:02:49:d9:8a:aa:d6:65:ab:
        8c:03:ee:1b:59:6c:63:86:9f:44:c1:f4:de:61:1a:91:79:14:
        e7:ac:ba:b6:af:48:c3:05:19:de:c1:51:ef:b7:48:b3:52:50:
        68:01:17:f5:97:f6:e4:23:9c:cb:01:ad:73:46:d3:92:25:85:
        e0:9b:5a:1c:69:cc:b8:a2:7d:e4:2d:b1:68:36:c5:99:20:32:
        ef:46:34:1e:27:6d:d6:53:ee:71:90:18:79:88:4b:5a:46:dd:
        21:03:2a:8b:27:7a:b0:f0:c0:a2:b8:cc:0a:68:8a:fe:22:48:
        10:67:1e:21:38:40:61:6b:88:cc:08:9f:3b:9b:a6:da:9e:68:
        13:35:ba:bd:48:37:04:1f:72:a8:8f:96:82:09:28:dc:fe:df:
        93:53:a6:1e:18:a5:e2:b2:41:ae:69:89:7d:33:cc:26:95:ab:
        8a:8f:b6:55:a8:64:0c:b9:06:82:11:51:84:6d:d2:6d:38:cf:
        34:2f:38:ed:d9:b6:fe:54:6b:88:46:d3:02:74:d2:91:55:c2:
        fa:b3:04:05:59:57:e0:17:eb:40:7e:8f:94:2b:eb:ab:e6:f1:
        a7:89:0b:1b:6b:2b:b5:94:64:5a:01:9b:58:49:18:05:fb:06:
        3f:e9:66:63:24:88:05:a1:80:08:5f:bc:a0:12:55:c9:ea:9c:
        dc:d1:e1:c1:7f:f6:91:4e:b1:cc:63:d1:f5:94:7d:0b:3f:0c:
        38:8b:c7:b2:e9:e1:56:63:f6:0d:3f:3a:72:12:81:0c:dd:ca:
        61:df:e2:b4:f2:e3:c0:b6:55:71:44:9f:77:00:ce:91:ff:6f:
        9a:db:b7:cd:79:76:b1:2b:25:af:6c:ff:ff:4d:32:06:7c:30:
        09:16:eb:6c:1f:a4:ca:b5:c1:83:21:eb:24:79:46:c7:4d:6e:
        18:5b:f0:81:15:92:36:60
-----BEGIN CERTIFICATE-----
MIIFUTCCAzmgAwIBAgIJANoyY6KhLQATMA0GCSqGSIb3DQEBBQUAMEgxEzARBgoJ
kiaJk/IsZAEZFgNvcmcxFzAVBgoJkiaJk/IsZAEZFgdkYXRhb25lMRgwFgYDVQQD
DA9EYXRhT05FIFRlc3QgQ0EwHhcNMTIwMzEwMDEyODIwWhcNMTUwMzEwMDEyODIw
WjBHMRMwEQYKCZImiZPyLGQBGRYDb3JnMRcwFQYKCZImiZPyLGQBGRYHZGF0YW9u
ZTEXMBUGA1UEAwwOdXJuOm5vZGU6REVNTzMwggEiMA0GCSqGSIb3DQEBAQUAA4IB
DwAwggEKAoIBAQDW1cZ80JpzlQhcFGUa/R7Cfm+vMMDMrrui8WJgMriFacm8apL7
Gt6VBdLV9wPdUn6PABYGvB+0MtMPi5p3IQiETK79ExgZk3l9AdPDneTh/wkmbEGd
X64Q2I8GoQDb4hCGnghjKpo8tLP0Fv2uOMEDw7xDYHj8pBVdbHzGxnXNH5Ohbn+2
n7FmM+jq8gOcTYPSC8YEZWJ49FCs/WxMVk7cdXwbQsCFYZXuP1sjiyQB5YiMJBkm
d17fjGTaPDCjfLdned9FXJPnL/MZfxmmc9hecrdQnRX0AAxRAMbs5ZJVJGhRlNS+
XTq8+nTQFW+r6OOw2GrUb4X9qHGbKYYqcfStAgMBAAGjggE9MIIBOTAJBgNVHRME
AjAAMCwGCWCGSAGG+EIBDQQfFh1PcGVuU1NMIEdlbmVyYXRlZCBDZXJ0aWZpY2F0
ZTAdBgNVHQ4EFgQUbwZl1unzqSdJG7QLEjKlUS0hNdQwHwYDVR0jBBgwFoAUnouC
DeWXNED0y35aDDvKkf1aMXMwgb0GA1UdHwSBtTCBsjA6oDigNoY0aHR0cDovL2Nu
LXVjc2ItMS5kYXRhb25lLm9yZy9jcmwvRGF0YU9ORVRlc3RfQ1JMLnBlbTA5oDeg
NYYzaHR0cDovL2NuLXVubS0xLmRhdGFvbmUub3JnL2NybC9EYXRhT05FVGVzdF9D
UkwucGVtMDmgN6A1hjNodHRwOi8vY24tb3JjLTEuZGF0YW9uZS5vcmcvY3JsL0Rh
dGFPTkVUZXN0X0NSTC5wZW0wDQYJKoZIhvcNAQEFBQADggIBADmoXtE1s3Sn33AK
IdZ+7alaf52rUgmwhKUzs6mJbhy9CoaVAQk3nObMvYNdGdcmVgDHFvoWZx1d/PXF
cj9/vyzju8oQDpSuZ5Ps2Q6HleyY1H0OeEY+3BZZdEe+nmR1Z/7Q/MkSt6s1Capy
Tj0zq992E0l69/oofaD9hHjT9/fRhEqjwAIL3L+SBC7gP4058+lBFG0fSwbb/nIC
SdmKqtZlq4wD7htZbGOGn0TB9N5hGpF5FOesuravSMMFGd7BUe+3SLNSUGgBF/WX
9uQjnMsBrXNG05IlheCbWhxpzLiifeQtsWg2xZkgMu9GNB4nbdZT7nGQGHmIS1pG
3SEDKosnerDwwKK4zApoiv4iSBBnHiE4QGFriMwInzubptqeaBM1ur1INwQfcqiP
loIJKNz+35NTph4YpeKyQa5piX0zzCaVq4qPtlWoZAy5BoIRUYRt0m04zzQvOO3Z
tv5Ua4hG0wJ00pFVwvqzBAVZV+AX60B+j5Qr66vm8aeJCxtrK7WUZFoBm1hJGAX7
Bj/pZmMkiAWhgAhfvKASVcnqnNzR4cF/9pFOscxj0fWUfQs/DDiLx7Lp4VZj9g0/
OnISgQzdymHf4rTy48C2VXFEn3cAzpH/b5rbt815drErJa9s//9NMgZ8MAkW62wf
pMq1wYMh6yR5RsdNbhhb8IEVkjZg
-----END CERTIFICATE-----
