Certificate:
    Data:
        Version: 3 (0x2)
        Serial Number:
            ac:ee:8c:a3:21:4d:a1:97
        Signature Algorithm: sha1WithRSAEncryption
        Issuer: dc=org/dc=dataone, CN=DataONE Root CA
        Validity
            Not Before: Mar  8 01:34:05 2012 GMT
            Not After : Feb 13 01:34:05 2112 GMT
        Subject: dc=org/dc=dataone, CN=DataONE Root CA
        Subject Public Key Info:
            Public Key Algorithm: rsaEncryption
                Public-Key: (4096 bit)
                Modulus:
                    00:b5:c5:5c:69:c7:81:d2:b1:90:fe:6e:9d:d1:ab:
                    23:82:24:66:b4:ad:e2:26:b3:bb:02:b3:fe:95:df:
                    46:93:09:ec:d6:5a:98:c8:27:33:c9:99:9f:ea:14:
                    4f:97:b4:64:f8:18:f9:45:a2:8a:3b:fe:47:d4:23:
                    69:8e:ab:c8:d8:95:7d:45:d7:4a:2f:8a:21:95:92:
                    d5:e4:92:ac:01:17:d1:3e:34:6e:2f:83:08:42:b4:
                    22:61:83:26:98:07:29:10:d7:d2:99:22:35:c9:a9:
                    2e:79:43:8f:86:f7:8c:1d:b4:93:b7:07:74:1b:c1:
                    0f:8b:0f:6b:34:f8:61:07:54:b9:7d:93:74:60:be:
                    a6:a4:0c:77:1e:11:8e:a1:26:a7:68:98:46:81:f4:
                    9a:5d:db:24:5e:11:a6:d2:b6:4e:cd:54:66:cb:a4:
                    8d:7e:04:70:84:95:17:6c:06:f0:6b:77:64:fd:be:
                    67:bd:bb:14:c8:2e:e2:dc:a4:35:fa:52:2e:84:f8:
                    c0:9f:78:9c:c6:d7:b3:9e:ad:2c:91:0a:9b:68:3a:
                    b3:76:7f:98:64:a2:8b:a4:75:49:67:a8:0d:f2:27:
                    11:8b:27:dc:f4:92:39:1c:7c:93:ce:a8:5a:92:f9:
                    09:ec:0b:78:05:e5:09:67:f3:38:ed:1a:76:a4:e9:
                    96:af:eb:33:53:49:83:23:61:57:32:9c:37:20:81:
                    87:bc:40:8b:59:90:96:eb:46:6a:6d:b3:7d:ea:46:
                    b6:ed:ff:5e:4a:a5:30:a2:94:00:30:06:e8:a5:7c:
                    ce:d3:e0:cd:b2:c3:f9:ee:b0:40:87:fa:6a:f3:9c:
                    8b:d4:80:78:aa:12:d0:06:23:17:5a:cd:eb:d7:9e:
                    79:8f:2a:9d:63:41:4a:ab:cd:d7:ea:87:f4:90:41:
                    5c:1c:f4:1e:20:d7:7b:f7:ea:42:3f:8d:1b:05:ff:
                    60:8c:af:06:7e:88:33:3c:7a:f4:b0:68:e5:78:f0:
                    bc:2c:fc:45:22:0d:03:ee:94:eb:31:59:40:35:69:
                    47:59:57:a3:a5:89:ae:55:fb:6d:76:15:b9:7f:87:
                    94:26:1b:49:87:8e:a4:53:b2:e6:d2:e4:3c:31:c4:
                    8f:d8:fe:a7:92:07:e8:7d:db:0b:a1:59:46:a9:32:
                    cf:65:74:b2:58:d7:4b:0e:fe:f9:cc:06:54:62:99:
                    c7:e9:fd:12:02:e9:3a:3a:50:8d:7a:2a:cf:76:85:
                    5b:c8:3c:8e:28:65:58:33:ad:b9:e3:2e:d2:4b:f6:
                    41:81:40:be:c5:1a:94:59:86:6e:3a:c7:d3:48:d7:
                    b8:29:f6:96:e2:1a:92:b6:fa:19:00:c0:ad:cb:86:
                    34:0e:5d
                Exponent: 65537 (0x10001)
        X509v3 extensions:
            X509v3 Subject Key Identifier: 
                71:E6:9D:93:23:19:34:A2:75:92:FE:7C:2A:8B:66:E0:F3:03:6E:EA
            X509v3 Authority Key Identifier: 
                keyid:71:E6:9D:93:23:19:34:A2:75:92:FE:7C:2A:8B:66:E0:F3:03:6E:EA

            X509v3 Basic Constraints: 
                CA:TRUE
            X509v3 CRL Distribution Points: 

                Full Name:
                  URI:http://cn-ucsb-1.dataone.org/crl/DataONERootCA_CRL.pem

                Full Name:
                  URI:http://cn-unm-1.dataone.org/crl/DataONERootCA_CRL.pem

                Full Name:
                  URI:http://cn-orc-1.dataone.org/crl/DataONERootCA_CRL.pem

    Signature Algorithm: sha1WithRSAEncryption
        4b:12:8a:cf:7e:30:0d:14:c4:3a:f3:11:44:93:d6:22:f9:e0:
        22:f2:a1:42:09:90:5a:c7:47:c4:be:46:fb:17:00:06:97:5a:
        06:e3:5c:3d:9a:46:73:e9:f8:c6:36:4e:f7:de:9a:8e:40:ba:
        99:a1:90:68:0b:eb:a9:e7:7c:cc:43:04:cb:bb:39:66:72:d1:
        1e:ce:d4:8b:5e:a3:3d:1b:08:bb:0a:c4:51:bd:62:fd:f3:9f:
        54:45:23:ba:9e:20:9f:8a:4c:fb:d6:a0:4d:82:7d:5c:dd:62:
        c1:a6:40:90:77:d0:46:92:37:92:87:82:14:81:e9:91:11:d6:
        5c:b9:05:5a:70:fc:f6:39:9d:a9:80:39:8f:53:4a:37:64:47:
        4b:e5:45:15:cf:dc:d9:4f:38:17:54:18:25:e5:b6:38:ae:87:
        70:75:4d:4f:bc:32:70:0e:5d:22:fb:79:bb:0d:02:d9:3c:1e:
        8e:90:de:b3:3f:bb:80:ba:ae:38:0d:d2:fa:76:ac:1e:76:7f:
        f2:91:6d:d8:67:6a:e4:c5:6c:e0:bf:b1:21:bc:79:84:1d:89:
        e2:36:d1:a7:26:53:85:77:ca:76:ea:6e:b3:36:a7:6b:aa:50:
        8e:c2:bf:18:d5:2b:a4:b5:ed:34:a2:bc:f4:18:7a:e3:0b:fe:
        fb:58:9f:94:7d:14:66:81:93:db:4a:b3:67:fe:5e:d1:c3:97:
        d5:e6:70:ff:a1:93:42:da:34:44:aa:77:cd:78:54:e2:3b:45:
        d9:2b:ea:cb:3b:6e:c4:02:95:29:5f:3e:63:43:8f:59:71:80:
        ec:86:27:92:19:5d:e4:0a:75:ce:10:eb:bf:52:3d:8e:ba:4d:
        d7:f3:55:76:f0:a2:ec:32:21:89:93:0a:6a:3b:3c:4a:fd:51:
        80:df:2d:be:6c:85:0f:41:cf:3d:e4:4f:76:93:45:84:4d:f7:
        ca:f3:c9:61:fc:17:80:2b:98:9c:c9:10:04:90:3c:ac:60:45:
        85:5f:5c:88:e9:2a:9c:bc:92:20:2d:f5:ee:5c:69:07:14:6b:
        ae:e7:6c:d8:fe:f0:fc:94:f5:db:07:d6:18:fc:20:f4:09:ea:
        a3:2c:f0:26:fe:69:d6:d2:cf:8b:53:c4:51:55:16:12:c0:c6:
        4d:d0:9e:f2:50:3a:0a:8b:51:da:55:f0:a1:e4:ca:69:9f:5c:
        0b:40:f8:fa:85:02:9b:d9:e0:60:48:67:1f:75:b9:85:a3:dc:
        3f:a1:9a:3d:18:d6:dc:cd:10:7b:90:16:4a:09:4d:07:a0:27:
        55:f6:af:c6:f2:b0:ab:1e:88:09:1e:49:c6:11:5f:52:7f:72:
        22:52:ff:d3:56:33:1f:5c
-----BEGIN CERTIFICATE-----
MIIGLzCCBBegAwIBAgIJAKzujKMhTaGXMA0GCSqGSIb3DQEBBQUAMEgxEzARBgoJ
kiaJk/IsZAEZFgNvcmcxFzAVBgoJkiaJk/IsZAEZFgdkYXRhb25lMRgwFgYDVQQD
DA9EYXRhT05FIFJvb3QgQ0EwIBcNMTIwMzA4MDEzNDA1WhgPMjExMjAyMTMwMTM0
MDVaMEgxEzARBgoJkiaJk/IsZAEZFgNvcmcxFzAVBgoJkiaJk/IsZAEZFgdkYXRh
b25lMRgwFgYDVQQDDA9EYXRhT05FIFJvb3QgQ0EwggIiMA0GCSqGSIb3DQEBAQUA
A4ICDwAwggIKAoICAQC1xVxpx4HSsZD+bp3RqyOCJGa0reIms7sCs/6V30aTCezW
WpjIJzPJmZ/qFE+XtGT4GPlFooo7/kfUI2mOq8jYlX1F10oviiGVktXkkqwBF9E+
NG4vgwhCtCJhgyaYBykQ19KZIjXJqS55Q4+G94wdtJO3B3QbwQ+LD2s0+GEHVLl9
k3RgvqakDHceEY6hJqdomEaB9Jpd2yReEabStk7NVGbLpI1+BHCElRdsBvBrd2T9
vme9uxTILuLcpDX6Ui6E+MCfeJzG17OerSyRCptoOrN2f5hkooukdUlnqA3yJxGL
J9z0kjkcfJPOqFqS+QnsC3gF5Qln8zjtGnak6Zav6zNTSYMjYVcynDcggYe8QItZ
kJbrRmpts33qRrbt/15KpTCilAAwBuilfM7T4M2yw/nusECH+mrznIvUgHiqEtAG
IxdazevXnnmPKp1jQUqrzdfqh/SQQVwc9B4g13v36kI/jRsF/2CMrwZ+iDM8evSw
aOV48Lws/EUiDQPulOsxWUA1aUdZV6Olia5V+212Fbl/h5QmG0mHjqRTsubS5Dwx
xI/Y/qeSB+h92wuhWUapMs9ldLJY10sO/vnMBlRimcfp/RIC6To6UI16Ks92hVvI
PI4oZVgzrbnjLtJL9kGBQL7FGpRZhm46x9NI17gp9pbiGpK2+hkAwK3LhjQOXQID
AQABo4IBGDCCARQwHQYDVR0OBBYEFHHmnZMjGTSidZL+fCqLZuDzA27qMB8GA1Ud
IwQYMBaAFHHmnZMjGTSidZL+fCqLZuDzA27qMAwGA1UdEwQFMAMBAf8wgcMGA1Ud
HwSBuzCBuDA8oDqgOIY2aHR0cDovL2NuLXVjc2ItMS5kYXRhb25lLm9yZy9jcmwv
RGF0YU9ORVJvb3RDQV9DUkwucGVtMDugOaA3hjVodHRwOi8vY24tdW5tLTEuZGF0
YW9uZS5vcmcvY3JsL0RhdGFPTkVSb290Q0FfQ1JMLnBlbTA7oDmgN4Y1aHR0cDov
L2NuLW9yYy0xLmRhdGFvbmUub3JnL2NybC9EYXRhT05FUm9vdENBX0NSTC5wZW0w
DQYJKoZIhvcNAQEFBQADggIBAEsSis9+MA0UxDrzEUST1iL54CLyoUIJkFrHR8S+
RvsXAAaXWgbjXD2aRnPp+MY2Tvfemo5AupmhkGgL66nnfMxDBMu7OWZy0R7O1Ite
oz0bCLsKxFG9Yv3zn1RFI7qeIJ+KTPvWoE2CfVzdYsGmQJB30EaSN5KHghSB6ZER
1ly5BVpw/PY5namAOY9TSjdkR0vlRRXP3NlPOBdUGCXltjiuh3B1TU+8MnAOXSL7
ebsNAtk8Ho6Q3rM/u4C6rjgN0vp2rB52f/KRbdhnauTFbOC/sSG8eYQdieI20acm
U4V3ynbqbrM2p2uqUI7CvxjVK6S17TSivPQYeuML/vtYn5R9FGaBk9tKs2f+XtHD
l9XmcP+hk0LaNESqd814VOI7Rdkr6ss7bsQClSlfPmNDj1lxgOyGJ5IZXeQKdc4Q
679SPY66TdfzVXbwouwyIYmTCmo7PEr9UYDfLb5shQ9Bzz3kT3aTRYRN98rzyWH8
F4ArmJzJEASQPKxgRYVfXIjpKpy8kiAt9e5caQcUa67nbNj+8PyU9dsH1hj8IPQJ
6qMs8Cb+adbSz4tTxFFVFhLAxk3QnvJQOgqLUdpV8KHkymmfXAtA+PqFApvZ4GBI
Zx91uYWj3D+hmj0Y1tzNEHuQFkoJTQegJ1X2r8bysKseiAkeScYRX1J/ciJS/9NW
Mx9c
-----END CERTIFICATE-----
