Certificate:
    Data:
        Version: 3 (0x2)
        Serial Number:
            ac:ee:8c:a3:21:4d:a1:96
        Signature Algorithm: sha1WithRSAEncryption
        Issuer: dc=org/dc=dataone, CN=DataONE Root CA
        Validity
            Not Before: Mar  7 08:37:14 2012 GMT
            Not After : Feb 12 08:37:14 2112 GMT
        Subject: dc=org/dc=dataone, CN=DataONE Intermediate CA
        Subject Public Key Info:
            Public Key Algorithm: rsaEncryption
                Public-Key: (4096 bit)
                Modulus:
                    00:e3:15:42:d4:6b:06:79:0e:52:84:54:8d:ac:d9:
                    3a:b7:ed:0b:4d:05:92:c7:f9:e9:09:a0:20:6b:fe:
                    f1:f0:7e:80:f9:54:1a:d5:83:78:19:dc:58:c5:b4:
                    38:68:b4:c5:4c:e6:82:b4:93:ac:55:f9:29:02:ad:
                    fa:22:bf:f6:d4:90:23:88:8d:c2:e3:fe:b8:51:5b:
                    f6:a8:6a:ba:65:3b:67:c6:45:9d:a3:f2:7d:50:ea:
                    3a:eb:a3:97:ce:9d:3c:7f:e0:69:1f:39:1b:01:cd:
                    14:be:63:13:70:25:78:0a:65:36:ff:d0:96:b9:af:
                    5b:ad:a8:1e:d0:ba:cf:c6:16:c2:3c:ef:23:d6:15:
                    2e:fc:9d:5b:0f:ac:c8:8d:d8:c3:75:12:8e:f6:7d:
                    25:8b:e8:6b:f0:19:2c:0f:12:b0:9b:d8:aa:0d:ca:
                    7d:3b:3c:09:eb:71:30:56:17:8d:4c:89:d8:09:3c:
                    ee:a2:47:21:98:2e:96:cd:8f:fa:6f:25:23:ee:6e:
                    f1:6b:36:41:79:15:c2:f3:5b:23:6a:0a:76:99:44:
                    2e:59:e2:8e:49:b6:42:bf:32:26:2a:de:24:ee:ae:
                    0d:d6:35:df:c2:f9:a8:bf:03:53:68:87:74:80:ba:
                    c9:f8:6f:ad:6a:2e:f6:29:76:53:62:aa:61:99:8d:
                    f2:44:75:49:63:0a:88:ff:08:65:e3:dd:ef:c2:de:
                    f9:f6:3f:1b:06:46:07:07:43:d3:da:31:14:56:68:
                    f6:5d:f5:af:70:f6:34:99:f7:ef:4d:1c:8d:9c:3b:
                    d1:41:e1:ca:31:8d:3d:2a:87:95:63:2b:d4:13:e5:
                    86:d0:40:9b:9a:d3:f3:d9:49:80:81:c0:5c:50:25:
                    81:32:75:f7:7f:09:d3:e5:28:9c:4a:6e:9e:97:e4:
                    2d:b9:46:c2:e2:6f:96:a8:81:c6:eb:77:dc:c3:fb:
                    97:ac:b8:d8:19:9a:fb:3e:04:d0:b4:24:35:14:7c:
                    60:f7:05:ea:fb:b1:83:9c:e2:89:5a:91:e9:71:1a:
                    51:d2:51:2e:71:79:e1:ac:48:92:42:3c:49:64:d4:
                    eb:e7:57:83:f8:79:2c:ce:c0:2b:69:d0:01:bb:87:
                    c2:82:f1:22:29:4e:0c:93:36:65:73:72:db:d6:29:
                    db:be:c6:e1:7d:ac:bb:2b:8d:b1:5b:3b:7d:da:d0:
                    13:2b:99:00:9a:89:9a:11:52:23:34:92:d4:58:26:
                    f6:cf:7c:45:e1:2c:7c:f9:be:53:12:53:3f:ae:e4:
                    38:c5:ec:26:48:30:b7:06:5f:72:0b:00:39:a0:de:
                    ff:bb:1e:36:36:a4:ab:ae:3a:40:ec:73:71:f6:bf:
                    f2:93:0d
                Exponent: 65537 (0x10001)
        X509v3 extensions:
            X509v3 Subject Key Identifier: 
                02:F3:75:0B:3B:A8:B8:51:FB:AD:DE:37:7D:BA:31:34:A4:92:F3:DD
            X509v3 Authority Key Identifier: 
                keyid:C9:2C:CA:0F:93:3F:5E:CE:6C:B1:E1:7A:2E:5F:7B:31:24:18:29:EE

            X509v3 Basic Constraints: 
                CA:TRUE
            X509v3 CRL Distribution Points: 

                Full Name:
                  URI:http://cn-ucsb-1.dataone.org/crl/DataONERootCA_CRL.pem

                Full Name:
                  URI:http://cn-unm-1.dataone.org/crl/DataONERootCA_CRL.pem

                Full Name:
                  URI:http://cn-orc-1.dataone.org/crl/DataONERootCA_CRL.pem

    Signature Algorithm: sha1WithRSAEncryption
        04:33:94:80:de:0e:51:23:15:52:21:ef:34:99:6b:61:40:3a:
        13:7e:0e:33:1a:cd:6e:c5:11:e8:ee:b5:0c:03:b1:65:b4:26:
        c6:1b:44:f6:ab:7b:3d:c9:b1:1c:9b:74:56:c8:15:b3:27:57:
        1f:31:b7:00:58:75:50:6a:df:bf:40:3b:fc:88:b8:7b:11:81:
        71:22:5b:4a:d4:f1:6b:6d:6d:61:38:00:22:30:9d:67:73:6c:
        a4:19:68:96:f8:76:77:fd:ab:9a:81:53:19:44:9f:28:4a:95:
        1a:f0:3b:a8:76:e8:83:c7:25:99:dd:bf:aa:b2:35:89:a4:aa:
        8c:80:ad:09:46:76:74:e7:c5:d9:38:37:49:a4:33:2a:1a:93:
        33:6e:49:ab:8b:d7:0a:7f:cc:9e:e6:3f:06:b8:1d:b1:f0:2d:
        c7:74:90:8b:aa:2d:74:51:57:63:57:ef:cc:8e:63:f1:28:2d:
        4f:7e:a1:e7:ae:b6:58:52:34:ee:da:9a:57:b7:6e:1c:c1:81:
        47:ba:8d:07:08:5e:ab:76:56:52:14:54:93:71:15:05:61:27:
        d3:9c:e5:27:b7:42:8e:0a:77:dd:33:17:52:03:f5:95:61:85:
        e7:10:c5:4e:5a:b3:b4:82:64:ae:33:b0:17:9b:20:cd:27:93:
        10:93:bc:21:ce:8c:6a:ac:a8:22:e6:53:af:c6:19:a9:4b:d6:
        50:fd:0d:69:bb:17:4e:27:bc:6c:0d:da:0c:f0:6f:d8:15:00:
        d2:a0:2c:f0:4e:16:e6:b6:83:95:d8:f6:c7:f4:ba:15:08:cb:
        5b:53:54:5c:71:1f:42:df:ba:2e:d6:1a:61:7f:43:d2:b9:db:
        e1:18:ed:f8:49:5f:8d:bc:bc:b9:eb:f2:7b:f1:e3:35:d2:79:
        01:c0:f2:78:70:fc:fc:d9:b5:80:6a:9c:4a:76:35:81:b8:62:
        9b:ef:20:4c:aa:fd:1b:33:33:93:9e:66:d7:6f:0a:5f:f8:0c:
        e8:36:1c:ed:82:87:91:e8:38:e6:48:d8:94:d6:79:75:24:b7:
        2e:32:52:76:41:97:d0:fb:a1:5c:15:16:cc:7f:04:c3:11:56:
        14:42:91:6a:be:9c:ef:f9:33:6a:e4:33:97:f5:7c:e3:b3:7f:
        e3:f5:26:b3:4e:43:c9:fb:ef:b8:96:40:fc:f1:1b:e7:3a:14:
        96:2c:98:79:19:41:fd:9e:90:0d:37:c4:c1:b2:16:c7:50:12:
        bb:19:19:2e:10:c5:c3:9f:56:be:bd:21:b8:57:b3:94:c1:5e:
        b0:eb:32:97:fc:ec:42:58:8e:75:ff:9d:2e:42:d4:9b:6c:fd:
        53:f6:83:5a:c2:69:13:ba
-----BEGIN CERTIFICATE-----
MIIGNzCCBB+gAwIBAgIJAKzujKMhTaGWMA0GCSqGSIb3DQEBBQUAMEgxEzARBgoJ
kiaJk/IsZAEZFgNvcmcxFzAVBgoJkiaJk/IsZAEZFgdkYXRhb25lMRgwFgYDVQQD
DA9EYXRhT05FIFJvb3QgQ0EwIBcNMTIwMzA3MDgzNzE0WhgPMjExMjAyMTIwODM3
MTRaMFAxEzARBgoJkiaJk/IsZAEZFgNvcmcxFzAVBgoJkiaJk/IsZAEZFgdkYXRh
b25lMSAwHgYDVQQDDBdEYXRhT05FIEludGVybWVkaWF0ZSBDQTCCAiIwDQYJKoZI
hvcNAQEBBQADggIPADCCAgoCggIBAOMVQtRrBnkOUoRUjazZOrftC00Fksf56Qmg
IGv+8fB+gPlUGtWDeBncWMW0OGi0xUzmgrSTrFX5KQKt+iK/9tSQI4iNwuP+uFFb
9qhqumU7Z8ZFnaPyfVDqOuujl86dPH/gaR85GwHNFL5jE3AleAplNv/QlrmvW62o
HtC6z8YWwjzvI9YVLvydWw+syI3Yw3USjvZ9JYvoa/AZLA8SsJvYqg3KfTs8Cetx
MFYXjUyJ2Ak87qJHIZguls2P+m8lI+5u8Ws2QXkVwvNbI2oKdplELlnijkm2Qr8y
JireJO6uDdY138L5qL8DU2iHdIC6yfhvrWou9il2U2KqYZmN8kR1SWMKiP8IZePd
78Le+fY/GwZGBwdD09oxFFZo9l31r3D2NJn3700cjZw70UHhyjGNPSqHlWMr1BPl
htBAm5rT89lJgIHAXFAlgTJ1938J0+UonEpunpfkLblGwuJvlqiBxut33MP7l6y4
2Bma+z4E0LQkNRR8YPcF6vuxg5ziiVqR6XEaUdJRLnF54axIkkI8SWTU6+dXg/h5
LM7AK2nQAbuHwoLxIilODJM2ZXNy29Yp277G4X2suyuNsVs7fdrQEyuZAJqJmhFS
IzSS1Fgm9s98ReEsfPm+UxJTP67kOMXsJkgwtwZfcgsAOaDe/7seNjakq646QOxz
cfa/8pMNAgMBAAGjggEYMIIBFDAdBgNVHQ4EFgQUAvN1CzuouFH7rd43fboxNKSS
890wHwYDVR0jBBgwFoAUySzKD5M/Xs5sseF6Ll97MSQYKe4wDAYDVR0TBAUwAwEB
/zCBwwYDVR0fBIG7MIG4MDygOqA4hjZodHRwOi8vY24tdWNzYi0xLmRhdGFvbmUu
b3JnL2NybC9EYXRhT05FUm9vdENBX0NSTC5wZW0wO6A5oDeGNWh0dHA6Ly9jbi11
bm0tMS5kYXRhb25lLm9yZy9jcmwvRGF0YU9ORVJvb3RDQV9DUkwucGVtMDugOaA3
hjVodHRwOi8vY24tb3JjLTEuZGF0YW9uZS5vcmcvY3JsL0RhdGFPTkVSb290Q0Ff
Q1JMLnBlbTANBgkqhkiG9w0BAQUFAAOCAgEABDOUgN4OUSMVUiHvNJlrYUA6E34O
MxrNbsUR6O61DAOxZbQmxhtE9qt7PcmxHJt0VsgVsydXHzG3AFh1UGrfv0A7/Ii4
exGBcSJbStTxa21tYTgAIjCdZ3NspBlolvh2d/2rmoFTGUSfKEqVGvA7qHbog8cl
md2/qrI1iaSqjICtCUZ2dOfF2Tg3SaQzKhqTM25Jq4vXCn/MnuY/BrgdsfAtx3SQ
i6otdFFXY1fvzI5j8SgtT36h5662WFI07tqaV7duHMGBR7qNBwheq3ZWUhRUk3EV
BWEn05zlJ7dCjgp33TMXUgP1lWGF5xDFTlqztIJkrjOwF5sgzSeTEJO8Ic6Maqyo
IuZTr8YZqUvWUP0NabsXTie8bA3aDPBv2BUA0qAs8E4W5raDldj2x/S6FQjLW1NU
XHEfQt+6LtYaYX9D0rnb4Rjt+Elfjby8uevye/HjNdJ5AcDyeHD8/Nm1gGqcSnY1
gbhim+8gTKr9GzMzk55m128KX/gM6DYc7YKHkeg45kjYlNZ5dSS3LjJSdkGX0Puh
XBUWzH8EwxFWFEKRar6c7/kzauQzl/V847N/4/Ums05DyfvvuJZA/PEb5zoUliyY
eRlB/Z6QDTfEwbIWx1ASuxkZLhDFw59Wvr0huFezlMFesOsyl/zsQliOdf+dLkLU
m2z9U/aDWsJpE7o=
-----END CERTIFICATE-----
