Certificate:
    Data:
        Version: 3 (0x2)
        Serial Number:
            da:32:63:a2:a1:2d:00:18
        Signature Algorithm: sha1WithRSAEncryption
        Issuer: dc=org/dc=dataone, CN=DataONE Test CA
        Validity
            Not Before: Mar 10 02:12:16 2012 GMT
            Not After : Mar 10 02:12:16 2015 GMT
        Subject: dc=org/dc=dataone, CN=cn-dev-3.dataone.org
        Subject Public Key Info:
            Public Key Algorithm: rsaEncryption
                Public-Key: (2048 bit)
                Modulus:
                    00:f0:51:f8:a1:f3:07:fc:f8:ce:62:62:e0:53:2b:
                    73:c5:27:b3:9e:87:7f:eb:d9:19:07:43:ef:8e:af:
                    85:15:b8:64:49:e8:06:ca:e4:a3:b6:7d:8c:35:71:
                    91:bd:d6:c5:03:55:f8:cb:58:55:b8:8a:c1:78:96:
                    8f:94:17:95:a4:61:05:df:c9:e7:85:e1:38:ad:fb:
                    9f:33:8a:d5:dd:87:8c:63:ce:0d:2b:4e:8e:ca:7a:
                    b4:cb:0b:a6:1f:ea:e2:6a:af:91:b4:eb:37:39:32:
                    93:11:68:06:ca:34:f6:3f:77:7b:8d:b7:c0:cd:db:
                    6f:a5:ab:8a:3b:c2:05:f7:31:aa:ef:0c:c8:07:af:
                    bf:cd:99:da:85:5c:43:c4:cb:5e:55:b9:8c:95:55:
                    35:ef:36:ed:75:ae:d0:81:f8:f3:19:17:f0:cc:b4:
                    4e:c1:25:9a:e1:b7:6a:ad:16:ef:b6:ef:4e:e9:56:
                    59:f4:7b:32:bf:9f:6f:0a:89:42:f4:6c:b0:ab:fc:
                    8f:09:b9:24:7a:1e:ed:2c:b4:1c:5b:6a:cc:0b:bc:
                    95:b2:c5:83:4f:ab:e2:b2:f2:ba:6d:3a:50:1f:98:
                    38:0b:9c:eb:d4:30:ea:29:22:a0:54:84:b6:99:eb:
                    d3:3c:d2:b9:91:8e:12:d8:e3:1f:fd:63:f0:94:cc:
                    8b:21
                Exponent: 65537 (0x10001)
        X509v3 extensions:
            X509v3 Basic Constraints: 
                CA:FALSE
            Netscape Comment: 
                OpenSSL Generated Certificate
            X509v3 Subject Key Identifier: 
                68:8C:91:43:CE:5B:AC:D9:37:B5:B0:17:9F:92:AA:29:4B:83:E9:E4
            X509v3 Authority Key Identifier: 
                keyid:9E:8B:82:0D:E5:97:34:40:F4:CB:7E:5A:0C:3B:CA:91:FD:5A:31:73

            X509v3 CRL Distribution Points: 

                Full Name:
                  URI:http://cn-ucsb-1.dataone.org/crl/DataONETest_CRL.pem

                Full Name:
                  URI:http://cn-unm-1.dataone.org/crl/DataONETest_CRL.pem

                Full Name:
                  URI:http://cn-orc-1.dataone.org/crl/DataONETest_CRL.pem

    Signature Algorithm: sha1WithRSAEncryption
        13:28:91:90:b4:11:f7:a8:31:6c:f6:48:0b:07:5f:63:27:f0:
        9e:ea:8d:08:ae:05:29:d1:f6:df:6c:70:b8:ce:e3:12:4a:3b:
        dd:32:e2:1d:96:cf:63:f2:6d:e9:ce:32:64:4a:37:18:5d:96:
        26:b5:e4:e9:b2:b2:61:2c:33:f0:dd:3a:8f:6f:ce:10:fb:5e:
        fc:cc:52:f7:02:fb:b7:d1:e4:03:dc:42:8d:aa:c2:30:52:a3:
        a8:99:f7:ef:0a:03:29:71:76:78:70:4f:e4:30:27:b9:34:46:
        a1:e6:d6:fd:86:11:7a:94:1b:05:70:c9:29:e4:99:7d:ac:5a:
        0b:5d:83:37:78:9c:fd:2d:30:79:97:f2:86:96:aa:18:b1:7c:
        de:02:8f:b7:42:f3:88:42:64:87:c3:c5:f0:58:69:2e:91:a0:
        57:ce:f2:4b:b9:e1:e5:e7:05:c6:0a:99:c7:90:bc:d7:c6:49:
        0c:da:92:ca:4a:4b:4d:8d:cb:c8:fc:e9:bc:5a:fa:b4:aa:9a:
        a4:52:24:3b:3b:83:b5:4a:de:a3:0e:e1:e0:85:55:eb:c9:d7:
        a4:a4:7a:27:1e:d3:56:2b:42:f4:3b:fb:a9:26:a4:a2:ec:7e:
        38:7a:e8:48:90:7c:e8:f5:ab:7d:3d:a2:32:89:28:23:12:77:
        ed:7f:ba:de:7b:3b:52:74:76:66:18:fc:dc:27:0e:1f:65:cc:
        22:d0:29:2e:3f:25:d3:06:b8:ab:ba:d8:52:76:31:5a:59:91:
        69:a9:5d:b5:21:1b:94:44:0f:3a:73:dc:f2:8c:5c:14:e0:12:
        72:4c:1e:3a:02:7e:17:96:ad:e7:a6:f8:4e:06:b6:22:de:f5:
        8b:0a:23:22:fd:e9:a7:f0:4c:0d:24:a2:45:62:31:97:ed:4b:
        6f:07:26:83:49:d8:f8:fb:4a:91:f4:bd:36:03:de:31:12:92:
        e5:3e:d1:95:e7:97:ec:17:87:87:21:09:10:57:31:37:45:90:
        d0:eb:ac:81:b7:e2:cb:8f:34:c0:40:58:25:a3:f8:ed:db:83:
        42:20:3e:2c:f5:1a:91:56:8f:88:c9:e8:0d:6b:1f:d0:75:08:
        54:17:5f:56:50:e3:45:04:b4:bb:d6:c4:fe:2d:11:33:42:85:
        05:46:3f:a3:67:58:54:94:63:3b:62:f7:4b:f1:00:6e:43:9b:
        ae:f1:f8:f3:39:43:20:89:87:28:2f:10:c6:ae:84:ad:77:5a:
        56:a4:7e:cf:be:7d:b1:ad:2a:e4:e6:9b:82:65:1e:5d:d3:a1:
        43:f4:47:16:35:a6:58:03:a0:6b:94:60:75:30:8e:b4:df:c4:
        39:5f:04:ee:13:bc:b3:12
-----BEGIN CERTIFICATE-----
MIIFVzCCAz+gAwIBAgIJANoyY6KhLQAYMA0GCSqGSIb3DQEBBQUAMEgxEzARBgoJ
kiaJk/IsZAEZFgNvcmcxFzAVBgoJkiaJk/IsZAEZFgdkYXRhb25lMRgwFgYDVQQD
DA9EYXRhT05FIFRlc3QgQ0EwHhcNMTIwMzEwMDIxMjE2WhcNMTUwMzEwMDIxMjE2
WjBNMRMwEQYKCZImiZPyLGQBGRYDb3JnMRcwFQYKCZImiZPyLGQBGRYHZGF0YW9u
ZTEdMBsGA1UEAwwUY24tZGV2LTMuZGF0YW9uZS5vcmcwggEiMA0GCSqGSIb3DQEB
AQUAA4IBDwAwggEKAoIBAQDwUfih8wf8+M5iYuBTK3PFJ7Oeh3/r2RkHQ++Or4UV
uGRJ6AbK5KO2fYw1cZG91sUDVfjLWFW4isF4lo+UF5WkYQXfyeeF4Tit+58zitXd
h4xjzg0rTo7KerTLC6Yf6uJqr5G06zc5MpMRaAbKNPY/d3uNt8DN22+lq4o7wgX3
MarvDMgHr7/NmdqFXEPEy15VuYyVVTXvNu11rtCB+PMZF/DMtE7BJZrht2qtFu+2
707pVln0ezK/n28KiUL0bLCr/I8JuSR6Hu0stBxbaswLvJWyxYNPq+Ky8rptOlAf
mDgLnOvUMOopIqBUhLaZ69M80rmRjhLY4x/9Y/CUzIshAgMBAAGjggE9MIIBOTAJ
BgNVHRMEAjAAMCwGCWCGSAGG+EIBDQQfFh1PcGVuU1NMIEdlbmVyYXRlZCBDZXJ0
aWZpY2F0ZTAdBgNVHQ4EFgQUaIyRQ85brNk3tbAXn5KqKUuD6eQwHwYDVR0jBBgw
FoAUnouCDeWXNED0y35aDDvKkf1aMXMwgb0GA1UdHwSBtTCBsjA6oDigNoY0aHR0
cDovL2NuLXVjc2ItMS5kYXRhb25lLm9yZy9jcmwvRGF0YU9ORVRlc3RfQ1JMLnBl
bTA5oDegNYYzaHR0cDovL2NuLXVubS0xLmRhdGFvbmUub3JnL2NybC9EYXRhT05F
VGVzdF9DUkwucGVtMDmgN6A1hjNodHRwOi8vY24tb3JjLTEuZGF0YW9uZS5vcmcv
Y3JsL0RhdGFPTkVUZXN0X0NSTC5wZW0wDQYJKoZIhvcNAQEFBQADggIBABMokZC0
EfeoMWz2SAsHX2Mn8J7qjQiuBSnR9t9scLjO4xJKO90y4h2Wz2PybenOMmRKNxhd
lia15OmysmEsM/DdOo9vzhD7XvzMUvcC+7fR5APcQo2qwjBSo6iZ9+8KAylxdnhw
T+QwJ7k0RqHm1v2GEXqUGwVwySnkmX2sWgtdgzd4nP0tMHmX8oaWqhixfN4Cj7dC
84hCZIfDxfBYaS6RoFfO8ku54eXnBcYKmceQvNfGSQzakspKS02Ny8j86bxa+rSq
mqRSJDs7g7VK3qMO4eCFVevJ16Skeice01YrQvQ7+6kmpKLsfjh66EiQfOj1q309
ojKJKCMSd+1/ut57O1J0dmYY/NwnDh9lzCLQKS4/JdMGuKu62FJ2MVpZkWmpXbUh
G5REDzpz3PKMXBTgEnJMHjoCfheWreem+E4GtiLe9YsKIyL96afwTA0kokViMZft
S28HJoNJ2Pj7SpH0vTYD3jESkuU+0ZXnl+wXh4chCRBXMTdFkNDrrIG34suPNMBA
WCWj+O3bg0IgPiz1GpFWj4jJ6A1rH9B1CFQXX1ZQ40UEtLvWxP4tETNChQVGP6Nn
WFSUYzti90vxAG5Dm67x+PM5QyCJhygvEMauhK13Wlakfs++fbGtKuTmm4JlHl3T
oUP0RxY1plgDoGuUYHUwjrTfxDlfBO4TvLMS
-----END CERTIFICATE-----
