Certificate:
    Data:
        Version: 3 (0x2)
        Serial Number:
            da:32:63:a2:a1:2d:00:1c
        Signature Algorithm: sha1WithRSAEncryption
        Issuer: dc=org/dc=dataone, CN=DataONE Test CA
        Validity
            Not Before: Mar 10 02:15:28 2012 GMT
            Not After : Mar 10 02:15:28 2015 GMT
        Subject: dc=org/dc=dataone, CN=cn-stage-ucsb-1.dataone.org
        Subject Public Key Info:
            Public Key Algorithm: rsaEncryption
                Public-Key: (2048 bit)
                Modulus:
                    00:a1:c9:92:ae:f5:a0:8b:84:88:3b:c0:25:4a:fc:
                    ff:a3:65:ec:ab:76:dd:6f:8f:22:b4:d8:e2:90:8d:
                    35:2d:a5:cf:94:eb:b2:19:b7:f9:03:36:01:24:6b:
                    c8:6d:a4:c7:a8:f5:2d:bb:1e:55:dc:f4:c9:95:58:
                    b7:1b:03:6c:aa:9c:e3:c0:88:36:a1:48:55:c1:4c:
                    c6:30:7a:9a:e3:aa:58:c4:fd:ea:bb:cc:5e:8a:ae:
                    5f:15:b7:5f:a9:1b:16:91:24:bc:f7:5f:4e:f5:0a:
                    55:70:4b:97:48:ac:9f:05:34:44:67:17:c5:e3:97:
                    20:95:c4:29:3e:ee:c3:00:05:d3:15:d4:0f:51:b9:
                    e4:a3:f3:2a:0a:02:28:8b:af:f3:4d:8c:2b:eb:56:
                    33:73:f7:77:e8:49:71:7c:33:27:a7:d6:c0:19:ed:
                    b6:72:f0:14:49:29:db:af:71:5e:37:04:88:87:67:
                    a2:05:ee:6b:23:c9:a9:01:57:7c:b8:f5:9e:e0:7b:
                    14:9f:e3:27:a5:06:5a:12:37:4b:c9:f9:73:38:ad:
                    f0:6d:ce:08:00:9f:c1:29:59:22:d5:76:fc:33:d5:
                    ad:ca:11:e7:77:c2:01:b3:94:58:fc:f8:ab:3b:8c:
                    e4:9f:2d:97:08:0f:bc:af:21:19:72:4b:f7:a2:8a:
                    75:df
                Exponent: 65537 (0x10001)
        X509v3 extensions:
            X509v3 Basic Constraints: 
                CA:FALSE
            Netscape Comment: 
                OpenSSL Generated Certificate
            X509v3 Subject Key Identifier: 
                56:CB:1D:F8:7A:B9:D8:13:A5:F0:69:56:E0:AC:3C:E7:8A:73:84:B7
            X509v3 Authority Key Identifier: 
                keyid:9E:8B:82:0D:E5:97:34:40:F4:CB:7E:5A:0C:3B:CA:91:FD:5A:31:73

            X509v3 CRL Distribution Points: 

                Full Name:
                  URI:http://cn-ucsb-1.dataone.org/crl/DataONETest_CRL.pem

                Full Name:
                  URI:http://cn-unm-1.dataone.org/crl/DataONETest_CRL.pem

                Full Name:
                  URI:http://cn-orc-1.dataone.org/crl/DataONETest_CRL.pem

    Signature Algorithm: sha1WithRSAEncryption
        01:5d:95:0f:fa:59:99:43:63:dd:70:c5:c7:32:ab:b7:d4:a5:
        c4:fb:e6:a4:2f:87:68:05:56:e7:72:d6:91:70:48:60:95:98:
        7b:03:ff:7b:37:c6:ff:eb:f6:64:44:8b:54:63:2c:f3:33:cd:
        5c:d2:58:69:2d:1c:1a:3f:5a:4c:b5:58:a6:6f:aa:0d:6b:7c:
        3b:84:0e:b2:03:e0:f9:67:a5:e3:c2:6f:63:35:d1:9c:3e:68:
        71:77:38:c8:08:fc:57:2b:69:40:7b:a2:f5:ae:a2:4d:4a:04:
        29:08:29:bd:5f:7f:47:70:93:2c:91:a4:da:46:d6:ec:da:e1:
        de:ba:b4:ee:c4:4e:87:f8:d6:33:40:ca:4a:8f:18:9f:ab:5f:
        c2:c2:04:17:f3:d8:30:b0:9d:e2:14:c0:2f:e3:7f:1e:2f:b4:
        65:e4:b9:fc:31:fe:3d:96:18:4b:1d:8b:9c:06:24:7c:5e:3c:
        fc:9f:ef:5c:dc:26:48:97:da:e5:62:d5:93:01:1c:64:b9:35:
        1d:c4:12:0c:13:cd:4c:70:27:34:89:52:3e:b4:5c:e0:2c:1d:
        56:de:b3:11:66:4d:54:91:b9:53:2d:bc:d0:f8:2e:9f:1f:4a:
        25:98:48:61:70:c6:fa:63:df:86:0f:d7:4b:03:21:e1:44:7a:
        52:52:d6:1f:de:50:ef:d1:90:5d:37:18:07:cf:a5:68:6e:54:
        e7:e6:f3:8a:a3:e0:2d:c5:c7:60:7f:60:90:6d:d7:cd:f0:08:
        a3:32:c9:cc:36:8f:a4:60:72:5c:5c:11:bd:aa:f6:1b:21:97:
        7b:74:b9:a2:3c:7f:0a:01:cb:38:f5:8b:8d:7a:81:c3:3e:8e:
        55:5b:f7:06:b6:60:66:0c:f2:d2:65:f8:8e:77:aa:84:a2:9f:
        9e:f0:e6:95:d9:0c:c0:1e:12:28:3e:ea:17:03:7f:fc:57:d1:
        e2:3b:37:90:4f:fc:37:53:06:39:1f:51:74:b7:97:db:8f:06:
        79:3d:10:ac:23:83:66:81:2e:44:19:b8:b6:22:7e:31:ca:0a:
        db:04:c1:4e:ff:c5:5b:25:39:6f:16:66:9e:6f:28:f0:67:d2:
        63:c3:3a:39:42:98:6b:19:9d:46:5d:80:c2:3c:b6:9f:33:f6:
        11:48:07:12:a6:c7:d6:06:3b:d1:74:c2:78:ac:fe:e6:fc:a7:
        e8:c9:82:b5:01:ff:54:fa:43:37:87:35:2b:3d:4f:1b:6a:d0:
        48:4e:0a:73:4a:6a:21:30:88:ad:19:d6:38:23:da:fd:8e:e8:
        9a:30:53:2e:6f:dc:18:67:dd:bd:ce:a8:2e:23:7a:1d:d7:99:
        30:80:56:bc:b0:1a:3a:f5
-----BEGIN CERTIFICATE-----
MIIFXjCCA0agAwIBAgIJANoyY6KhLQAcMA0GCSqGSIb3DQEBBQUAMEgxEzARBgoJ
kiaJk/IsZAEZFgNvcmcxFzAVBgoJkiaJk/IsZAEZFgdkYXRhb25lMRgwFgYDVQQD
DA9EYXRhT05FIFRlc3QgQ0EwHhcNMTIwMzEwMDIxNTI4WhcNMTUwMzEwMDIxNTI4
WjBUMRMwEQYKCZImiZPyLGQBGRYDb3JnMRcwFQYKCZImiZPyLGQBGRYHZGF0YW9u
ZTEkMCIGA1UEAwwbY24tc3RhZ2UtdWNzYi0xLmRhdGFvbmUub3JnMIIBIjANBgkq
hkiG9w0BAQEFAAOCAQ8AMIIBCgKCAQEAocmSrvWgi4SIO8AlSvz/o2Xsq3bdb48i
tNjikI01LaXPlOuyGbf5AzYBJGvIbaTHqPUtux5V3PTJlVi3GwNsqpzjwIg2oUhV
wUzGMHqa46pYxP3qu8xeiq5fFbdfqRsWkSS8919O9QpVcEuXSKyfBTREZxfF45cg
lcQpPu7DAAXTFdQPUbnko/MqCgIoi6/zTYwr61Yzc/d36ElxfDMnp9bAGe22cvAU
SSnbr3FeNwSIh2eiBe5rI8mpAVd8uPWe4HsUn+MnpQZaEjdLyflzOK3wbc4IAJ/B
KVki1Xb8M9WtyhHnd8IBs5RY/PirO4zkny2XCA+8ryEZckv3oop13wIDAQABo4IB
PTCCATkwCQYDVR0TBAIwADAsBglghkgBhvhCAQ0EHxYdT3BlblNTTCBHZW5lcmF0
ZWQgQ2VydGlmaWNhdGUwHQYDVR0OBBYEFFbLHfh6udgTpfBpVuCsPOeKc4S3MB8G
A1UdIwQYMBaAFJ6Lgg3llzRA9Mt+Wgw7ypH9WjFzMIG9BgNVHR8EgbUwgbIwOqA4
oDaGNGh0dHA6Ly9jbi11Y3NiLTEuZGF0YW9uZS5vcmcvY3JsL0RhdGFPTkVUZXN0
X0NSTC5wZW0wOaA3oDWGM2h0dHA6Ly9jbi11bm0tMS5kYXRhb25lLm9yZy9jcmwv
RGF0YU9ORVRlc3RfQ1JMLnBlbTA5oDegNYYzaHR0cDovL2NuLW9yYy0xLmRhdGFv
bmUub3JnL2NybC9EYXRhT05FVGVzdF9DUkwucGVtMA0GCSqGSIb3DQEBBQUAA4IC
AQABXZUP+lmZQ2PdcMXHMqu31KXE++akL4doBVbnctaRcEhglZh7A/97N8b/6/Zk
RItUYyzzM81c0lhpLRwaP1pMtVimb6oNa3w7hA6yA+D5Z6Xjwm9jNdGcPmhxdzjI
CPxXK2lAe6L1rqJNSgQpCCm9X39HcJMskaTaRtbs2uHeurTuxE6H+NYzQMpKjxif
q1/CwgQX89gwsJ3iFMAv438eL7Rl5Ln8Mf49lhhLHYucBiR8Xjz8n+9c3CZIl9rl
YtWTARxkuTUdxBIME81McCc0iVI+tFzgLB1W3rMRZk1UkblTLbzQ+C6fH0olmEhh
cMb6Y9+GD9dLAyHhRHpSUtYf3lDv0ZBdNxgHz6VoblTn5vOKo+Atxcdgf2CQbdfN
8AijMsnMNo+kYHJcXBG9qvYbIZd7dLmiPH8KAcs49YuNeoHDPo5VW/cGtmBmDPLS
ZfiOd6qEop+e8OaV2QzAHhIoPuoXA3/8V9HiOzeQT/w3UwY5H1F0t5fbjwZ5PRCs
I4NmgS5EGbi2In4xygrbBMFO/8VbJTlvFmaebyjwZ9Jjwzo5QphrGZ1GXYDCPLaf
M/YRSAcSpsfWBjvRdMJ4rP7m/KfoyYK1Af9U+kM3hzUrPU8batBITgpzSmohMIit
GdY4I9r9juiaMFMub9wYZ929zqguI3od15kwgFa8sBo69Q==
-----END CERTIFICATE-----
