Certificate:
    Data:
        Version: 3 (0x2)
        Serial Number:
            da:32:63:a2:a1:2d:00:1d
        Signature Algorithm: sha1WithRSAEncryption
        Issuer: dc=org/dc=dataone, CN=DataONE Test CA
        Validity
            Not Before: Mar 10 02:15:41 2012 GMT
            Not After : Mar 10 02:15:41 2015 GMT
        Subject: dc=org/dc=dataone, CN=cn-stage-orc-1.dataone.org
        Subject Public Key Info:
            Public Key Algorithm: rsaEncryption
                Public-Key: (2048 bit)
                Modulus:
                    00:f8:b9:37:11:44:ac:17:97:6b:ef:97:f8:27:89:
                    fc:17:58:05:16:17:e4:1d:65:ef:93:02:96:d8:81:
                    cd:aa:0e:bf:f6:fb:2b:5f:e8:be:10:b8:0e:b8:af:
                    f5:2c:4a:8c:93:3c:99:34:8b:9b:b3:5e:37:11:22:
                    0e:dd:5c:d4:5e:76:16:14:0a:f5:2f:fa:20:85:e7:
                    e5:10:ba:8d:00:a3:f7:f5:a7:27:3e:9c:87:92:7a:
                    87:6f:c6:41:93:e5:cb:cd:35:f5:51:a0:57:a7:40:
                    1b:2e:a5:56:a3:9c:72:a8:93:04:62:d6:e3:f6:83:
                    4e:58:f5:25:09:19:7f:6a:4b:0c:7b:4c:55:a8:b6:
                    b1:dc:81:3a:0d:b6:62:49:37:90:86:47:c5:90:21:
                    9a:02:85:0c:94:2d:3b:87:70:fc:7e:61:1b:41:e4:
                    73:0c:cd:b2:9b:d0:fd:d5:ad:02:b9:05:80:5e:90:
                    9f:1c:89:0b:d5:e6:88:20:0d:ad:c0:a8:5f:fe:f2:
                    71:76:b7:6e:89:99:24:30:90:6c:f1:d0:3d:fc:b3:
                    a2:76:50:dd:70:1c:6f:95:f3:97:02:41:d1:06:8e:
                    4e:c1:ca:18:cd:de:19:f6:84:5e:e4:8b:56:56:d6:
                    dc:5c:db:57:49:23:37:cd:c1:da:64:40:88:5d:e4:
                    03:1f
                Exponent: 65537 (0x10001)
        X509v3 extensions:
            X509v3 Basic Constraints: 
                CA:FALSE
            Netscape Comment: 
                OpenSSL Generated Certificate
            X509v3 Subject Key Identifier: 
                A1:2C:F2:E0:6C:2E:52:40:25:38:6B:09:46:3B:F4:54:4C:7D:39:93
            X509v3 Authority Key Identifier: 
                keyid:9E:8B:82:0D:E5:97:34:40:F4:CB:7E:5A:0C:3B:CA:91:FD:5A:31:73

            X509v3 CRL Distribution Points: 

                Full Name:
                  URI:http://cn-ucsb-1.dataone.org/crl/DataONETest_CRL.pem

                Full Name:
                  URI:http://cn-unm-1.dataone.org/crl/DataONETest_CRL.pem

                Full Name:
                  URI:http://cn-orc-1.dataone.org/crl/DataONETest_CRL.pem

    Signature Algorithm: sha1WithRSAEncryption
        99:a2:db:66:4b:25:df:1c:74:76:ec:62:2e:6d:ce:ca:bd:f2:
        b0:fc:8d:55:6d:9b:79:2e:df:4c:51:c6:dd:b5:25:cd:56:c8:
        58:f2:1a:9b:ef:a6:73:32:ca:76:69:5d:55:ed:ea:24:99:f0:
        1a:f2:77:02:61:08:4c:a2:b3:61:f6:8f:37:54:13:94:56:9f:
        81:78:63:4e:f8:22:cf:c6:04:79:cd:1c:ec:56:44:42:a6:28:
        db:df:af:53:df:53:73:5d:c0:e3:dc:62:08:d8:d1:1d:91:a3:
        b2:ca:3a:da:f5:fe:dc:09:f7:ec:88:5b:79:03:4e:bf:33:79:
        2a:e7:16:ad:ee:3d:1b:5d:7d:9d:fa:18:2e:88:48:40:da:d7:
        7c:71:a8:3e:00:7b:f4:b4:e7:d9:27:24:e3:3b:fd:76:9b:c5:
        39:03:33:4f:a0:08:62:c8:4f:d9:80:51:b4:8e:1c:7f:7c:43:
        46:b6:59:76:d6:52:9f:a4:f9:64:0f:5d:ad:f0:30:d0:db:12:
        3e:3f:8a:f5:42:32:64:bc:e9:de:59:4b:f1:7e:6d:57:ae:00:
        c4:4e:4a:6b:91:ad:a2:d0:c0:03:29:67:2e:7e:9e:31:0d:8f:
        cc:5b:73:85:88:08:ac:c2:8a:47:34:58:24:9a:29:46:e0:78:
        13:00:00:82:cb:42:c1:72:c1:c6:e5:c3:b4:4a:5a:de:30:e6:
        dd:86:16:41:73:5f:53:cd:9f:65:82:e1:14:de:a2:bd:5a:01:
        aa:c4:27:0a:d2:a3:e9:7a:be:2b:bb:4c:77:57:e2:f3:4b:70:
        c1:ec:01:09:e9:05:f0:0c:9d:b1:36:9f:88:ca:db:e0:2d:40:
        34:7f:7b:aa:39:af:4d:4e:a9:7c:bf:2d:19:4d:45:00:a4:f8:
        cb:7b:13:7c:6f:bc:ef:0f:d8:f6:9d:c3:29:89:c9:4b:32:37:
        74:9b:e3:bb:dd:0a:0b:e4:8b:41:80:96:8c:85:ac:c0:66:d4:
        c8:95:d8:d4:01:a8:a2:d6:0f:91:ab:be:e3:d4:d4:6b:e5:29:
        ea:99:7a:39:c4:8b:80:bd:b5:db:1b:69:b0:da:0c:7d:f5:86:
        6a:7f:23:8a:44:2d:c4:9f:b6:b1:5a:62:fd:ca:60:b0:33:5d:
        d8:bb:e6:f4:f6:ff:cc:86:4e:4d:0d:b6:bd:97:1e:68:01:f2:
        52:ef:0b:84:9a:a3:61:94:f0:88:8b:49:7e:89:90:3b:09:6a:
        cd:73:21:89:17:aa:58:4d:58:6c:35:1e:83:d4:05:0e:76:8d:
        28:f0:53:3e:a7:2f:51:59:c1:f8:10:5d:82:8a:0f:60:7c:a6:
        5a:d6:77:be:54:7d:6b:4f
-----BEGIN CERTIFICATE-----
MIIFXTCCA0WgAwIBAgIJANoyY6KhLQAdMA0GCSqGSIb3DQEBBQUAMEgxEzARBgoJ
kiaJk/IsZAEZFgNvcmcxFzAVBgoJkiaJk/IsZAEZFgdkYXRhb25lMRgwFgYDVQQD
DA9EYXRhT05FIFRlc3QgQ0EwHhcNMTIwMzEwMDIxNTQxWhcNMTUwMzEwMDIxNTQx
WjBTMRMwEQYKCZImiZPyLGQBGRYDb3JnMRcwFQYKCZImiZPyLGQBGRYHZGF0YW9u
ZTEjMCEGA1UEAwwaY24tc3RhZ2Utb3JjLTEuZGF0YW9uZS5vcmcwggEiMA0GCSqG
SIb3DQEBAQUAA4IBDwAwggEKAoIBAQD4uTcRRKwXl2vvl/gnifwXWAUWF+QdZe+T
ApbYgc2qDr/2+ytf6L4QuA64r/UsSoyTPJk0i5uzXjcRIg7dXNRedhYUCvUv+iCF
5+UQuo0Ao/f1pyc+nIeSeodvxkGT5cvNNfVRoFenQBsupVajnHKokwRi1uP2g05Y
9SUJGX9qSwx7TFWotrHcgToNtmJJN5CGR8WQIZoChQyULTuHcPx+YRtB5HMMzbKb
0P3VrQK5BYBekJ8ciQvV5oggDa3AqF/+8nF2t26JmSQwkGzx0D38s6J2UN1wHG+V
85cCQdEGjk7ByhjN3hn2hF7ki1ZW1txc21dJIzfNwdpkQIhd5AMfAgMBAAGjggE9
MIIBOTAJBgNVHRMEAjAAMCwGCWCGSAGG+EIBDQQfFh1PcGVuU1NMIEdlbmVyYXRl
ZCBDZXJ0aWZpY2F0ZTAdBgNVHQ4EFgQUoSzy4GwuUkAlOGsJRjv0VEx9OZMwHwYD
VR0jBBgwFoAUnouCDeWXNED0y35aDDvKkf1aMXMwgb0GA1UdHwSBtTCBsjA6oDig
NoY0aHR0cDovL2NuLXVjc2ItMS5kYXRhb25lLm9yZy9jcmwvRGF0YU9ORVRlc3Rf
Q1JMLnBlbTA5oDegNYYzaHR0cDovL2NuLXVubS0xLmRhdGFvbmUub3JnL2NybC9E
YXRhT05FVGVzdF9DUkwucGVtMDmgN6A1hjNodHRwOi8vY24tb3JjLTEuZGF0YW9u
ZS5vcmcvY3JsL0RhdGFPTkVUZXN0X0NSTC5wZW0wDQYJKoZIhvcNAQEFBQADggIB
AJmi22ZLJd8cdHbsYi5tzsq98rD8jVVtm3ku30xRxt21Jc1WyFjyGpvvpnMyynZp
XVXt6iSZ8BrydwJhCEyis2H2jzdUE5RWn4F4Y074Is/GBHnNHOxWREKmKNvfr1Pf
U3NdwOPcYgjY0R2Ro7LKOtr1/twJ9+yIW3kDTr8zeSrnFq3uPRtdfZ36GC6ISEDa
13xxqD4Ae/S059knJOM7/XabxTkDM0+gCGLIT9mAUbSOHH98Q0a2WXbWUp+k+WQP
Xa3wMNDbEj4/ivVCMmS86d5ZS/F+bVeuAMROSmuRraLQwAMpZy5+njENj8xbc4WI
CKzCikc0WCSaKUbgeBMAAILLQsFywcblw7RKWt4w5t2GFkFzX1PNn2WC4RTeor1a
AarEJwrSo+l6viu7THdX4vNLcMHsAQnpBfAMnbE2n4jK2+AtQDR/e6o5r01OqXy/
LRlNRQCk+Mt7E3xvvO8P2PadwymJyUsyN3Sb47vdCgvki0GAloyFrMBm1MiV2NQB
qKLWD5GrvuPU1GvlKeqZejnEi4C9tdsbabDaDH31hmp/I4pELcSftrFaYv3KYLAz
Xdi75vT2/8yGTk0Ntr2XHmgB8lLvC4Sao2GU8IiLSX6JkDsJas1zIYkXqlhNWGw1
HoPUBQ52jSjwUz6nL1FZwfgQXYKKD2B8plrWd75UfWtP
-----END CERTIFICATE-----
