Certificate:
    Data:
        Version: 3 (0x2)
        Serial Number:
            da:32:63:a2:a1:2d:00:06
        Signature Algorithm: sha1WithRSAEncryption
        Issuer: dc=org/dc=dataone, CN=DataONE Test CA
        Validity
            Not Before: Mar 10 01:01:27 2012 GMT
            Not After : Mar 10 01:01:27 2015 GMT
        Subject: dc=org/dc=dataone, CN=testGroupie
        Subject Public Key Info:
            Public Key Algorithm: rsaEncryption
                Public-Key: (2048 bit)
                Modulus:
                    00:c9:c0:3c:a5:26:f8:ed:30:75:3b:1c:85:29:69:
                    49:3d:c2:55:e4:a6:13:67:bf:47:fc:3d:d6:f8:74:
                    c0:ad:68:77:36:58:71:d3:84:85:84:d6:2b:82:ea:
                    e1:1e:15:29:04:a3:0f:47:57:a6:39:76:8d:73:11:
                    78:a6:68:84:cf:04:3f:50:57:6d:3f:d8:c8:a8:84:
                    c0:ec:ce:2f:dc:65:88:a8:be:ba:1c:e9:94:75:0c:
                    1b:c5:67:94:2f:f7:89:06:44:05:7c:d6:20:3c:fb:
                    9e:87:3e:4a:a6:15:53:59:b4:70:db:28:9e:fd:ac:
                    0b:11:3d:70:9a:1e:0f:8a:aa:c5:7d:83:76:e2:0a:
                    01:34:ac:65:0d:e6:da:e8:73:60:29:89:8d:6a:d2:
                    0e:30:14:4e:5e:64:00:6f:ab:82:ba:50:a4:99:98:
                    69:30:c6:59:42:11:fd:c8:35:71:49:d9:fc:1f:8e:
                    c7:3e:61:ec:d6:af:88:a5:c9:8f:9f:2b:51:f8:3e:
                    70:b5:6d:c8:cd:2e:a8:01:ec:5e:aa:2b:a6:a6:e4:
                    23:be:bc:db:85:75:d6:a5:59:e1:ee:97:1b:f8:7d:
                    df:8b:84:e3:dc:c7:c0:56:5f:1f:06:e2:09:af:25:
                    41:49:37:48:2f:bb:27:ba:68:05:5d:0f:dd:6d:27:
                    ff:2f
                Exponent: 65537 (0x10001)
        X509v3 extensions:
            X509v3 Basic Constraints: 
                CA:FALSE
            Netscape Comment: 
                OpenSSL Generated Certificate
            X509v3 Subject Key Identifier: 
                9E:93:33:2C:75:0C:EA:84:AF:2C:AA:C1:1F:08:AD:0A:DA:5D:63:13
            X509v3 Authority Key Identifier: 
                keyid:9E:8B:82:0D:E5:97:34:40:F4:CB:7E:5A:0C:3B:CA:91:FD:5A:31:73

            X509v3 CRL Distribution Points: 

                Full Name:
                  URI:http://cn-ucsb-1.dataone.org/crl/DataONETest_CRL.pem

                Full Name:
                  URI:http://cn-unm-1.dataone.org/crl/DataONETest_CRL.pem

                Full Name:
                  URI:http://cn-orc-1.dataone.org/crl/DataONETest_CRL.pem

            subject_info: 
                ....<?xml version=1.0 encoding=UTF-8?><d1:subjectInfo xmlns:d1=http://ns.dataone.org/service/types/v1><person><subject>CN=testGroupie,DC=dataone,DC=org</subject><givenName>testGroupie_givenName</givenName><familyName>testGroupie_familyName</familyName></person><group><subject>testGroup</subject><groupName>testGroup_groupName</groupName><hasMember>CN=testGroupie,DC=dataone,DC=org</hasMember></group></d1:subjectInfo>
    Signature Algorithm: sha1WithRSAEncryption
        7e:01:c7:c6:9a:10:55:84:02:8e:a5:99:86:ef:90:fc:20:d2:
        3d:8a:09:a1:9b:99:cb:b1:a3:84:25:a0:c7:cf:9e:ad:de:7e:
        14:b4:c3:8a:1c:0b:4d:d2:5b:6e:73:f1:ed:ac:ff:90:f2:0d:
        44:78:4a:c6:2c:32:6a:fd:28:ad:83:7c:c1:48:29:02:bb:b5:
        65:0c:f3:b2:14:b2:81:ee:cb:3d:81:91:a6:9f:12:19:af:8f:
        90:d6:6b:e6:cd:f6:48:5b:77:41:3e:34:09:0d:d9:b0:63:43:
        52:00:a4:65:c4:d9:9c:2e:41:ee:45:1c:ea:2e:2d:8a:ae:5d:
        4d:dc:44:66:4d:88:20:22:bb:c6:9e:de:36:ed:72:69:d8:22:
        c7:63:32:c8:7e:99:7a:5a:d2:c8:72:ab:b2:ac:80:64:30:c0:
        d6:7e:9e:7d:30:29:4e:07:10:13:df:46:cd:12:b4:03:d4:97:
        0d:43:0b:c4:1c:72:85:12:f3:84:17:90:9e:b6:d3:2d:f5:58:
        32:ec:9e:39:49:b3:d6:87:7c:85:80:1a:73:a0:fb:79:c8:3f:
        b1:62:22:5f:c5:92:5d:3f:ec:27:ee:9d:c7:6b:10:ee:ba:91:
        41:b8:49:73:ef:b2:fd:37:4e:46:e0:c3:77:de:89:40:d6:00:
        81:56:59:a2:b6:11:f2:d7:f1:06:e5:ae:02:08:e8:6c:35:87:
        98:f3:80:20:50:5c:20:f7:fc:06:07:2f:83:ed:2b:f0:30:83:
        f2:ea:b6:17:72:0f:2a:1a:da:0b:60:94:97:da:cf:c3:72:fc:
        c1:6b:37:0f:13:e7:25:6b:e0:34:cf:64:42:7f:f9:fa:ed:cb:
        6a:cb:7c:ee:04:5b:30:fd:e7:03:28:7f:dc:0a:91:ee:e2:2a:
        db:6d:84:4a:eb:7d:10:96:a5:fb:1c:8f:04:a4:70:5d:51:a4:
        9b:7c:ee:64:04:b7:16:e4:67:70:a1:36:6a:cb:33:49:75:25:
        a8:ca:db:1a:27:6f:86:5a:68:83:9c:2b:90:e9:33:22:5d:26:
        f1:87:e8:50:fe:49:e7:c2:0d:ac:ce:79:0a:93:6a:82:c8:8d:
        47:8d:3e:96:51:8f:0f:9f:6a:4c:4d:4e:09:29:d2:05:3d:82:
        3b:8b:67:56:ed:a7:e3:62:5d:c3:4f:2c:dc:99:51:7c:98:06:
        b7:68:a1:c6:ff:ed:4b:23:ca:54:02:5a:fe:19:50:ef:a5:a3:
        34:9c:a7:3b:15:08:ad:cb:7e:ef:3c:b9:6a:43:ba:70:c4:c8:
        9c:83:3a:d5:68:bb:ae:23:31:ca:f0:75:d5:b0:2c:d4:56:d1:
        0e:c2:0d:f0:4e:58:27:d6
-----BEGIN CERTIFICATE-----
MIIHBDCCBOygAwIBAgIJANoyY6KhLQAGMA0GCSqGSIb3DQEBBQUAMEgxEzARBgoJ
kiaJk/IsZAEZFgNvcmcxFzAVBgoJkiaJk/IsZAEZFgdkYXRhb25lMRgwFgYDVQQD
DA9EYXRhT05FIFRlc3QgQ0EwHhcNMTIwMzEwMDEwMTI3WhcNMTUwMzEwMDEwMTI3
WjBEMRMwEQYKCZImiZPyLGQBGRYDb3JnMRcwFQYKCZImiZPyLGQBGRYHZGF0YW9u
ZTEUMBIGA1UEAwwLdGVzdEdyb3VwaWUwggEiMA0GCSqGSIb3DQEBAQUAA4IBDwAw
ggEKAoIBAQDJwDylJvjtMHU7HIUpaUk9wlXkphNnv0f8Pdb4dMCtaHc2WHHThIWE
1iuC6uEeFSkEow9HV6Y5do1zEXimaITPBD9QV20/2MiohMDszi/cZYiovroc6ZR1
DBvFZ5Qv94kGRAV81iA8+56HPkqmFVNZtHDbKJ79rAsRPXCaHg+KqsV9g3biCgE0
rGUN5troc2ApiY1q0g4wFE5eZABvq4K6UKSZmGkwxllCEf3INXFJ2fwfjsc+YezW
r4ilyY+fK1H4PnC1bcjNLqgB7F6qK6am5CO+vNuFddalWeHulxv4fd+LhOPcx8BW
Xx8G4gmvJUFJN0gvuye6aAVdD91tJ/8vAgMBAAGjggLzMIIC7zAJBgNVHRMEAjAA
MCwGCWCGSAGG+EIBDQQfFh1PcGVuU1NMIEdlbmVyYXRlZCBDZXJ0aWZpY2F0ZTAd
BgNVHQ4EFgQUnpMzLHUM6oSvLKrBHwitCtpdYxMwHwYDVR0jBBgwFoAUnouCDeWX
NED0y35aDDvKkf1aMXMwgb0GA1UdHwSBtTCBsjA6oDigNoY0aHR0cDovL2NuLXVj
c2ItMS5kYXRhb25lLm9yZy9jcmwvRGF0YU9ORVRlc3RfQ1JMLnBlbTA5oDegNYYz
aHR0cDovL2NuLXVubS0xLmRhdGFvbmUub3JnL2NybC9EYXRhT05FVGVzdF9DUkwu
cGVtMDmgN6A1hjNodHRwOi8vY24tb3JjLTEuZGF0YW9uZS5vcmcvY3JsL0RhdGFP
TkVUZXN0X0NSTC5wZW0wggGyBgorBgEEAYKRNgIBBIIBogyCAZ48P3htbCB2ZXJz
aW9uPTEuMCBlbmNvZGluZz1VVEYtOD8+PGQxOnN1YmplY3RJbmZvIHhtbG5zOmQx
PWh0dHA6Ly9ucy5kYXRhb25lLm9yZy9zZXJ2aWNlL3R5cGVzL3YxPjxwZXJzb24+
PHN1YmplY3Q+Q049dGVzdEdyb3VwaWUsREM9ZGF0YW9uZSxEQz1vcmc8L3N1Ympl
Y3Q+PGdpdmVuTmFtZT50ZXN0R3JvdXBpZV9naXZlbk5hbWU8L2dpdmVuTmFtZT48
ZmFtaWx5TmFtZT50ZXN0R3JvdXBpZV9mYW1pbHlOYW1lPC9mYW1pbHlOYW1lPjwv
cGVyc29uPjxncm91cD48c3ViamVjdD50ZXN0R3JvdXA8L3N1YmplY3Q+PGdyb3Vw
TmFtZT50ZXN0R3JvdXBfZ3JvdXBOYW1lPC9ncm91cE5hbWU+PGhhc01lbWJlcj5D
Tj10ZXN0R3JvdXBpZSxEQz1kYXRhb25lLERDPW9yZzwvaGFzTWVtYmVyPjwvZ3Jv
dXA+PC9kMTpzdWJqZWN0SW5mbz4wDQYJKoZIhvcNAQEFBQADggIBAH4Bx8aaEFWE
Ao6lmYbvkPwg0j2KCaGbmcuxo4QloMfPnq3efhS0w4ocC03SW25z8e2s/5DyDUR4
SsYsMmr9KK2DfMFIKQK7tWUM87IUsoHuyz2BkaafEhmvj5DWa+bN9khbd0E+NAkN
2bBjQ1IApGXE2ZwuQe5FHOouLYquXU3cRGZNiCAiu8ae3jbtcmnYIsdjMsh+mXpa
0shyq7KsgGQwwNZ+nn0wKU4HEBPfRs0StAPUlw1DC8QccoUS84QXkJ620y31WDLs
njlJs9aHfIWAGnOg+3nIP7FiIl/Fkl0/7CfuncdrEO66kUG4SXPvsv03Tkbgw3fe
iUDWAIFWWaK2EfLX8QblrgII6Gw1h5jzgCBQXCD3/AYHL4PtK/Awg/LqthdyDyoa
2gtglJfaz8Ny/MFrNw8T5yVr4DTPZEJ/+frty2rLfO4EWzD95wMof9wKke7iKttt
hErrfRCWpfscjwSkcF1RpJt87mQEtxbkZ3ChNmrLM0l1JajK2xonb4ZaaIOcK5Dp
MyJdJvGH6FD+SefCDazOeQqTaoLIjUeNPpZRjw+fakxNTgkp0gU9gjuLZ1btp+Ni
XcNPLNyZUXyYBrdoocb/7UsjylQCWv4ZUO+lozScpzsVCK3Lfu88uWpDunDEyJyD
OtVou64jMcrwddWwLNRW0Q7CDfBOWCfW
-----END CERTIFICATE-----
