Certificate:
    Data:
        Version: 3 (0x2)
        Serial Number:
            da:32:63:a2:a1:2d:00:04
        Signature Algorithm: sha1WithRSAEncryption
        Issuer: dc=org/dc=dataone, CN=DataONE Test CA
        Validity
            Not Before: Mar 10 01:00:31 2012 GMT
            Not After : Mar 10 01:00:31 2015 GMT
        Subject: dc=org/dc=dataone, CN=testPerson
        Subject Public Key Info:
            Public Key Algorithm: rsaEncryption
                Public-Key: (2048 bit)
                Modulus:
                    00:db:28:22:0d:ff:07:d7:80:14:48:98:0b:df:2b:
                    6e:9b:4c:86:e2:11:1f:fd:44:83:8e:27:b6:8e:53:
                    73:75:fc:f2:05:62:5a:73:f6:4a:76:9c:8f:f2:0c:
                    ad:d9:ee:1b:c8:f0:02:b1:36:68:80:ca:ae:a7:03:
                    20:91:20:f4:f0:ca:e3:6c:42:ab:17:48:4e:84:bc:
                    15:4d:91:4d:71:00:6f:96:10:a1:f4:54:78:23:d9:
                    59:47:68:63:5a:bf:80:c4:66:c2:bf:16:b0:60:e6:
                    94:0f:d4:49:5d:92:34:24:bd:bd:f6:ec:ec:f1:11:
                    5c:80:10:9d:18:cf:cc:b1:95:18:f7:01:a9:3f:2e:
                    32:06:f6:e4:3a:ed:1a:f0:0b:7c:02:58:5c:ed:26:
                    75:3c:01:5c:72:5e:c1:5b:c1:6e:68:50:e4:a5:2d:
                    24:c0:74:79:17:83:1b:56:aa:19:5f:2e:89:99:fa:
                    c3:f9:51:bd:89:e4:5d:b5:05:9b:26:4a:39:13:8f:
                    d4:c1:00:08:84:96:ec:2e:a7:c7:a4:25:9d:7d:5e:
                    de:75:79:b9:4b:8d:bf:b7:3c:02:73:10:65:0d:52:
                    28:8d:b4:a6:af:4b:23:58:c0:f9:64:17:77:18:44:
                    75:ad:69:55:6f:2c:80:b4:ca:f0:39:ea:73:86:3b:
                    8f:1d
                Exponent: 65537 (0x10001)
        X509v3 extensions:
            X509v3 Basic Constraints: 
                CA:FALSE
            Netscape Comment: 
                OpenSSL Generated Certificate
            X509v3 Subject Key Identifier: 
                D2:88:09:3D:D2:64:AF:C9:1D:60:0F:ED:F8:98:46:E1:0C:0B:99:B7
            X509v3 Authority Key Identifier: 
                keyid:9E:8B:82:0D:E5:97:34:40:F4:CB:7E:5A:0C:3B:CA:91:FD:5A:31:73

            X509v3 CRL Distribution Points: 

                Full Name:
                  URI:http://cn-ucsb-1.dataone.org/crl/DataONETest_CRL.pem

                Full Name:
                  URI:http://cn-unm-1.dataone.org/crl/DataONETest_CRL.pem

                Full Name:
                  URI:http://cn-orc-1.dataone.org/crl/DataONETest_CRL.pem

            subject_info: 
                ....<?xml version=1.0 encoding=UTF-8?><d1:subjectInfo xmlns:d1=http://ns.dataone.org/service/types/v1>    <person>        <subject>CN=testPerson,DC=dataone,DC=org</subject>        <givenName>testPerson_givenName</givenName>        <familyName>testPerson_familyName</familyName>        <isMemberOf>testGroup</isMemberOf>        <equivalentIdentity>CN=testMappedPerson,DC=dataone,DC=org</equivalentIdentity>        <verified>true</verified>           </person>    <person>        <subject>CN=testMappedPerson,DC=dataone,DC=org</subject>        <givenName>testMappedPerson_givenName</givenName>        <familyName>testMappedPerson_familyName</familyName>        <equivalentIdentity>CN=testPerson,DC=dataone,DC=org</equivalentIdentity>    </person>    <group>        <subject>testGroup</subject>        <groupName>testGroup_groupName</groupName>        <hasMember>CN=testPerson,DC=dataone,DC=org</hasMember>    </group></d1:subjectInfo>
    Signature Algorithm: sha1WithRSAEncryption
        1a:88:60:9c:87:56:c6:b3:d4:02:cb:57:4b:bd:37:29:d2:be:
        73:32:03:46:55:b3:5e:5a:a6:7c:59:93:3a:bd:ce:c0:d2:26:
        d3:42:cd:c2:7b:97:4e:d6:02:e3:10:01:58:84:e9:a8:71:f0:
        a8:48:5c:4c:fe:c2:4a:7c:c7:64:7c:62:e8:25:91:8a:c6:0d:
        94:b4:1b:7e:50:2e:77:0b:bd:d0:e5:47:20:8b:92:52:39:09:
        5f:e4:2b:66:08:99:5a:8c:93:e2:2e:36:fd:7e:9a:ba:7d:a0:
        c6:b1:0e:a1:f8:53:9f:4e:61:da:e2:33:13:86:ae:ae:6d:7c:
        fd:7b:9d:53:c0:1a:2c:a6:3c:99:d3:68:88:41:90:be:ff:cb:
        94:89:6e:06:e1:33:bc:e9:8c:1c:48:89:7d:d3:f4:b6:93:53:
        9c:cb:1b:40:ae:43:a5:6e:d1:f1:60:bd:40:f5:44:a4:8a:76:
        15:57:2b:92:4e:b1:96:05:70:5c:a4:b3:cb:1b:65:b6:03:21:
        01:55:59:0d:7f:36:2b:c4:da:05:03:35:97:c0:5a:00:82:67:
        54:9e:be:0c:ac:88:d4:60:f1:a7:b2:aa:61:11:fc:ee:54:8e:
        dc:da:02:8a:56:08:24:f6:03:82:b8:7d:9d:c5:05:83:a7:ce:
        c8:35:9e:70:ef:87:98:d2:7f:2b:00:9d:20:fe:35:05:62:c4:
        b4:52:3b:12:af:e6:0d:77:a1:e4:2b:9c:f0:89:3e:5e:78:b4:
        55:fb:67:5f:6c:7e:43:36:1f:1c:48:85:77:f7:a7:7a:f7:26:
        36:3d:d3:12:2b:19:6d:89:1b:c8:4c:4f:bb:8e:ba:4e:14:b3:
        2c:70:26:d4:88:e0:90:ca:fe:99:e8:ab:4b:5d:f6:97:8e:9a:
        ff:52:f4:68:60:74:cf:a0:c8:b0:5e:42:2e:c6:20:e3:59:d7:
        dd:35:1f:ef:f5:77:61:e8:98:e7:38:83:f7:97:64:ac:54:44:
        39:83:1f:dd:e0:ba:6e:7c:e0:f2:c8:5d:fa:f7:d2:75:2a:cc:
        59:ce:cb:07:52:89:5b:22:45:08:ca:ab:e6:5f:4d:d5:a8:38:
        d0:1a:31:9f:0f:b2:38:52:09:75:de:4c:96:25:95:4a:d8:f4:
        61:71:50:ec:96:6a:d4:05:61:e2:fc:8f:1f:79:79:9c:0b:eb:
        5e:75:0a:ce:4a:b2:f2:0b:35:f9:6f:23:61:15:26:2d:53:e7:
        67:d1:10:ec:1a:1a:a4:ee:fe:76:3a:be:36:a6:51:59:15:c7:
        0f:ce:b8:70:6f:af:b4:f9:58:0c:0c:de:3f:cd:77:22:ef:54:
        4b:21:03:1f:5d:11:6c:15
-----BEGIN CERTIFICATE-----
MIIJBTCCBu2gAwIBAgIJANoyY6KhLQAEMA0GCSqGSIb3DQEBBQUAMEgxEzARBgoJ
kiaJk/IsZAEZFgNvcmcxFzAVBgoJkiaJk/IsZAEZFgdkYXRhb25lMRgwFgYDVQQD
DA9EYXRhT05FIFRlc3QgQ0EwHhcNMTIwMzEwMDEwMDMxWhcNMTUwMzEwMDEwMDMx
WjBDMRMwEQYKCZImiZPyLGQBGRYDb3JnMRcwFQYKCZImiZPyLGQBGRYHZGF0YW9u
ZTETMBEGA1UEAwwKdGVzdFBlcnNvbjCCASIwDQYJKoZIhvcNAQEBBQADggEPADCC
AQoCggEBANsoIg3/B9eAFEiYC98rbptMhuIRH/1Eg44nto5Tc3X88gViWnP2Snac
j/IMrdnuG8jwArE2aIDKrqcDIJEg9PDK42xCqxdIToS8FU2RTXEAb5YQofRUeCPZ
WUdoY1q/gMRmwr8WsGDmlA/USV2SNCS9vfbs7PERXIAQnRjPzLGVGPcBqT8uMgb2
5DrtGvALfAJYXO0mdTwBXHJewVvBbmhQ5KUtJMB0eReDG1aqGV8uiZn6w/lRvYnk
XbUFmyZKOROP1MEACISW7C6nx6QlnX1e3nV5uUuNv7c8AnMQZQ1SKI20pq9LI1jA
+WQXdxhEda1pVW8sgLTK8Dnqc4Y7jx0CAwEAAaOCBPUwggTxMAkGA1UdEwQCMAAw
LAYJYIZIAYb4QgENBB8WHU9wZW5TU0wgR2VuZXJhdGVkIENlcnRpZmljYXRlMB0G
A1UdDgQWBBTSiAk90mSvyR1gD+34mEbhDAuZtzAfBgNVHSMEGDAWgBSei4IN5Zc0
QPTLfloMO8qR/VoxczCBvQYDVR0fBIG1MIGyMDqgOKA2hjRodHRwOi8vY24tdWNz
Yi0xLmRhdGFvbmUub3JnL2NybC9EYXRhT05FVGVzdF9DUkwucGVtMDmgN6A1hjNo
dHRwOi8vY24tdW5tLTEuZGF0YW9uZS5vcmcvY3JsL0RhdGFPTkVUZXN0X0NSTC5w
ZW0wOaA3oDWGM2h0dHA6Ly9jbi1vcmMtMS5kYXRhb25lLm9yZy9jcmwvRGF0YU9O
RVRlc3RfQ1JMLnBlbTCCA7QGCisGAQQBgpE2AgEEggOkDIIDoDw/eG1sIHZlcnNp
b249MS4wIGVuY29kaW5nPVVURi04Pz48ZDE6c3ViamVjdEluZm8geG1sbnM6ZDE9
aHR0cDovL25zLmRhdGFvbmUub3JnL3NlcnZpY2UvdHlwZXMvdjE+ICAgIDxwZXJz
b24+ICAgICAgICA8c3ViamVjdD5DTj10ZXN0UGVyc29uLERDPWRhdGFvbmUsREM9
b3JnPC9zdWJqZWN0PiAgICAgICAgPGdpdmVuTmFtZT50ZXN0UGVyc29uX2dpdmVu
TmFtZTwvZ2l2ZW5OYW1lPiAgICAgICAgPGZhbWlseU5hbWU+dGVzdFBlcnNvbl9m
YW1pbHlOYW1lPC9mYW1pbHlOYW1lPiAgICAgICAgPGlzTWVtYmVyT2Y+dGVzdEdy
b3VwPC9pc01lbWJlck9mPiAgICAgICAgPGVxdWl2YWxlbnRJZGVudGl0eT5DTj10
ZXN0TWFwcGVkUGVyc29uLERDPWRhdGFvbmUsREM9b3JnPC9lcXVpdmFsZW50SWRl
bnRpdHk+ICAgICAgICA8dmVyaWZpZWQ+dHJ1ZTwvdmVyaWZpZWQ+ICAgICAgICAg
ICA8L3BlcnNvbj4gICAgPHBlcnNvbj4gICAgICAgIDxzdWJqZWN0PkNOPXRlc3RN
YXBwZWRQZXJzb24sREM9ZGF0YW9uZSxEQz1vcmc8L3N1YmplY3Q+ICAgICAgICA8
Z2l2ZW5OYW1lPnRlc3RNYXBwZWRQZXJzb25fZ2l2ZW5OYW1lPC9naXZlbk5hbWU+
ICAgICAgICA8ZmFtaWx5TmFtZT50ZXN0TWFwcGVkUGVyc29uX2ZhbWlseU5hbWU8
L2ZhbWlseU5hbWU+ICAgICAgICA8ZXF1aXZhbGVudElkZW50aXR5PkNOPXRlc3RQ
ZXJzb24sREM9ZGF0YW9uZSxEQz1vcmc8L2VxdWl2YWxlbnRJZGVudGl0eT4gICAg
PC9wZXJzb24+ICAgIDxncm91cD4gICAgICAgIDxzdWJqZWN0PnRlc3RHcm91cDwv
c3ViamVjdD4gICAgICAgIDxncm91cE5hbWU+dGVzdEdyb3VwX2dyb3VwTmFtZTwv
Z3JvdXBOYW1lPiAgICAgICAgPGhhc01lbWJlcj5DTj10ZXN0UGVyc29uLERDPWRh
dGFvbmUsREM9b3JnPC9oYXNNZW1iZXI+ICAgIDwvZ3JvdXA+PC9kMTpzdWJqZWN0
SW5mbz4wDQYJKoZIhvcNAQEFBQADggIBABqIYJyHVsaz1ALLV0u9NynSvnMyA0ZV
s15apnxZkzq9zsDSJtNCzcJ7l07WAuMQAViE6ahx8KhIXEz+wkp8x2R8YuglkYrG
DZS0G35QLncLvdDlRyCLklI5CV/kK2YImVqMk+IuNv1+mrp9oMaxDqH4U59OYdri
MxOGrq5tfP17nVPAGiymPJnTaIhBkL7/y5SJbgbhM7zpjBxIiX3T9LaTU5zLG0Cu
Q6Vu0fFgvUD1RKSKdhVXK5JOsZYFcFyks8sbZbYDIQFVWQ1/NivE2gUDNZfAWgCC
Z1SevgysiNRg8aeyqmER/O5UjtzaAopWCCT2A4K4fZ3FBYOnzsg1nnDvh5jSfysA
nSD+NQVixLRSOxKv5g13oeQrnPCJPl54tFX7Z19sfkM2HxxIhXf3p3r3JjY90xIr
GW2JG8hMT7uOuk4UsyxwJtSI4JDK/pnoq0td9peOmv9S9GhgdM+gyLBeQi7GIONZ
1901H+/1d2HomOc4g/eXZKxURDmDH93gum584PLIXfr30nUqzFnOywdSiVsiRQjK
q+ZfTdWoONAaMZ8PsjhSCXXeTJYllUrY9GFxUOyWatQFYeL8jx95eZwL6151Cs5K
svILNflvI2EVJi1T52fREOwaGqTu/nY6vjamUVkVxw/OuHBvr7T5WAwM3j/NdyLv
VEshAx9dEWwV
-----END CERTIFICATE-----
