Certificate:
    Data:
        Version: 3 (0x2)
        Serial Number:
            da:32:63:a2:a1:2d:00:07
        Signature Algorithm: sha1WithRSAEncryption
        Issuer: dc=org/dc=dataone, CN=DataONE Test CA
        Validity
            Not Before: Mar 10 01:19:20 2012 GMT
            Not After : Mar 10 01:19:20 2015 GMT
        Subject: dc=org/dc=dataone, CN=urn:node:cnSandboxUCSB1
        Subject Public Key Info:
            Public Key Algorithm: rsaEncryption
                Public-Key: (2048 bit)
                Modulus:
                    00:c9:b5:8c:e0:e8:25:79:67:80:d8:f0:8e:43:ce:
                    58:16:7b:af:d4:67:a6:68:7d:94:e5:18:b4:8a:a1:
                    5d:8f:d9:13:95:19:f9:b6:f5:81:92:04:cb:17:bb:
                    2d:c4:29:b4:5b:46:ce:0f:f6:e3:3b:d2:b8:22:32:
                    97:e3:0e:02:50:ed:a1:47:69:0e:bf:e3:a1:80:ff:
                    38:45:32:36:82:b5:08:bd:9a:0c:01:fe:0f:a0:3e:
                    a2:a9:7b:79:22:e5:ee:2e:0b:c3:d9:98:5b:3f:75:
                    03:8c:7e:81:ea:79:f2:bf:16:93:ab:15:4f:b5:dd:
                    9a:be:1f:83:1e:aa:a1:ee:d1:72:69:e5:4c:64:20:
                    04:4f:57:e8:24:b5:fd:06:e2:b3:30:46:32:2b:88:
                    74:65:6a:3a:3f:a2:3c:47:74:03:dd:9a:ae:86:19:
                    4b:0d:c5:8a:81:c6:c1:dc:6e:40:36:54:fa:7f:db:
                    50:cd:30:e9:d5:5a:fb:99:6a:3b:9f:7c:a0:9e:08:
                    6e:3b:56:a0:18:3f:70:a8:83:f5:d3:59:7f:12:5b:
                    8f:c5:13:87:d7:d7:3e:7f:37:af:5e:e3:f8:26:66:
                    70:ed:d3:54:3f:bb:73:ff:7c:82:b6:67:52:ed:16:
                    ff:fd:9f:67:4d:68:15:22:c1:f4:53:69:3e:53:4e:
                    f7:59
                Exponent: 65537 (0x10001)
        X509v3 extensions:
            X509v3 Basic Constraints: 
                CA:FALSE
            Netscape Comment: 
                OpenSSL Generated Certificate
            X509v3 Subject Key Identifier: 
                99:52:31:6C:51:2D:AA:22:53:D4:F8:4A:85:4C:85:16:AC:21:50:F2
            X509v3 Authority Key Identifier: 
                keyid:9E:8B:82:0D:E5:97:34:40:F4:CB:7E:5A:0C:3B:CA:91:FD:5A:31:73

            X509v3 CRL Distribution Points: 

                Full Name:
                  URI:http://cn-ucsb-1.dataone.org/crl/DataONETest_CRL.pem

                Full Name:
                  URI:http://cn-unm-1.dataone.org/crl/DataONETest_CRL.pem

                Full Name:
                  URI:http://cn-orc-1.dataone.org/crl/DataONETest_CRL.pem

    Signature Algorithm: sha1WithRSAEncryption
        7f:27:d2:a9:1f:86:4b:5d:93:c5:7a:d8:a7:51:39:cc:f4:5e:
        34:16:c7:20:69:f1:6d:16:a0:38:21:43:68:bc:aa:b7:c9:f4:
        4b:19:d4:1c:f2:1c:d2:70:b7:ff:52:6f:27:f1:c3:bc:b7:4b:
        47:52:f9:bc:7a:41:6c:fd:27:0e:df:95:12:0e:b5:14:ac:d0:
        a6:96:67:8b:7f:45:76:8f:39:b0:b9:d5:37:64:f4:f4:3d:1d:
        74:c2:2d:bb:ec:38:99:45:de:73:26:c2:e6:25:c6:64:71:7c:
        32:b2:72:04:02:7e:ad:05:21:25:31:72:f2:8a:e4:ff:59:eb:
        15:80:1d:bb:88:39:e6:db:7a:f0:d5:dc:b9:b9:14:e0:30:ca:
        54:b4:50:5f:58:8d:78:b0:b0:c9:c3:ed:4a:32:50:6b:1f:aa:
        de:f5:ab:0d:cc:f5:8d:fd:1d:c9:19:04:50:dd:70:b5:7e:5b:
        82:cc:10:78:19:f8:5e:d1:32:73:93:a4:12:c5:fc:62:ec:84:
        4f:60:7a:d1:8f:b7:7f:51:5f:69:74:ce:0f:c4:8c:6e:7c:61:
        79:c8:98:d1:62:a6:65:5c:8c:5e:39:f0:e1:eb:af:0e:e2:f2:
        9e:c0:71:7c:46:42:2a:4c:45:7d:fa:6a:7a:29:c1:af:75:9b:
        63:01:24:41:92:91:f8:f0:0e:e9:cf:0c:ae:1a:01:12:af:92:
        3c:d7:fa:64:1a:18:f1:6c:ff:9e:54:1e:b1:9a:19:6f:cc:37:
        58:8d:18:3f:44:11:35:6a:9d:df:a1:bd:4d:27:ac:24:3f:81:
        39:10:34:4e:dc:6a:9a:f4:b6:9d:67:ee:c2:32:2f:7e:ea:cb:
        7e:3c:bd:fa:c5:1b:7d:dc:2a:a8:8a:68:fa:98:82:94:b2:3d:
        d1:63:fe:ea:06:0c:98:7d:8b:0b:e5:f7:df:c0:0a:1b:e3:4f:
        eb:3d:ea:f4:c0:5d:9c:e3:26:c3:ed:ff:d4:16:6d:3c:b2:8f:
        50:cc:99:33:ef:1b:24:b4:e5:a3:14:d5:d9:3d:60:b0:df:70:
        17:88:84:67:89:1a:da:6b:5d:7e:10:8d:89:e2:81:21:cd:7b:
        33:6f:12:1e:54:20:a7:6a:62:fb:e6:61:d8:81:7a:37:22:e9:
        f4:85:51:1a:91:01:c4:0e:67:2d:fc:78:89:d3:15:62:64:7f:
        dd:ec:0a:05:f6:84:86:f0:6a:56:05:59:dd:40:53:6d:54:f5:
        ad:e8:a3:f6:f0:44:2b:a3:f1:47:37:51:23:33:69:87:e3:b8:
        37:ea:bc:e6:43:e9:2e:3c:e6:88:cb:9c:9e:c4:f6:8e:da:9b:
        3e:0d:f1:66:65:68:69:d5
-----BEGIN CERTIFICATE-----
MIIFWjCCA0KgAwIBAgIJANoyY6KhLQAHMA0GCSqGSIb3DQEBBQUAMEgxEzARBgoJ
kiaJk/IsZAEZFgNvcmcxFzAVBgoJkiaJk/IsZAEZFgdkYXRhb25lMRgwFgYDVQQD
DA9EYXRhT05FIFRlc3QgQ0EwHhcNMTIwMzEwMDExOTIwWhcNMTUwMzEwMDExOTIw
WjBQMRMwEQYKCZImiZPyLGQBGRYDb3JnMRcwFQYKCZImiZPyLGQBGRYHZGF0YW9u
ZTEgMB4GA1UEAwwXdXJuOm5vZGU6Y25TYW5kYm94VUNTQjEwggEiMA0GCSqGSIb3
DQEBAQUAA4IBDwAwggEKAoIBAQDJtYzg6CV5Z4DY8I5DzlgWe6/UZ6ZofZTlGLSK
oV2P2ROVGfm29YGSBMsXuy3EKbRbRs4P9uM70rgiMpfjDgJQ7aFHaQ6/46GA/zhF
MjaCtQi9mgwB/g+gPqKpe3ki5e4uC8PZmFs/dQOMfoHqefK/FpOrFU+13Zq+H4Me
qqHu0XJp5UxkIARPV+gktf0G4rMwRjIriHRlajo/ojxHdAPdmq6GGUsNxYqBxsHc
bkA2VPp/21DNMOnVWvuZajuffKCeCG47VqAYP3Cog/XTWX8SW4/FE4fX1z5/N69e
4/gmZnDt01Q/u3P/fIK2Z1LtFv/9n2dNaBUiwfRTaT5TTvdZAgMBAAGjggE9MIIB
OTAJBgNVHRMEAjAAMCwGCWCGSAGG+EIBDQQfFh1PcGVuU1NMIEdlbmVyYXRlZCBD
ZXJ0aWZpY2F0ZTAdBgNVHQ4EFgQUmVIxbFEtqiJT1PhKhUyFFqwhUPIwHwYDVR0j
BBgwFoAUnouCDeWXNED0y35aDDvKkf1aMXMwgb0GA1UdHwSBtTCBsjA6oDigNoY0
aHR0cDovL2NuLXVjc2ItMS5kYXRhb25lLm9yZy9jcmwvRGF0YU9ORVRlc3RfQ1JM
LnBlbTA5oDegNYYzaHR0cDovL2NuLXVubS0xLmRhdGFvbmUub3JnL2NybC9EYXRh
T05FVGVzdF9DUkwucGVtMDmgN6A1hjNodHRwOi8vY24tb3JjLTEuZGF0YW9uZS5v
cmcvY3JsL0RhdGFPTkVUZXN0X0NSTC5wZW0wDQYJKoZIhvcNAQEFBQADggIBAH8n
0qkfhktdk8V62KdROcz0XjQWxyBp8W0WoDghQ2i8qrfJ9EsZ1BzyHNJwt/9Sbyfx
w7y3S0dS+bx6QWz9Jw7flRIOtRSs0KaWZ4t/RXaPObC51Tdk9PQ9HXTCLbvsOJlF
3nMmwuYlxmRxfDKycgQCfq0FISUxcvKK5P9Z6xWAHbuIOebbevDV3Lm5FOAwylS0
UF9YjXiwsMnD7UoyUGsfqt71qw3M9Y39HckZBFDdcLV+W4LMEHgZ+F7RMnOTpBLF
/GLshE9getGPt39RX2l0zg/EjG58YXnImNFipmVcjF458OHrrw7i8p7AcXxGQipM
RX36anopwa91m2MBJEGSkfjwDunPDK4aARKvkjzX+mQaGPFs/55UHrGaGW/MN1iN
GD9EETVqnd+hvU0nrCQ/gTkQNE7capr0tp1n7sIyL37qy348vfrFG33cKqiKaPqY
gpSyPdFj/uoGDJh9iwvl99/AChvjT+s96vTAXZzjJsPt/9QWbTyyj1DMmTPvGyS0
5aMU1dk9YLDfcBeIhGeJGtprXX4QjYnigSHNezNvEh5UIKdqYvvmYdiBejci6fSF
URqRAcQOZy38eInTFWJkf93sCgX2hIbwalYFWd1AU21U9a3oo/bwRCuj8Uc3USMz
aYfjuDfqvOZD6S485ojLnJ7E9o7amz4N8WZlaGnV
-----END CERTIFICATE-----
