Certificate:
    Data:
        Version: 3 (0x2)
        Serial Number:
            da:32:63:a2:a1:2d:00:11
        Signature Algorithm: sha1WithRSAEncryption
        Issuer: dc=org/dc=dataone, CN=DataONE Test CA
        Validity
            Not Before: Mar 10 01:27:57 2012 GMT
            Not After : Mar 10 01:27:57 2015 GMT
        Subject: dc=org/dc=dataone, CN=urn:node:DEMO1
        Subject Public Key Info:
            Public Key Algorithm: rsaEncryption
                Public-Key: (2048 bit)
                Modulus:
                    00:b4:3a:41:fc:2d:e8:42:da:0f:5e:d4:5b:4a:c7:
                    ce:08:2a:fa:34:bd:43:b9:45:7e:4d:9f:59:dc:1f:
                    65:5d:4b:79:cf:b2:a2:3d:49:58:29:05:8a:da:3b:
                    eb:fd:05:54:63:86:4b:1e:b0:da:d1:bb:dd:c6:55:
                    b0:20:be:c0:58:50:6f:1c:5a:40:52:fb:85:d8:dc:
                    01:d5:ce:af:d7:8a:42:aa:38:cd:c4:da:38:f8:2c:
                    fd:ea:43:b9:3d:9f:a0:ab:cb:a8:97:22:eb:53:c5:
                    d1:12:68:8b:24:13:a3:66:aa:2a:fe:f1:17:80:6b:
                    18:90:66:75:3b:11:d9:23:5e:59:08:4c:04:d9:f2:
                    4a:0e:c5:df:51:bd:64:ea:ce:fa:e4:27:1c:e5:f6:
                    10:26:84:70:82:37:00:ea:b6:24:d9:3e:59:f1:25:
                    01:35:f0:d4:75:57:94:86:34:d5:74:fd:0d:51:e6:
                    54:25:20:50:9f:73:1e:db:8a:6d:2c:22:c5:80:8f:
                    e6:e5:a1:d8:5b:06:c5:cf:58:a7:22:b2:7c:44:e3:
                    8e:4a:1d:7c:84:7f:48:fa:37:d3:69:c9:3f:dd:fa:
                    49:6f:0c:43:77:00:45:a2:0e:f6:94:93:01:3e:4f:
                    fb:d9:ef:72:fd:b6:46:0f:f7:2d:03:36:27:8b:fb:
                    c5:3b
                Exponent: 65537 (0x10001)
        X509v3 extensions:
            X509v3 Basic Constraints: 
                CA:FALSE
            Netscape Comment: 
                OpenSSL Generated Certificate
            X509v3 Subject Key Identifier: 
                E4:A0:CF:16:DE:CB:4C:4C:C8:34:DB:E4:20:33:E5:BD:16:32:1C:91
            X509v3 Authority Key Identifier: 
                keyid:9E:8B:82:0D:E5:97:34:40:F4:CB:7E:5A:0C:3B:CA:91:FD:5A:31:73

            X509v3 CRL Distribution Points: 

                Full Name:
                  URI:http://cn-ucsb-1.dataone.org/crl/DataONETest_CRL.pem

                Full Name:
                  URI:http://cn-unm-1.dataone.org/crl/DataONETest_CRL.pem

                Full Name:
                  URI:http://cn-orc-1.dataone.org/crl/DataONETest_CRL.pem

    Signature Algorithm: sha1WithRSAEncryption
        6b:40:14:92:b3:cb:65:30:6e:38:bb:8a:3d:ee:e1:57:c1:45:
        2c:d0:61:5f:a1:ed:97:e1:de:60:60:24:e0:41:df:92:c9:89:
        4f:49:48:68:5c:04:7b:2e:61:a0:f8:0c:73:e1:01:4c:03:37:
        cd:7f:c1:c7:17:92:71:aa:05:a9:b0:4e:df:d9:bf:2d:17:d1:
        bf:7f:a1:01:74:11:e1:9b:79:86:97:d3:df:87:f0:43:04:07:
        04:9b:4a:1d:c5:b3:09:80:18:cb:a5:05:1b:12:86:c4:cf:e2:
        aa:9c:31:98:d2:0a:90:3b:25:b4:de:a6:f9:e5:5d:2d:76:6a:
        8d:67:50:10:79:f7:51:7f:8f:b2:fd:83:5e:c7:36:70:6e:11:
        bd:38:35:c7:8f:e9:db:5f:cf:18:ee:52:9e:bf:69:a9:c9:bf:
        5d:01:f1:bd:d7:48:b3:f8:d5:f5:27:71:c7:ee:38:49:b8:e5:
        2f:a2:c6:dc:40:70:e7:f8:fe:c8:39:a4:3f:af:b7:1e:78:b7:
        84:b7:85:8a:2e:27:46:88:0b:50:0d:2e:9d:7e:4a:db:fd:a5:
        ed:79:13:f3:fd:dd:68:68:ce:ba:84:6a:14:d7:dc:fd:b5:e2:
        62:f8:fa:6d:5f:33:9f:90:c5:1c:1e:f2:12:e8:85:30:be:23:
        9c:03:4d:51:5b:f9:b5:c3:46:18:89:ae:06:5a:2e:29:03:0d:
        df:98:52:e0:3a:ec:ec:00:f6:d8:bd:b5:73:59:db:fe:c1:f9:
        8b:0f:2f:b9:d8:a5:5a:a6:22:fc:33:c8:bc:75:a4:59:99:09:
        8c:a4:e5:c7:00:ee:50:cc:b5:b8:a2:0c:23:b1:a6:29:e9:e8:
        a9:20:e4:e7:d7:27:82:7f:62:ec:a7:de:2e:c8:c2:f4:2f:22:
        63:8c:44:a6:be:94:87:4b:4e:85:38:cd:ec:9d:e5:05:6e:9e:
        95:d1:72:55:fd:05:a1:ed:eb:26:74:3d:26:4f:96:c6:1b:39:
        61:04:d8:a1:83:a9:e4:02:84:83:0d:63:74:67:94:f8:12:7e:
        8e:57:5f:d7:b4:cd:3c:ac:5b:a6:21:bf:f8:e0:8e:29:34:9c:
        aa:be:51:e6:af:e2:f8:dc:17:80:44:ea:c4:a9:a1:64:6b:b4:
        83:5f:5f:1c:c4:ce:19:bd:9d:32:d0:54:f8:61:c0:43:7f:80:
        b5:af:d1:cc:7d:98:dc:ef:d6:1b:81:b9:1a:b3:56:61:d2:fd:
        d6:7f:aa:31:f6:df:5b:a0:e8:32:0d:1b:3c:29:a3:f7:05:ec:
        3c:1c:0b:bd:e3:10:30:94:46:35:4f:5b:3f:8d:08:78:7b:ed:
        05:12:38:fd:b2:09:3c:89
-----BEGIN CERTIFICATE-----
MIIFUTCCAzmgAwIBAgIJANoyY6KhLQARMA0GCSqGSIb3DQEBBQUAMEgxEzARBgoJ
kiaJk/IsZAEZFgNvcmcxFzAVBgoJkiaJk/IsZAEZFgdkYXRhb25lMRgwFgYDVQQD
DA9EYXRhT05FIFRlc3QgQ0EwHhcNMTIwMzEwMDEyNzU3WhcNMTUwMzEwMDEyNzU3
WjBHMRMwEQYKCZImiZPyLGQBGRYDb3JnMRcwFQYKCZImiZPyLGQBGRYHZGF0YW9u
ZTEXMBUGA1UEAwwOdXJuOm5vZGU6REVNTzEwggEiMA0GCSqGSIb3DQEBAQUAA4IB
DwAwggEKAoIBAQC0OkH8LehC2g9e1FtKx84IKvo0vUO5RX5Nn1ncH2VdS3nPsqI9
SVgpBYraO+v9BVRjhksesNrRu93GVbAgvsBYUG8cWkBS+4XY3AHVzq/XikKqOM3E
2jj4LP3qQ7k9n6Cry6iXIutTxdESaIskE6Nmqir+8ReAaxiQZnU7EdkjXlkITATZ
8koOxd9RvWTqzvrkJxzl9hAmhHCCNwDqtiTZPlnxJQE18NR1V5SGNNV0/Q1R5lQl
IFCfcx7bim0sIsWAj+blodhbBsXPWKcisnxE445KHXyEf0j6N9NpyT/d+klvDEN3
AEWiDvaUkwE+T/vZ73L9tkYP9y0DNieL+8U7AgMBAAGjggE9MIIBOTAJBgNVHRME
AjAAMCwGCWCGSAGG+EIBDQQfFh1PcGVuU1NMIEdlbmVyYXRlZCBDZXJ0aWZpY2F0
ZTAdBgNVHQ4EFgQU5KDPFt7LTEzINNvkIDPlvRYyHJEwHwYDVR0jBBgwFoAUnouC
DeWXNED0y35aDDvKkf1aMXMwgb0GA1UdHwSBtTCBsjA6oDigNoY0aHR0cDovL2Nu
LXVjc2ItMS5kYXRhb25lLm9yZy9jcmwvRGF0YU9ORVRlc3RfQ1JMLnBlbTA5oDeg
NYYzaHR0cDovL2NuLXVubS0xLmRhdGFvbmUub3JnL2NybC9EYXRhT05FVGVzdF9D
UkwucGVtMDmgN6A1hjNodHRwOi8vY24tb3JjLTEuZGF0YW9uZS5vcmcvY3JsL0Rh
dGFPTkVUZXN0X0NSTC5wZW0wDQYJKoZIhvcNAQEFBQADggIBAGtAFJKzy2Uwbji7
ij3u4VfBRSzQYV+h7Zfh3mBgJOBB35LJiU9JSGhcBHsuYaD4DHPhAUwDN81/wccX
knGqBamwTt/Zvy0X0b9/oQF0EeGbeYaX09+H8EMEBwSbSh3FswmAGMulBRsShsTP
4qqcMZjSCpA7JbTepvnlXS12ao1nUBB591F/j7L9g17HNnBuEb04NceP6dtfzxju
Up6/aanJv10B8b3XSLP41fUnccfuOEm45S+ixtxAcOf4/sg5pD+vtx54t4S3hYou
J0aIC1ANLp1+Stv9pe15E/P93WhozrqEahTX3P214mL4+m1fM5+QxRwe8hLohTC+
I5wDTVFb+bXDRhiJrgZaLikDDd+YUuA67OwA9ti9tXNZ2/7B+YsPL7nYpVqmIvwz
yLx1pFmZCYyk5ccA7lDMtbiiDCOxpinp6Kkg5OfXJ4J/Yuyn3i7IwvQvImOMRKa+
lIdLToU4zeyd5QVunpXRclX9BaHt6yZ0PSZPlsYbOWEE2KGDqeQChIMNY3RnlPgS
fo5XX9e0zTysW6Yhv/jgjik0nKq+Ueav4vjcF4BE6sSpoWRrtINfXxzEzhm9nTLQ
VPhhwEN/gLWv0cx9mNzv1huBuRqzVmHS/dZ/qjH231ug6DINGzwpo/cF7DwcC73j
EDCURjVPWz+NCHh77QUSOP2yCTyJ
-----END CERTIFICATE-----
