Certificate:
    Data:
        Version: 3 (0x2)
        Serial Number:
            da:32:63:a2:a1:2d:00:0f
        Signature Algorithm: sha1WithRSAEncryption
        Issuer: dc=org/dc=dataone, CN=DataONE Test CA
        Validity
            Not Before: Mar 10 01:27:17 2012 GMT
            Not After : Mar 10 01:27:17 2015 GMT
        Subject: dc=org/dc=dataone, CN=urn:node:cnDevORC1
        Subject Public Key Info:
            Public Key Algorithm: rsaEncryption
                Public-Key: (2048 bit)
                Modulus:
                    00:be:c4:a3:db:2d:36:9e:44:80:df:c3:57:a8:3b:
                    c5:65:ab:44:80:29:83:49:1d:76:21:38:63:48:10:
                    c9:58:51:0e:bc:20:bc:ff:64:4e:dd:47:6d:a4:46:
                    44:5e:e3:d1:0c:7d:40:b7:72:e4:e7:5f:79:ae:70:
                    69:85:66:aa:d5:18:76:f4:60:49:01:44:de:84:b2:
                    3c:8c:bc:ab:69:61:8d:cb:6c:7e:f4:e8:b8:c0:24:
                    26:27:03:e9:36:3f:2b:f7:0c:f5:a0:19:56:d4:4a:
                    d8:2f:90:5d:c4:d4:87:c8:fb:7c:ff:62:80:0f:7e:
                    1f:21:79:ef:d2:e6:72:3b:1b:81:4b:b5:bc:8e:79:
                    82:81:bd:49:ee:2f:c3:5d:f0:de:d7:36:c4:fd:4c:
                    d4:16:0f:c0:b2:2e:4f:e4:f8:80:cf:6d:72:e5:b0:
                    88:cd:d3:5a:63:ce:f1:0c:0b:07:db:2c:79:f7:30:
                    fc:78:d9:9b:82:e3:95:09:15:23:c5:b0:e3:02:9b:
                    53:9d:c3:68:2c:e4:78:28:d7:5f:a6:62:2f:ec:41:
                    87:2c:06:7f:c3:77:3d:45:4c:49:12:b8:aa:e4:f1:
                    b6:c3:97:ff:be:8f:c4:7a:0c:a5:97:4d:da:6f:5d:
                    6f:f7:3b:cf:47:55:47:33:a8:8a:c6:a1:ff:b1:bd:
                    6d:ab
                Exponent: 65537 (0x10001)
        X509v3 extensions:
            X509v3 Basic Constraints: 
                CA:FALSE
            Netscape Comment: 
                OpenSSL Generated Certificate
            X509v3 Subject Key Identifier: 
                51:74:09:08:8C:63:6E:27:0D:E4:9F:25:53:80:CA:07:7E:A5:82:3D
            X509v3 Authority Key Identifier: 
                keyid:9E:8B:82:0D:E5:97:34:40:F4:CB:7E:5A:0C:3B:CA:91:FD:5A:31:73

            X509v3 CRL Distribution Points: 

                Full Name:
                  URI:http://cn-ucsb-1.dataone.org/crl/DataONETest_CRL.pem

                Full Name:
                  URI:http://cn-unm-1.dataone.org/crl/DataONETest_CRL.pem

                Full Name:
                  URI:http://cn-orc-1.dataone.org/crl/DataONETest_CRL.pem

    Signature Algorithm: sha1WithRSAEncryption
        16:39:25:52:da:a8:18:52:ab:07:03:ee:56:ea:e8:b7:c3:b0:
        db:77:e9:cf:a6:f7:fc:d9:8f:f7:de:e7:c5:f4:55:74:57:2d:
        ca:21:6f:90:74:4e:8d:d9:64:bf:db:4e:52:bf:cc:e1:ce:f7:
        1a:44:f8:20:d5:1b:19:66:cd:f7:4e:94:0a:23:36:93:64:7b:
        5d:2f:30:96:83:bc:55:1c:ca:1e:4f:bd:89:a5:39:a8:c3:d4:
        e0:0b:69:a1:33:e4:6e:51:92:14:95:01:ff:7e:93:1a:93:81:
        89:10:d8:a3:33:2b:1f:34:24:1b:70:5b:0b:6b:55:6e:4e:fd:
        8d:34:2e:0b:27:bd:72:8d:70:cc:06:5d:1f:77:31:34:5d:f5:
        4f:48:5e:ab:a7:31:c2:31:fc:d1:fb:5b:b5:89:a5:f5:8a:4a:
        6e:b9:b9:94:90:c8:7c:e8:2e:63:0c:55:f5:13:e0:02:8b:12:
        12:84:c7:27:4c:c1:7b:62:ea:67:de:dc:7f:2d:d3:a5:6e:87:
        4d:ae:13:ad:b1:b8:a1:80:d0:58:91:a5:28:0b:4d:78:c1:02:
        ff:59:b9:39:b8:16:2f:79:4b:62:b8:63:97:68:f2:01:2a:e2:
        1c:74:75:54:ba:e2:b9:9c:72:aa:5c:4c:54:0a:65:0a:5b:6a:
        0f:20:27:19:cf:b8:4a:b6:40:7c:1f:6b:6b:98:38:70:40:10:
        7f:34:ee:b1:3c:37:3e:03:43:91:02:96:41:86:f1:f2:bc:0e:
        31:a9:c4:cc:cd:81:d7:80:d0:1a:90:30:e9:e1:a2:00:06:cf:
        3e:1d:79:b3:81:98:28:d1:21:b0:53:9c:26:ed:4e:59:b3:91:
        6d:10:c0:7a:0e:c9:9c:e2:95:74:bb:1a:cb:e0:3c:36:80:f2:
        20:b3:aa:02:8e:0b:7a:d9:15:77:55:9a:77:83:72:7b:3d:18:
        51:2d:d4:ca:ef:f1:1c:96:e6:17:22:7d:a2:31:ff:6c:7e:c6:
        8f:36:c2:78:7b:dc:be:69:6e:ef:46:41:43:8a:1f:02:a5:9b:
        90:ea:40:9f:0f:22:8e:7d:81:43:7c:15:bd:04:01:dd:04:65:
        f5:9b:63:2e:44:05:5b:ae:e6:75:b0:6d:ce:ff:ef:f0:92:74:
        09:47:ed:bf:36:41:7a:85:aa:06:9d:75:29:a8:61:de:76:13:
        ca:a9:e6:11:e9:e2:c8:ab:8f:d2:60:d8:50:bd:70:71:f4:96:
        11:3d:ec:ed:e7:ce:42:56:2f:dc:4e:46:5b:45:76:3e:67:44:
        14:76:97:b9:3b:a3:21:f4:e7:e9:69:71:ae:1c:dc:57:82:66:
        b3:33:85:b6:57:b5:4a:44
-----BEGIN CERTIFICATE-----
MIIFVTCCAz2gAwIBAgIJANoyY6KhLQAPMA0GCSqGSIb3DQEBBQUAMEgxEzARBgoJ
kiaJk/IsZAEZFgNvcmcxFzAVBgoJkiaJk/IsZAEZFgdkYXRhb25lMRgwFgYDVQQD
DA9EYXRhT05FIFRlc3QgQ0EwHhcNMTIwMzEwMDEyNzE3WhcNMTUwMzEwMDEyNzE3
WjBLMRMwEQYKCZImiZPyLGQBGRYDb3JnMRcwFQYKCZImiZPyLGQBGRYHZGF0YW9u
ZTEbMBkGA1UEAwwSdXJuOm5vZGU6Y25EZXZPUkMxMIIBIjANBgkqhkiG9w0BAQEF
AAOCAQ8AMIIBCgKCAQEAvsSj2y02nkSA38NXqDvFZatEgCmDSR12IThjSBDJWFEO
vCC8/2RO3UdtpEZEXuPRDH1At3Lk5195rnBphWaq1Rh29GBJAUTehLI8jLyraWGN
y2x+9Oi4wCQmJwPpNj8r9wz1oBlW1ErYL5BdxNSHyPt8/2KAD34fIXnv0uZyOxuB
S7W8jnmCgb1J7i/DXfDe1zbE/UzUFg/Asi5P5PiAz21y5bCIzdNaY87xDAsH2yx5
9zD8eNmbguOVCRUjxbDjAptTncNoLOR4KNdfpmIv7EGHLAZ/w3c9RUxJEriq5PG2
w5f/vo/Eegyll03ab11v9zvPR1VHM6iKxqH/sb1tqwIDAQABo4IBPTCCATkwCQYD
VR0TBAIwADAsBglghkgBhvhCAQ0EHxYdT3BlblNTTCBHZW5lcmF0ZWQgQ2VydGlm
aWNhdGUwHQYDVR0OBBYEFFF0CQiMY24nDeSfJVOAygd+pYI9MB8GA1UdIwQYMBaA
FJ6Lgg3llzRA9Mt+Wgw7ypH9WjFzMIG9BgNVHR8EgbUwgbIwOqA4oDaGNGh0dHA6
Ly9jbi11Y3NiLTEuZGF0YW9uZS5vcmcvY3JsL0RhdGFPTkVUZXN0X0NSTC5wZW0w
OaA3oDWGM2h0dHA6Ly9jbi11bm0tMS5kYXRhb25lLm9yZy9jcmwvRGF0YU9ORVRl
c3RfQ1JMLnBlbTA5oDegNYYzaHR0cDovL2NuLW9yYy0xLmRhdGFvbmUub3JnL2Ny
bC9EYXRhT05FVGVzdF9DUkwucGVtMA0GCSqGSIb3DQEBBQUAA4ICAQAWOSVS2qgY
UqsHA+5W6ui3w7Dbd+nPpvf82Y/33ufF9FV0Vy3KIW+QdE6N2WS/205Sv8zhzvca
RPgg1RsZZs33TpQKIzaTZHtdLzCWg7xVHMoeT72JpTmow9TgC2mhM+RuUZIUlQH/
fpMak4GJENijMysfNCQbcFsLa1VuTv2NNC4LJ71yjXDMBl0fdzE0XfVPSF6rpzHC
MfzR+1u1iaX1ikpuubmUkMh86C5jDFX1E+ACixIShMcnTMF7Yupn3tx/LdOlbodN
rhOtsbihgNBYkaUoC014wQL/Wbk5uBYveUtiuGOXaPIBKuIcdHVUuuK5nHKqXExU
CmUKW2oPICcZz7hKtkB8H2trmDhwQBB/NO6xPDc+A0ORApZBhvHyvA4xqcTMzYHX
gNAakDDp4aIABs8+HXmzgZgo0SGwU5wm7U5Zs5FtEMB6Dsmc4pV0uxrL4Dw2gPIg
s6oCjgt62RV3VZp3g3J7PRhRLdTK7/EcluYXIn2iMf9sfsaPNsJ4e9y+aW7vRkFD
ih8CpZuQ6kCfDyKOfYFDfBW9BAHdBGX1m2MuRAVbruZ1sG3O/+/wknQJR+2/NkF6
haoGnXUpqGHedhPKqeYR6eLIq4/SYNhQvXBx9JYRPezt585CVi/cTkZbRXY+Z0QU
dpe5O6Mh9OfpaXGuHNxXgmazM4W2V7VKRA==
-----END CERTIFICATE-----
