Certificate:
    Data:
        Version: 3 (0x2)
        Serial Number:
            da:32:63:a2:a1:2d:00:23
        Signature Algorithm: sha1WithRSAEncryption
        Issuer: dc=org/dc=dataone, CN=DataONE Test CA
        Validity
            Not Before: Apr 11 00:13:40 2012 GMT
            Not After : Apr 11 00:13:40 2015 GMT
        Subject: dc=org/dc=dataone, CN=urn:node:D1USGS5
        Subject Public Key Info:
            Public Key Algorithm: rsaEncryption
                Public-Key: (2048 bit)
                Modulus:
                    00:b8:59:c6:a7:74:0a:da:5a:5f:0b:0e:63:96:df:
                    4e:37:a2:4b:f9:28:02:6c:8f:b9:bc:0e:44:bb:ef:
                    52:00:38:8b:a4:d6:3a:98:8b:ec:5e:98:ce:82:db:
                    40:3f:4e:e0:bc:a2:74:6a:35:0d:12:3d:74:a2:54:
                    d6:24:52:c6:4b:d7:29:85:84:e4:2d:c9:e0:1a:71:
                    63:00:c4:d9:b6:53:4f:b0:43:df:a7:93:f6:1b:83:
                    53:8f:42:38:b3:79:f8:9e:1a:ba:50:4c:dd:99:d6:
                    04:9a:ce:6b:24:a4:27:60:cb:c2:8e:c6:c9:59:42:
                    d4:6d:09:4e:23:b5:96:6d:bb:3c:d2:8c:45:09:a5:
                    a1:1e:f3:3b:d7:b6:14:73:20:8a:e1:f2:5f:80:3c:
                    c8:29:a7:d1:38:50:43:d3:c0:ec:e5:31:cd:27:d5:
                    92:f9:0b:ba:8b:64:21:71:bb:21:37:ce:86:a6:dc:
                    66:3c:c2:2b:2f:33:f6:2b:cd:3c:20:fe:88:4e:24:
                    0c:40:35:fe:37:59:e0:52:c3:7b:09:9a:07:cd:5c:
                    9e:24:e9:07:70:0f:02:8e:a2:7d:eb:c9:04:d6:30:
                    25:c0:27:b3:9c:d2:ed:6c:bc:c3:de:82:16:2b:08:
                    c6:6d:04:d4:99:7d:da:ff:45:8e:21:d4:1e:af:06:
                    79:fb
                Exponent: 65537 (0x10001)
        X509v3 extensions:
            X509v3 Basic Constraints: 
                CA:FALSE
            Netscape Comment: 
                OpenSSL Generated Certificate
            X509v3 Subject Key Identifier: 
                38:77:F2:C9:1D:32:35:3C:26:B8:37:82:50:0D:86:C5:14:1D:51:5E
            X509v3 Authority Key Identifier: 
                keyid:9E:8B:82:0D:E5:97:34:40:F4:CB:7E:5A:0C:3B:CA:91:FD:5A:31:73

            X509v3 CRL Distribution Points: 

                Full Name:
                  URI:http://cn-ucsb-1.dataone.org/crl/DataONETest_CRL.pem

                Full Name:
                  URI:http://cn-unm-1.dataone.org/crl/DataONETest_CRL.pem

                Full Name:
                  URI:http://cn-orc-1.dataone.org/crl/DataONETest_CRL.pem

    Signature Algorithm: sha1WithRSAEncryption
        96:84:5f:37:81:1b:75:44:c6:c8:20:e3:44:ba:d7:f0:79:e5:
        d7:68:db:06:66:0f:60:96:2b:e9:05:ea:5d:54:da:dd:ad:51:
        0e:bd:00:ca:5e:77:af:ef:8f:19:00:5d:74:61:ca:7f:ab:27:
        8b:48:d1:2b:c6:fb:ac:7b:26:7c:04:b6:8c:95:2c:ca:b9:48:
        79:c1:d3:45:20:c6:63:c7:03:26:23:62:97:d1:b1:ab:d0:16:
        e4:a1:a9:09:00:3c:f7:34:04:b8:7e:65:fe:e8:89:04:14:2e:
        74:e4:2d:1f:d1:7f:fc:02:14:99:4b:aa:56:d6:53:35:1b:b9:
        d0:30:c5:b7:9d:bc:1a:0f:2c:49:73:9d:d4:e8:43:c7:f1:c1:
        11:79:b7:b6:29:d1:ff:20:8f:5c:60:01:26:0f:8f:c9:de:03:
        f0:16:ec:9c:08:36:c7:43:b2:26:04:10:4a:a3:77:a1:cd:0c:
        d4:ac:43:e8:af:25:25:7f:45:33:03:08:14:a1:34:91:56:90:
        5d:18:3e:6d:35:29:4c:70:7e:51:b6:22:ad:fb:f1:31:72:db:
        27:c1:5f:61:4d:96:d8:01:71:19:66:3a:4d:1a:6f:41:48:14:
        ea:2a:48:d9:22:0e:19:fb:85:bb:bd:f7:df:0a:07:4f:cf:af:
        1e:de:11:e7:df:c4:1b:f7:f6:44:08:a9:4f:ff:4c:38:15:75:
        9b:6c:aa:11:d9:01:25:a5:d5:a2:d4:f4:57:98:35:68:b5:a8:
        59:14:92:69:ee:12:90:77:54:e2:47:69:93:3c:cb:a7:15:80:
        1f:83:ad:10:c3:d0:49:50:7f:21:5d:5d:61:80:5a:cd:d0:e6:
        7e:02:45:fc:bf:9a:d9:a8:9a:62:d3:0a:c3:86:3c:ba:73:0c:
        2d:5a:15:2f:bb:6d:2e:eb:35:c8:14:fe:1a:1f:21:dd:49:f4:
        48:1f:aa:86:ce:23:ce:a8:ed:8b:51:a9:cb:c7:7f:39:a1:0f:
        03:d9:92:06:49:8a:dd:04:e7:eb:d1:a5:ae:62:03:2d:e6:d3:
        06:a0:e2:a1:a7:d1:94:39:07:e8:79:9f:d7:dd:c8:19:eb:4e:
        e5:cc:b2:db:76:b2:a0:8f:bb:5e:1f:d2:9e:3d:a9:a6:95:6a:
        23:3d:be:a7:bd:a9:c8:bd:58:db:71:8d:e7:ca:78:81:b7:72:
        b9:d8:13:d3:20:a6:d2:b2:3a:53:88:3d:20:97:28:4a:d2:51:
        16:6d:94:19:62:2d:98:8f:d3:47:38:5f:f2:73:6d:81:4e:53:
        66:69:91:1f:01:b2:f0:66:86:b7:cd:71:e2:21:2c:4c:b3:b4:
        c3:f1:9b:82:81:9e:e2:c4
-----BEGIN CERTIFICATE-----
MIIFUzCCAzugAwIBAgIJANoyY6KhLQAjMA0GCSqGSIb3DQEBBQUAMEgxEzARBgoJ
kiaJk/IsZAEZFgNvcmcxFzAVBgoJkiaJk/IsZAEZFgdkYXRhb25lMRgwFgYDVQQD
DA9EYXRhT05FIFRlc3QgQ0EwHhcNMTIwNDExMDAxMzQwWhcNMTUwNDExMDAxMzQw
WjBJMRMwEQYKCZImiZPyLGQBGRYDb3JnMRcwFQYKCZImiZPyLGQBGRYHZGF0YW9u
ZTEZMBcGA1UEAwwQdXJuOm5vZGU6RDFVU0dTNTCCASIwDQYJKoZIhvcNAQEBBQAD
ggEPADCCAQoCggEBALhZxqd0CtpaXwsOY5bfTjeiS/koAmyPubwORLvvUgA4i6TW
OpiL7F6YzoLbQD9O4LyidGo1DRI9dKJU1iRSxkvXKYWE5C3J4BpxYwDE2bZTT7BD
36eT9huDU49COLN5+J4aulBM3ZnWBJrOaySkJ2DLwo7GyVlC1G0JTiO1lm27PNKM
RQmloR7zO9e2FHMgiuHyX4A8yCmn0ThQQ9PA7OUxzSfVkvkLuotkIXG7ITfOhqbc
ZjzCKy8z9ivNPCD+iE4kDEA1/jdZ4FLDewmaB81cniTpB3APAo6ifevJBNYwJcAn
s5zS7Wy8w96CFisIxm0E1Jl92v9FjiHUHq8GefsCAwEAAaOCAT0wggE5MAkGA1Ud
EwQCMAAwLAYJYIZIAYb4QgENBB8WHU9wZW5TU0wgR2VuZXJhdGVkIENlcnRpZmlj
YXRlMB0GA1UdDgQWBBQ4d/LJHTI1PCa4N4JQDYbFFB1RXjAfBgNVHSMEGDAWgBSe
i4IN5Zc0QPTLfloMO8qR/VoxczCBvQYDVR0fBIG1MIGyMDqgOKA2hjRodHRwOi8v
Y24tdWNzYi0xLmRhdGFvbmUub3JnL2NybC9EYXRhT05FVGVzdF9DUkwucGVtMDmg
N6A1hjNodHRwOi8vY24tdW5tLTEuZGF0YW9uZS5vcmcvY3JsL0RhdGFPTkVUZXN0
X0NSTC5wZW0wOaA3oDWGM2h0dHA6Ly9jbi1vcmMtMS5kYXRhb25lLm9yZy9jcmwv
RGF0YU9ORVRlc3RfQ1JMLnBlbTANBgkqhkiG9w0BAQUFAAOCAgEAloRfN4EbdUTG
yCDjRLrX8Hnl12jbBmYPYJYr6QXqXVTa3a1RDr0Ayl53r++PGQBddGHKf6sni0jR
K8b7rHsmfAS2jJUsyrlIecHTRSDGY8cDJiNil9Gxq9AW5KGpCQA89zQEuH5l/uiJ
BBQudOQtH9F//AIUmUuqVtZTNRu50DDFt528Gg8sSXOd1OhDx/HBEXm3tinR/yCP
XGABJg+Pyd4D8BbsnAg2x0OyJgQQSqN3oc0M1KxD6K8lJX9FMwMIFKE0kVaQXRg+
bTUpTHB+UbYirfvxMXLbJ8FfYU2W2AFxGWY6TRpvQUgU6ipI2SIOGfuFu7333woH
T8+vHt4R59/EG/f2RAipT/9MOBV1m2yqEdkBJaXVotT0V5g1aLWoWRSSae4SkHdU
4kdpkzzLpxWAH4OtEMPQSVB/IV1dYYBazdDmfgJF/L+a2aiaYtMKw4Y8unMMLVoV
L7ttLus1yBT+Gh8h3Un0SB+qhs4jzqjti1Gpy8d/OaEPA9mSBkmK3QTn69GlrmID
LebTBqDioafRlDkH6Hmf193IGetO5cyy23ayoI+7Xh/Snj2pppVqIz2+p72pyL1Y
23GN58p4gbdyudgT0yCm0rI6U4g9IJcoStJRFm2UGWItmI/TRzhf8nNtgU5TZmmR
HwGy8GaGt81x4iEsTLO0w/GbgoGe4sQ=
-----END CERTIFICATE-----
