Certificate:
    Data:
        Version: 3 (0x2)
        Serial Number:
            4a:58:52:6b:79:38:dc:b1:ba:41:70:8d:2c:33:e7:97:43:69:93:54
        Signature Algorithm: sha256WithRSAEncryption
        Issuer: CN=DataONE Test 256 CA
        Validity
            Not Before: Nov  8 20:38:56 2023 GMT
            Not After : Oct 15 20:38:56 2123 GMT
        Subject: CN=DataONE Test 256 CA
        Subject Public Key Info:
            Public Key Algorithm: rsaEncryption
                Public-Key: (4096 bit)
                Modulus:
                    00:c0:46:fa:25:59:03:a0:71:31:22:c5:b0:87:ac:
                    e7:99:c8:01:e4:c8:08:4e:22:f9:9c:b6:ea:3e:64:
                    ca:37:f9:88:00:58:4d:ba:ed:64:89:76:27:5c:e8:
                    b4:4c:8f:4c:2c:05:0e:cc:26:28:36:ba:03:f4:0e:
                    2f:3e:d0:d5:a8:f3:28:0e:44:59:f9:ce:05:46:19:
                    a7:49:d3:a3:b8:a7:72:1b:42:12:d4:1b:73:3e:b0:
                    cc:82:0f:06:6b:b0:a2:fe:3c:48:d5:7a:42:d8:5a:
                    34:99:14:02:78:04:f7:e8:6f:da:0e:68:ba:94:53:
                    ef:3b:47:24:71:44:5d:c9:bd:eb:81:3d:ce:8e:7f:
                    e7:37:9a:fb:e5:f2:a5:e8:15:d6:05:58:3a:e1:72:
                    e1:6f:78:ad:4b:fc:8c:71:a8:a1:36:8e:3e:5d:a5:
                    b6:41:1d:f3:bf:bf:77:57:ed:37:7f:05:3b:eb:81:
                    a5:d9:1e:2d:81:8d:a9:35:77:88:30:df:72:ea:65:
                    0c:1a:f1:d7:e3:55:0e:09:ba:87:6d:64:c3:07:dd:
                    a8:23:75:44:5f:a7:62:76:62:e4:15:cc:b2:35:c0:
                    6e:2d:de:91:0b:5f:7c:a2:e4:a3:7a:ac:66:bb:95:
                    a1:af:67:b8:9b:f1:b2:dd:4c:56:a7:18:00:81:0f:
                    5e:2b:93:99:32:5b:83:53:55:80:df:59:14:57:2b:
                    fd:09:11:de:a1:4e:ae:14:58:02:75:ba:13:77:fe:
                    aa:db:bc:27:66:0a:45:3c:f2:39:49:2c:31:6d:1e:
                    58:d4:bf:a0:74:40:77:b7:09:a1:f0:ba:e0:ca:48:
                    8c:26:33:32:da:97:1f:f1:a9:0b:a6:38:e7:70:b9:
                    db:4c:d5:91:d6:e5:17:d4:00:af:07:0d:7a:95:ee:
                    b8:b3:8d:17:53:46:f1:85:c5:bd:66:e2:db:3c:6d:
                    7e:e7:d8:fb:35:ca:51:d2:14:fd:b9:ea:56:23:36:
                    0b:bb:d7:00:ed:a8:d3:25:ce:b1:7c:5a:e3:01:64:
                    5d:f9:4d:8f:a3:37:d2:ce:28:cb:78:35:77:2b:27:
                    c5:30:fa:b9:6f:5d:75:65:91:02:31:93:59:75:52:
                    48:34:8b:02:d4:2a:dc:4f:b6:70:1d:ef:51:5b:60:
                    d6:9b:51:27:6d:8d:d4:e9:24:fc:c5:f5:0d:0d:2e:
                    63:8a:c8:3f:59:a5:58:d6:2c:35:3d:90:7b:de:92:
                    8b:f0:6f:82:62:0d:2a:c8:5e:cd:5e:75:e5:36:1b:
                    2b:c2:24:21:68:72:57:dd:ad:08:cd:52:7b:b4:1a:
                    d9:4e:dd:68:40:ca:93:eb:ec:f7:30:f8:15:98:4d:
                    1c:df:4f
                Exponent: 65537 (0x10001)
        X509v3 extensions:
            X509v3 Subject Key Identifier: 
                05:AD:40:4A:22:3F:D8:95:1C:F4:35:15:7D:D7:5C:72:1C:21:87:26
            X509v3 Authority Key Identifier: 
                05:AD:40:4A:22:3F:D8:95:1C:F4:35:15:7D:D7:5C:72:1C:21:87:26
            X509v3 Basic Constraints: 
                CA:TRUE
            X509v3 CRL Distribution Points: 
                Full Name:
                  URI:http://releases.dataone.org/crl/DataONETest256CA_CRL.pem
                Full Name:
                  URI:http://cn-ucsb-1.dataone.org/crl/DataONETest256CA_CRL.pem
                Full Name:
                  URI:http://cn-orc-1.dataone.org/crl/DataONETest256CA_CRL.pem
    Signature Algorithm: sha256WithRSAEncryption
    Signature Value:
        b4:a1:5f:1e:2a:ed:5b:61:45:60:62:45:43:09:8d:a2:48:06:
        b9:b4:c0:a6:00:60:1c:34:c1:40:5c:76:12:a1:26:f5:d4:1f:
        f8:6e:69:e8:e3:e8:ae:6a:4f:99:3e:b5:24:c9:23:12:62:d5:
        9d:dc:4e:ab:14:78:54:4d:d4:21:5e:34:96:8e:52:f0:8b:ab:
        59:47:75:94:b9:b4:ef:d9:c1:99:aa:49:79:f9:61:20:c3:1e:
        ac:18:bd:9c:46:67:18:c3:df:20:d7:f1:e3:8f:54:a4:d3:e0:
        d5:93:2e:54:5d:a2:9d:17:04:76:b7:22:8e:10:8c:e9:f4:62:
        42:97:6b:5f:07:e3:5b:be:f0:62:1e:b2:04:b7:c9:af:da:77:
        68:59:ef:e2:45:84:31:87:9a:df:5f:ea:c6:95:aa:36:3a:fd:
        77:92:1d:a5:e1:87:22:3a:c1:7d:89:cd:6f:1a:4e:70:83:b6:
        8b:5a:31:1a:1e:b4:43:47:df:9c:90:ee:ee:19:85:8b:30:b5:
        d3:db:84:2a:6f:2a:48:8c:be:3d:ad:a0:08:6b:5b:9b:57:13:
        ca:f2:05:53:32:5d:cc:c0:36:12:56:57:91:ec:4a:b5:ee:83:
        b8:ad:85:75:a3:05:41:37:78:ac:ff:ce:56:52:39:4f:15:54:
        e3:e8:ac:8d:28:10:53:e2:bc:01:c2:b5:35:92:26:1c:fe:bb:
        77:f0:db:2f:74:cc:45:57:d4:dd:f5:5a:db:6b:e9:b7:13:96:
        9e:91:82:1a:2c:3f:d9:ac:c3:58:c7:30:ef:6d:b3:66:18:e6:
        7c:c4:11:fc:47:bd:3c:60:26:4f:cc:08:3b:88:0d:83:38:54:
        59:e8:bc:73:d3:ee:6c:af:28:f2:9d:b6:47:17:31:4d:87:00:
        39:62:46:8f:54:12:fe:1c:70:bc:73:4e:87:34:b9:82:d5:5e:
        d8:66:ae:f9:1d:10:b9:e9:31:11:b9:ff:83:07:bc:2a:47:96:
        b5:67:a2:70:20:35:ad:48:3d:6c:06:6f:b0:9b:65:95:a8:36:
        e9:6d:7c:8b:41:b9:8a:fd:65:fd:a8:e6:1d:f2:b1:32:04:08:
        e3:03:4f:a2:97:06:e2:16:76:0b:7a:54:67:be:9b:fa:a3:b6:
        82:2f:0a:dd:f6:31:7c:a1:31:02:a5:95:7f:9e:62:17:04:be:
        24:4c:b1:3a:86:60:70:23:94:f1:a6:01:ca:db:69:c6:df:04:
        6d:f3:d7:10:53:f4:f0:c5:a5:4c:ee:c8:4d:d2:ec:6c:7a:9e:
        6a:ad:58:2b:86:92:c9:95:e8:af:5a:fd:78:8b:6d:34:bc:e3:
        2d:ef:78:fe:24:c1:c2:c9
-----BEGIN CERTIFICATE-----
MIIF7zCCA9egAwIBAgIUSlhSa3k43LG6QXCNLDPnl0Npk1QwDQYJKoZIhvcNAQEL
BQAwHjEcMBoGA1UEAwwTRGF0YU9ORSBUZXN0IDI1NiBDQTAgFw0yMzExMDgyMDM4
NTZaGA8yMTIzMTAxNTIwMzg1NlowHjEcMBoGA1UEAwwTRGF0YU9ORSBUZXN0IDI1
NiBDQTCCAiIwDQYJKoZIhvcNAQEBBQADggIPADCCAgoCggIBAMBG+iVZA6BxMSLF
sIes55nIAeTICE4i+Zy26j5kyjf5iABYTbrtZIl2J1zotEyPTCwFDswmKDa6A/QO
Lz7Q1ajzKA5EWfnOBUYZp0nTo7inchtCEtQbcz6wzIIPBmuwov48SNV6QthaNJkU
AngE9+hv2g5oupRT7ztHJHFEXcm964E9zo5/5zea++XypegV1gVYOuFy4W94rUv8
jHGooTaOPl2ltkEd87+/d1ftN38FO+uBpdkeLYGNqTV3iDDfcuplDBrx1+NVDgm6
h21kwwfdqCN1RF+nYnZi5BXMsjXAbi3ekQtffKLko3qsZruVoa9nuJvxst1MVqcY
AIEPXiuTmTJbg1NVgN9ZFFcr/QkR3qFOrhRYAnW6E3f+qtu8J2YKRTzyOUksMW0e
WNS/oHRAd7cJofC64MpIjCYzMtqXH/GpC6Y453C520zVkdblF9QArwcNepXuuLON
F1NG8YXFvWbi2zxtfufY+zXKUdIU/bnqViM2C7vXAO2o0yXOsXxa4wFkXflNj6M3
0s4oy3g1dysnxTD6uW9ddWWRAjGTWXVSSDSLAtQq3E+2cB3vUVtg1ptRJ22N1Okk
/MX1DQ0uY4rIP1mlWNYsNT2Qe96Si/BvgmINKshezV515TYbK8IkIWhyV92tCM1S
e7Qa2U7daEDKk+vs9zD4FZhNHN9PAgMBAAGjggEhMIIBHTAdBgNVHQ4EFgQUBa1A
SiI/2JUc9DUVfddcchwhhyYwHwYDVR0jBBgwFoAUBa1ASiI/2JUc9DUVfddcchwh
hyYwDAYDVR0TBAUwAwEB/zCBzAYDVR0fBIHEMIHBMD6gPKA6hjhodHRwOi8vcmVs
ZWFzZXMuZGF0YW9uZS5vcmcvY3JsL0RhdGFPTkVUZXN0MjU2Q0FfQ1JMLnBlbTA/
oD2gO4Y5aHR0cDovL2NuLXVjc2ItMS5kYXRhb25lLm9yZy9jcmwvRGF0YU9ORVRl
c3QyNTZDQV9DUkwucGVtMD6gPKA6hjhodHRwOi8vY24tb3JjLTEuZGF0YW9uZS5v
cmcvY3JsL0RhdGFPTkVUZXN0MjU2Q0FfQ1JMLnBlbTANBgkqhkiG9w0BAQsFAAOC
AgEAtKFfHirtW2FFYGJFQwmNokgGubTApgBgHDTBQFx2EqEm9dQf+G5p6OPormpP
mT61JMkjEmLVndxOqxR4VE3UIV40lo5S8IurWUd1lLm079nBmapJeflhIMMerBi9
nEZnGMPfINfx449UpNPg1ZMuVF2inRcEdrcijhCM6fRiQpdrXwfjW77wYh6yBLfJ
r9p3aFnv4kWEMYea31/qxpWqNjr9d5IdpeGHIjrBfYnNbxpOcIO2i1oxGh60Q0ff
nJDu7hmFizC109uEKm8qSIy+Pa2gCGtbm1cTyvIFUzJdzMA2ElZXkexKte6DuK2F
daMFQTd4rP/OVlI5TxVU4+isjSgQU+K8AcK1NZImHP67d/DbL3TMRVfU3fVa22vp
txOWnpGCGiw/2azDWMcw722zZhjmfMQR/Ee9PGAmT8wIO4gNgzhUWei8c9PubK8o
8p22RxcxTYcAOWJGj1QS/hxwvHNOhzS5gtVe2Gau+R0QuekxEbn/gwe8KkeWtWei
cCA1rUg9bAZvsJtllag26W18i0G5iv1l/ajmHfKxMgQI4wNPopcG4hZ2C3pUZ76b
+qO2gi8K3fYxfKExAqWVf55iFwS+JEyxOoZgcCOU8aYByttpxt8EbfPXEFP08MWl
TO7ITdLsbHqeaq1YK4aSyZXor1r9eIttNLzjLe94/iTBwsk=
-----END CERTIFICATE-----
