Certificate:
    Data:
        Version: 3 (0x2)
        Serial Number:
            3f:60:46:5d:4d:7f:be:35:3d:d0:6c:fe:b2:3e:86:ca:a8:b3:5c:51
        Signature Algorithm: sha256WithRSAEncryption
        Issuer: DC=org, DC=dataone, CN=DataONE Prod Root CA
        Validity
            Not Before: Jan 23 00:39:44 2024 GMT
            Not After : Dec 30 00:39:44 2123 GMT
        Subject: DC=org, DC=dataone, CN=DataONE Prod Root CA
        Subject Public Key Info:
            Public Key Algorithm: rsaEncryption
                Public-Key: (4096 bit)
                Modulus:
                    00:c0:10:4f:e0:43:7b:1e:2a:17:b4:9a:55:eb:c6:
                    41:f0:36:61:44:f0:6a:76:be:7d:47:23:ab:92:61:
                    36:f8:e9:99:39:8f:59:04:60:30:77:17:ee:18:ac:
                    c0:69:69:d5:09:f0:05:52:61:8d:25:2f:a3:7e:43:
                    cc:e1:23:f6:b6:00:62:55:3d:90:82:38:46:68:5c:
                    74:f7:57:65:59:7b:bf:89:0a:9f:53:d4:89:65:11:
                    09:68:e0:1f:db:39:d8:fd:95:42:36:ca:39:f3:4a:
                    38:77:27:64:16:2d:b9:9b:b6:da:88:fc:93:ad:75:
                    74:81:29:14:e9:04:df:b5:1a:60:30:df:c3:85:f7:
                    28:e6:ee:31:1b:7f:3e:aa:14:23:13:18:a5:93:47:
                    f0:d5:77:36:2b:21:cd:3e:92:a2:b5:3c:64:56:ee:
                    6f:c9:47:84:94:6f:bf:74:7c:9c:4f:b0:3c:e2:84:
                    12:08:62:5e:77:b8:9f:f9:c2:59:63:27:fa:21:15:
                    5f:44:71:6f:7e:cf:ed:84:14:aa:9a:4e:e8:e1:85:
                    92:65:49:d9:c8:3f:8f:ad:16:5f:fc:4e:7e:65:4f:
                    b9:82:b3:63:08:4f:84:fc:cf:33:c1:7c:f1:00:44:
                    28:c1:25:ba:f4:2d:96:a9:f1:b6:48:dc:83:4c:40:
                    03:9c:5a:7e:55:01:2a:d8:85:f8:97:cd:4f:af:5b:
                    71:a0:b2:43:ac:18:60:0c:e9:98:06:de:3c:67:0f:
                    bf:d5:1d:38:ca:b6:3d:f9:11:73:1d:33:96:8e:9b:
                    04:d9:75:6b:05:a7:54:ae:36:14:92:ef:7a:d3:e2:
                    36:fa:e1:08:37:d1:8f:9d:5b:6c:f0:33:fa:e5:7c:
                    74:b5:ed:c4:6d:44:d7:45:97:39:04:c3:eb:33:95:
                    34:d5:37:1a:69:3c:6b:e8:f2:29:83:b0:80:0a:d8:
                    74:2e:50:ac:da:0a:24:e9:65:10:b4:a6:9e:ca:b0:
                    8a:70:9a:7f:85:fe:d1:e5:1e:1e:82:62:12:21:76:
                    13:f1:fd:2e:2e:96:ff:5a:95:93:da:44:5f:a7:85:
                    3b:c8:ac:2a:a2:a2:96:5f:36:fe:ce:f5:1e:bb:d8:
                    8b:f8:0e:bf:19:67:3e:df:20:b7:3d:57:07:4e:fc:
                    be:28:02:9b:8f:2a:54:9f:ce:c2:c1:1a:5a:b4:a2:
                    2c:20:e3:c4:ce:db:b6:71:1c:7e:b0:0f:29:4c:35:
                    96:cd:de:50:d9:60:66:fd:c7:51:fc:05:c4:4c:95:
                    cc:e4:92:8c:7e:1d:31:a2:79:e5:bd:eb:1d:07:2f:
                    4e:69:88:e4:44:09:e3:1b:bd:54:c7:c1:08:e6:4e:
                    9a:04:67
                Exponent: 65537 (0x10001)
        X509v3 extensions:
            X509v3 Subject Key Identifier: 
                AA:7F:64:CF:26:93:B7:B8:4B:B4:C3:A0:84:11:27:08:24:A7:D0:9D
            X509v3 Authority Key Identifier: 
                AA:7F:64:CF:26:93:B7:B8:4B:B4:C3:A0:84:11:27:08:24:A7:D0:9D
            X509v3 Basic Constraints: 
                CA:TRUE
            X509v3 CRL Distribution Points: 
                Full Name:
                  URI:http://cn-ucsb-1.dataone.org/crl/DataONEProdRootCA_CRL.pem
                Full Name:
                  URI:http://cn-orc-1.dataone.org/crl/DataONEProdRootCA_CRL.pem
    Signature Algorithm: sha256WithRSAEncryption
    Signature Value:
        25:0b:b5:13:31:7e:14:79:27:06:3a:89:1d:3b:cf:18:41:01:
        c7:b1:69:0d:b7:52:5b:39:d1:94:2e:ec:cf:01:40:1b:9b:0e:
        06:82:93:6f:d0:9f:dd:6a:a4:f8:cf:cf:98:7e:3c:12:fa:2a:
        51:be:1d:26:6e:72:a5:6f:c0:06:3b:eb:b9:df:0b:6f:c6:ca:
        7d:64:1b:6b:ac:e6:4a:f3:e7:fb:d0:96:d8:dd:80:8d:8d:39:
        c2:43:72:da:07:e6:f4:d3:3b:4f:99:ea:95:34:09:cd:94:21:
        cb:f9:96:6d:57:6f:37:78:e9:34:0b:18:8f:1a:31:4f:49:42:
        3e:2e:23:54:49:25:58:1f:99:94:b5:69:a9:69:04:7f:08:0f:
        85:bf:d7:4e:a1:e0:49:f8:4e:c9:0a:2a:43:e6:e0:09:f2:68:
        80:c5:95:a9:9e:0a:f8:e8:e9:1b:52:00:3e:c2:a2:d5:89:75:
        98:0e:f7:df:6c:b2:b7:34:d9:94:4b:16:bf:05:9f:82:96:6b:
        73:f4:60:ea:0e:b3:50:97:17:cb:2e:6c:ba:b9:7a:47:b1:86:
        a1:aa:6c:17:ff:f6:24:97:7a:86:bf:13:ac:03:18:b6:a7:4a:
        fc:5b:d1:ce:8b:af:1d:6d:f0:19:b1:7d:81:78:99:e3:c8:c6:
        95:1d:c8:97:a1:9f:48:b6:73:13:38:58:8b:fb:fa:ad:3f:a1:
        4f:3d:d3:be:a5:d2:b9:fd:13:37:d1:1b:ae:0b:4f:cd:83:fa:
        90:c5:ac:14:24:b2:35:5d:6f:9f:46:42:06:6d:dc:db:bf:6d:
        d4:2f:92:61:24:4f:67:71:d6:d3:fc:a1:60:76:b0:5e:17:93:
        70:6b:e6:c8:38:cd:52:c7:cf:a3:c6:ea:c3:68:0e:ad:26:c1:
        d9:f7:83:de:78:4c:c0:8a:f2:34:b3:dc:37:33:8f:f5:b1:61:
        e7:7e:22:74:b3:36:e8:f6:de:32:b8:70:56:13:31:7a:85:a9:
        e1:0e:e9:9c:94:7a:d9:c8:ce:40:c7:41:fd:b0:78:b4:0c:b0:
        51:86:93:ee:8c:2b:67:64:99:df:aa:8d:a0:78:44:ff:a3:79:
        ce:38:4b:f1:b7:3a:de:1b:ab:58:a2:14:c7:31:da:43:f6:2c:
        b4:b1:29:9d:32:91:51:12:0d:fe:6e:d1:58:cf:ca:bc:9e:02:
        68:ba:21:7b:d0:26:7b:65:98:3f:42:2b:0a:ac:4c:19:44:33:
        76:6c:a9:d3:84:9c:ac:52:5f:61:98:cc:8d:9a:aa:7a:cd:66:
        71:f8:fe:24:df:c4:01:4e:5f:f8:6f:7a:39:a3:e9:dc:8a:54:
        00:8f:0f:44:04:f5:9f:57
-----BEGIN CERTIFICATE-----
MIIGDTCCA/WgAwIBAgIUP2BGXU1/vjU90Gz+sj6GyqizXFEwDQYJKoZIhvcNAQEL
BQAwTTETMBEGCgmSJomT8ixkARkWA29yZzEXMBUGCgmSJomT8ixkARkWB2RhdGFv
bmUxHTAbBgNVBAMMFERhdGFPTkUgUHJvZCBSb290IENBMCAXDTI0MDEyMzAwMzk0
NFoYDzIxMjMxMjMwMDAzOTQ0WjBNMRMwEQYKCZImiZPyLGQBGRYDb3JnMRcwFQYK
CZImiZPyLGQBGRYHZGF0YW9uZTEdMBsGA1UEAwwURGF0YU9ORSBQcm9kIFJvb3Qg
Q0EwggIiMA0GCSqGSIb3DQEBAQUAA4ICDwAwggIKAoICAQDAEE/gQ3seKhe0mlXr
xkHwNmFE8Gp2vn1HI6uSYTb46Zk5j1kEYDB3F+4YrMBpadUJ8AVSYY0lL6N+Q8zh
I/a2AGJVPZCCOEZoXHT3V2VZe7+JCp9T1IllEQlo4B/bOdj9lUI2yjnzSjh3J2QW
LbmbttqI/JOtdXSBKRTpBN+1GmAw38OF9yjm7jEbfz6qFCMTGKWTR/DVdzYrIc0+
kqK1PGRW7m/JR4SUb790fJxPsDzihBIIYl53uJ/5wlljJ/ohFV9EcW9+z+2EFKqa
TujhhZJlSdnIP4+tFl/8Tn5lT7mCs2MIT4T8zzPBfPEARCjBJbr0LZap8bZI3INM
QAOcWn5VASrYhfiXzU+vW3GgskOsGGAM6ZgG3jxnD7/VHTjKtj35EXMdM5aOmwTZ
dWsFp1SuNhSS73rT4jb64Qg30Y+dW2zwM/rlfHS17cRtRNdFlzkEw+szlTTVNxpp
PGvo8imDsIAK2HQuUKzaCiTpZRC0pp7KsIpwmn+F/tHlHh6CYhIhdhPx/S4ulv9a
lZPaRF+nhTvIrCqiopZfNv7O9R672Iv4Dr8ZZz7fILc9VwdO/L4oApuPKlSfzsLB
Glq0oiwg48TO27ZxHH6wDylMNZbN3lDZYGb9x1H8BcRMlczkkox+HTGieeW96x0H
L05piORECeMbvVTHwQjmTpoEZwIDAQABo4HiMIHfMB0GA1UdDgQWBBSqf2TPJpO3
uEu0w6CEEScIJKfQnTAfBgNVHSMEGDAWgBSqf2TPJpO3uEu0w6CEEScIJKfQnTAM
BgNVHRMEBTADAQH/MIGOBgNVHR8EgYYwgYMwQKA+oDyGOmh0dHA6Ly9jbi11Y3Ni
LTEuZGF0YW9uZS5vcmcvY3JsL0RhdGFPTkVQcm9kUm9vdENBX0NSTC5wZW0wP6A9
oDuGOWh0dHA6Ly9jbi1vcmMtMS5kYXRhb25lLm9yZy9jcmwvRGF0YU9ORVByb2RS
b290Q0FfQ1JMLnBlbTANBgkqhkiG9w0BAQsFAAOCAgEAJQu1EzF+FHknBjqJHTvP
GEEBx7FpDbdSWznRlC7szwFAG5sOBoKTb9Cf3Wqk+M/PmH48EvoqUb4dJm5ypW/A
Bjvrud8Lb8bKfWQba6zmSvPn+9CW2N2AjY05wkNy2gfm9NM7T5nqlTQJzZQhy/mW
bVdvN3jpNAsYjxoxT0lCPi4jVEklWB+ZlLVpqWkEfwgPhb/XTqHgSfhOyQoqQ+bg
CfJogMWVqZ4K+OjpG1IAPsKi1Yl1mA7332yytzTZlEsWvwWfgpZrc/Rg6g6zUJcX
yy5surl6R7GGoapsF//2JJd6hr8TrAMYtqdK/FvRzouvHW3wGbF9gXiZ48jGlR3I
l6GfSLZzEzhYi/v6rT+hTz3TvqXSuf0TN9EbrgtPzYP6kMWsFCSyNV1vn0ZCBm3c
279t1C+SYSRPZ3HW0/yhYHawXheTcGvmyDjNUsfPo8bqw2gOrSbB2feD3nhMwIry
NLPcNzOP9bFh534idLM26PbeMrhwVhMxeoWp4Q7pnJR62cjOQMdB/bB4tAywUYaT
7owrZ2SZ36qNoHhE/6N5zjhL8bc63hurWKIUxzHaQ/YstLEpnTKRURIN/m7RWM/K
vJ4CaLohe9Ame2WYP0IrCqxMGUQzdmyp04ScrFJfYZjMjZqqes1mcfj+JN/EAU5f
+G96OaPp3IpUAI8PRAT1n1c=
-----END CERTIFICATE-----
