Certificate:
    Data:
        Version: 3 (0x2)
        Serial Number:
            3b:67:17:07:f2:51:59:b0:17:c9:76:30:cb:45:96:20:83:dd:28:60
        Signature Algorithm: sha256WithRSAEncryption
        Issuer: DC=org, DC=dataone, CN=DataONE Test Root CA
        Validity
            Not Before: Jan 22 21:00:48 2024 GMT
            Not After : Dec 29 21:00:48 2123 GMT
        Subject: DC=org, DC=dataone, CN=DataONE Test Root CA
        Subject Public Key Info:
            Public Key Algorithm: rsaEncryption
                Public-Key: (4096 bit)
                Modulus:
                    00:b5:e1:cd:6b:8f:1b:53:9a:50:2a:9f:0d:5c:81:
                    78:30:56:0b:13:de:02:43:54:c0:7d:7e:d6:80:61:
                    83:dc:85:9b:d5:22:56:6e:07:4d:fa:af:82:21:9a:
                    68:ad:8c:a0:fa:18:78:1a:be:0b:d9:5e:a7:20:4f:
                    ef:7c:ae:24:4c:59:8b:5f:93:28:03:4c:16:96:ed:
                    c7:6f:68:82:59:f0:3d:af:93:b8:e8:b2:71:d3:ab:
                    3c:72:ff:9f:9b:6f:ba:49:8e:9d:f0:4f:26:bf:aa:
                    ae:26:89:66:84:f4:24:16:40:5b:99:b0:83:8a:3b:
                    65:d0:58:e1:25:89:85:35:33:ac:19:6d:a6:59:a1:
                    a1:8d:4b:38:7c:13:72:da:93:c9:c0:6e:a5:00:ef:
                    39:d4:a8:95:a0:bf:ae:aa:54:64:c8:d9:35:bc:7b:
                    89:9c:b1:9c:52:7f:80:29:0c:28:91:e9:cc:12:80:
                    ba:cd:09:4d:08:37:a7:19:4e:14:3c:e4:87:84:2c:
                    47:06:a2:91:98:50:74:f1:69:7d:e0:39:f1:5c:d5:
                    2b:74:ee:34:a5:3e:1c:2f:4e:21:44:8a:45:df:a8:
                    f0:bf:a1:0a:6e:88:47:a2:77:26:cb:06:29:aa:42:
                    36:b3:da:21:5a:bd:05:e5:e9:66:ac:ba:c5:d7:a8:
                    e9:74:82:6f:1b:89:5c:3b:53:63:66:47:9e:f1:ed:
                    08:7d:32:d9:3d:b9:f1:ef:a4:e5:d4:d8:52:49:23:
                    9d:40:68:01:cf:ce:f9:c3:54:88:f1:d9:18:0e:20:
                    50:ae:18:f6:12:29:21:ed:4d:98:58:ac:66:94:7e:
                    24:61:c5:07:00:5b:fe:88:32:eb:56:9f:3a:b8:ca:
                    c5:ac:84:cb:65:e4:a2:b5:bd:d5:c5:e0:b3:1b:eb:
                    2f:e7:21:b7:3e:22:97:f3:d9:75:e4:2d:7f:2c:b7:
                    56:a7:6a:76:68:17:56:e7:4e:2f:ca:3a:f2:0a:6d:
                    7e:3f:49:b7:62:79:9a:77:cb:03:e8:15:4e:5e:02:
                    dc:5e:d6:89:58:72:99:c6:15:e5:a5:23:b2:36:8c:
                    6b:7c:70:93:12:22:ee:29:11:27:d4:67:a7:b8:91:
                    8e:64:6d:ab:6f:d1:9a:56:d3:fd:8a:a0:b2:9c:5b:
                    c3:df:6c:93:a8:0b:d8:92:37:9f:e2:19:8a:6c:0d:
                    48:e0:4c:42:8c:a5:7f:ac:09:bd:bf:19:5b:0a:ee:
                    11:76:8a:2d:9e:38:ae:8f:c0:51:b6:f6:ae:de:0f:
                    a2:e6:0e:77:d0:b6:3a:6d:3a:48:cf:8c:cb:d4:e5:
                    e7:13:bc:18:23:01:f8:a7:5b:8c:00:1a:90:0d:2f:
                    ae:e5:f9
                Exponent: 65537 (0x10001)
        X509v3 extensions:
            X509v3 Subject Key Identifier: 
                F5:0C:64:8D:04:54:C1:16:0A:E2:42:EC:EE:67:9E:73:92:66:40:8E
            X509v3 Authority Key Identifier: 
                F5:0C:64:8D:04:54:C1:16:0A:E2:42:EC:EE:67:9E:73:92:66:40:8E
            X509v3 Basic Constraints: 
                CA:TRUE
            X509v3 CRL Distribution Points: 
                Full Name:
                  URI:http://releases.dataone.org/crl/DataONETestRootCA_CRL.pem
                Full Name:
                  URI:http://cn-ucsb-1.dataone.org/crl/DataONETestRootCA_CRL.pem
                Full Name:
                  URI:http://cn-orc-1.dataone.org/crl/DataONETestRootCA_CRL.pem
    Signature Algorithm: sha256WithRSAEncryption
    Signature Value:
        2b:18:ac:e4:12:27:d3:94:20:4b:0b:27:2b:b4:cb:85:23:3d:
        d5:fa:cc:4e:c8:02:6e:52:76:c1:29:34:07:39:16:15:dd:ad:
        0f:7e:d5:d0:74:dd:a5:88:a0:d7:92:a6:28:d7:55:77:fa:9c:
        6e:0b:6a:8a:2d:5b:5b:37:20:30:78:eb:53:be:d3:b8:f8:c4:
        2e:f2:29:c7:68:bb:a1:3a:fc:4c:40:18:01:91:cc:23:71:e2:
        ab:ba:df:5d:7b:16:94:10:ce:88:db:94:d9:3b:99:92:5b:9e:
        2c:d6:ba:24:89:3e:de:c8:fd:b4:ff:cc:8e:c6:b7:3c:f0:23:
        1d:34:af:68:e3:5f:cf:d3:2e:83:80:c1:1c:c8:9e:49:46:fe:
        8f:bd:24:02:7b:4d:00:6c:ff:f0:1a:d3:6a:4c:56:7b:8f:c4:
        0c:de:ec:5d:b1:aa:98:7c:c8:b3:70:f8:17:0d:c6:a0:6c:20:
        5f:cb:93:93:1a:e1:5a:4e:1b:e3:3a:57:ef:2e:61:82:87:d3:
        9d:d2:bb:ec:78:7a:60:b9:c9:43:11:ed:ef:4b:31:a2:19:14:
        ad:68:d1:cd:ef:a1:05:96:d0:b3:22:44:5d:2b:7f:ca:67:34:
        cf:02:0d:6a:55:fd:53:80:c8:b4:11:21:a4:30:e2:cf:79:e7:
        59:51:a6:a1:de:32:8d:52:d3:30:ec:7c:b0:d0:61:f5:cb:2e:
        84:f6:b8:3f:41:80:b0:40:9f:1e:d6:60:9c:f4:4b:39:79:c4:
        fa:6a:f7:c3:9d:5e:d6:10:e3:9f:9f:3c:e6:91:80:21:87:96:
        1e:2a:ea:e7:12:5d:2c:c1:7a:fa:b9:89:fc:9f:b4:53:09:a8:
        ec:e3:6a:4e:1f:5b:ce:6f:93:c9:1a:f6:cf:10:e8:b1:80:93:
        2b:4d:ae:a6:42:48:59:66:45:a7:dd:99:1a:52:e8:2f:71:6f:
        69:c1:fd:ac:fb:0f:12:4f:8c:eb:d5:cf:32:fe:fc:65:12:c3:
        15:22:f2:25:0f:3c:c3:15:22:1b:ab:81:8d:86:9f:0b:ca:9e:
        63:61:0e:4c:24:15:61:04:d5:60:db:cc:37:bd:8f:78:25:d4:
        2f:c6:cd:24:a3:11:d2:04:13:57:64:e3:6e:7a:ac:ef:62:cc:
        9a:dd:00:1d:45:d1:c2:72:63:cf:f3:ef:e4:f3:02:84:41:f8:
        20:88:7f:00:a9:d2:1c:9a:0e:56:43:8b:ef:1b:71:c5:1b:59:
        d2:e4:11:36:32:40:e9:29:07:b1:02:55:22:83:ed:8f:3c:de:
        20:65:ca:77:6b:12:a3:78:5f:6a:6f:68:f6:18:18:d1:07:e3:
        99:54:2a:b0:83:1b:c5:1c
-----BEGIN CERTIFICATE-----
MIIGUDCCBDigAwIBAgIUO2cXB/JRWbAXyXYwy0WWIIPdKGAwDQYJKoZIhvcNAQEL
BQAwTTETMBEGCgmSJomT8ixkARkWA29yZzEXMBUGCgmSJomT8ixkARkWB2RhdGFv
bmUxHTAbBgNVBAMMFERhdGFPTkUgVGVzdCBSb290IENBMCAXDTI0MDEyMjIxMDA0
OFoYDzIxMjMxMjI5MjEwMDQ4WjBNMRMwEQYKCZImiZPyLGQBGRYDb3JnMRcwFQYK
CZImiZPyLGQBGRYHZGF0YW9uZTEdMBsGA1UEAwwURGF0YU9ORSBUZXN0IFJvb3Qg
Q0EwggIiMA0GCSqGSIb3DQEBAQUAA4ICDwAwggIKAoICAQC14c1rjxtTmlAqnw1c
gXgwVgsT3gJDVMB9ftaAYYPchZvVIlZuB036r4IhmmitjKD6GHgavgvZXqcgT+98
riRMWYtfkygDTBaW7cdvaIJZ8D2vk7josnHTqzxy/5+bb7pJjp3wTya/qq4miWaE
9CQWQFuZsIOKO2XQWOEliYU1M6wZbaZZoaGNSzh8E3Lak8nAbqUA7znUqJWgv66q
VGTI2TW8e4mcsZxSf4ApDCiR6cwSgLrNCU0IN6cZThQ85IeELEcGopGYUHTxaX3g
OfFc1St07jSlPhwvTiFEikXfqPC/oQpuiEeidybLBimqQjaz2iFavQXl6WasusXX
qOl0gm8biVw7U2NmR57x7Qh9Mtk9ufHvpOXU2FJJI51AaAHPzvnDVIjx2RgOIFCu
GPYSKSHtTZhYrGaUfiRhxQcAW/6IMutWnzq4ysWshMtl5KK1vdXF4LMb6y/nIbc+
Ipfz2XXkLX8st1ananZoF1bnTi/KOvIKbX4/SbdieZp3ywPoFU5eAtxe1olYcpnG
FeWlI7I2jGt8cJMSIu4pESfUZ6e4kY5kbatv0ZpW0/2KoLKcW8PfbJOoC9iSN5/i
GYpsDUjgTEKMpX+sCb2/GVsK7hF2ii2eOK6PwFG29q7eD6LmDnfQtjptOkjPjMvU
5ecTvBgjAfinW4wAGpANL67l+QIDAQABo4IBJDCCASAwHQYDVR0OBBYEFPUMZI0E
VMEWCuJC7O5nnnOSZkCOMB8GA1UdIwQYMBaAFPUMZI0EVMEWCuJC7O5nnnOSZkCO
MAwGA1UdEwQFMAMBAf8wgc8GA1UdHwSBxzCBxDA/oD2gO4Y5aHR0cDovL3JlbGVh
c2VzLmRhdGFvbmUub3JnL2NybC9EYXRhT05FVGVzdFJvb3RDQV9DUkwucGVtMECg
PqA8hjpodHRwOi8vY24tdWNzYi0xLmRhdGFvbmUub3JnL2NybC9EYXRhT05FVGVz
dFJvb3RDQV9DUkwucGVtMD+gPaA7hjlodHRwOi8vY24tb3JjLTEuZGF0YW9uZS5v
cmcvY3JsL0RhdGFPTkVUZXN0Um9vdENBX0NSTC5wZW0wDQYJKoZIhvcNAQELBQAD
ggIBACsYrOQSJ9OUIEsLJyu0y4UjPdX6zE7IAm5SdsEpNAc5FhXdrQ9+1dB03aWI
oNeSpijXVXf6nG4LaootW1s3IDB461O+07j4xC7yKcdou6E6/ExAGAGRzCNx4qu6
3117FpQQzojblNk7mZJbnizWuiSJPt7I/bT/zI7GtzzwIx00r2jjX8/TLoOAwRzI
nklG/o+9JAJ7TQBs//Aa02pMVnuPxAze7F2xqph8yLNw+BcNxqBsIF/Lk5Ma4VpO
G+M6V+8uYYKH053Su+x4emC5yUMR7e9LMaIZFK1o0c3voQWW0LMiRF0rf8pnNM8C
DWpV/VOAyLQRIaQw4s9551lRpqHeMo1S0zDsfLDQYfXLLoT2uD9BgLBAnx7WYJz0
Szl5xPpq98OdXtYQ45+fPOaRgCGHlh4q6ucSXSzBevq5ifyftFMJqOzjak4fW85v
k8ka9s8Q6LGAkytNrqZCSFlmRafdmRpS6C9xb2nB/az7DxJPjOvVzzL+/GUSwxUi
8iUPPMMVIhurgY2GnwvKnmNhDkwkFWEE1WDbzDe9j3gl1C/GzSSjEdIEE1dk4256
rO9izJrdAB1F0cJyY8/z7+TzAoRB+CCIfwCp0hyaDlZDi+8bccUbWdLkETYyQOkp
B7ECVSKD7Y883iBlyndrEqN4X2pvaPYYGNEH45lUKrCDG8Uc
-----END CERTIFICATE-----
