Certificate:
    Data:
        Version: 3 (0x2)
        Serial Number:
            da:32:63:a2:a1:2d:01:34
        Signature Algorithm: sha1WithRSAEncryption
        Issuer: DC=org, DC=dataone, CN=DataONE Test Intermediate CA
        Validity
            Not Before: Nov 19 20:51:30 2019 GMT
            Not After : Nov 18 20:51:30 2022 GMT
        Subject: CN=urn:node:mnTestARM
        Subject Public Key Info:
            Public Key Algorithm: rsaEncryption
                RSA Public-Key: (2048 bit)
                Modulus:
                    00:c3:05:97:bb:42:e0:38:22:e0:01:22:66:cc:bb:
                    6b:a8:d5:fb:05:7e:7a:1e:78:ab:de:a3:7d:8c:77:
                    6b:6e:15:65:67:42:a5:c0:73:19:24:98:a1:98:f4:
                    74:5e:a4:c4:7b:7a:59:2e:37:75:d9:f0:13:bc:d8:
                    96:2a:e3:cc:e4:00:f6:14:59:73:cd:9b:d2:d9:da:
                    db:cc:4f:3f:cc:02:66:27:b3:69:3d:13:d1:5a:83:
                    7f:8e:07:3d:30:b1:97:7c:c4:61:80:7f:91:c4:90:
                    e5:e3:c6:3f:80:ad:05:a2:1a:56:93:18:df:c2:ba:
                    3e:24:99:d7:88:4e:16:70:6f:6f:d5:1a:f9:f5:b4:
                    47:8a:bf:5a:f5:a0:8c:b2:62:00:d5:a4:d9:8d:1a:
                    4f:a1:7c:1c:35:f0:63:f7:6c:5d:de:e2:bf:ad:b2:
                    51:78:29:7d:50:c5:9e:d9:20:28:1f:a8:6b:2e:1c:
                    80:af:70:5d:fe:37:0e:5a:e2:51:0b:d3:3f:4e:1f:
                    f1:41:1d:de:c6:e7:54:60:bd:ea:e0:cb:0c:34:d5:
                    f9:d0:fd:f8:c8:cf:7e:bd:05:56:fa:61:ed:6d:72:
                    3e:f2:94:a4:8f:b7:49:4d:aa:9d:14:2a:64:42:d4:
                    4a:af:a7:d9:37:b7:1a:95:52:34:a4:9b:03:0c:ec:
                    3a:bb
                Exponent: 65537 (0x10001)
        X509v3 extensions:
            X509v3 Basic Constraints: 
                CA:FALSE
            Netscape Comment: 
                OpenSSL Generated Certificate
            X509v3 Subject Key Identifier: 
                D6:6F:D8:A5:58:3D:04:37:89:CB:9A:DD:96:AC:B7:A3:AC:D2:51:2A
            X509v3 Authority Key Identifier: 
                keyid:EF:2E:C1:27:6C:2A:8A:09:AB:6C:C3:45:7F:3B:F9:57:D5:16:A9:B3

            X509v3 CRL Distribution Points: 

                Full Name:
                  URI:http://releases.dataone.org/crl/DataONETestInt_CRL.pem

                Full Name:
                  URI:http://cn-ucsb-1.dataone.org/crl/DataONETestInt_CRL.pem

                Full Name:
                  URI:http://cn-unm-1.dataone.org/crl/DataONETest_CRL.pem

                Full Name:
                  URI:http://cn-orc-1.dataone.org/crl/DataONETestInt_CRL.pem

    Signature Algorithm: sha1WithRSAEncryption
         73:12:55:36:37:07:43:ae:2d:b7:68:4a:76:73:61:f8:7c:cf:
         e5:68:e6:a5:7e:a7:0c:6a:2a:f1:4a:7e:79:b6:3f:5e:9e:76:
         2e:42:8d:3c:84:e9:b6:16:3d:0c:6a:85:28:fb:4e:3a:25:15:
         4f:1b:7e:e4:12:8f:95:c9:b4:dd:ba:41:d1:83:a3:63:9b:4b:
         0b:2b:a5:40:f5:e8:99:de:57:97:7d:55:f1:6d:99:d4:4c:aa:
         22:89:3d:b9:55:61:72:db:cd:5a:98:88:17:42:4d:49:d5:c2:
         6f:73:51:8f:e8:a3:89:9f:b5:2f:5a:21:32:12:06:34:c7:68:
         48:a1:cd:f1:04:42:08:13:12:20:81:95:8d:a8:a8:35:57:7d:
         21:90:40:c6:26:17:06:f8:4e:b5:35:d3:9e:02:ec:fb:20:77:
         ad:5b:be:ec:99:e8:04:3c:ea:63:08:aa:79:a1:e6:c9:95:be:
         ca:06:88:40:05:e7:a3:2f:7d:bd:5f:f5:06:14:86:f3:83:0a:
         ee:38:c1:b8:de:7b:24:11:63:fb:b0:d2:9e:36:f0:ce:c9:c6:
         04:43:09:8f:5d:30:15:f0:6e:8e:6f:78:08:25:60:1e:87:e9:
         65:22:64:fe:68:fb:27:6f:51:18:34:80:7c:f1:a2:a1:d9:2d:
         3c:55:82:c4:15:44:af:fb:24:47:21:98:60:bf:2e:ac:1b:57:
         6c:8b:44:ca:7f:0a:d1:34:b3:a8:1c:3a:e2:39:51:a0:81:e5:
         23:83:d6:26:09:7e:81:d0:38:91:a5:b7:6d:cb:7a:f1:51:8f:
         25:89:73:bd:79:54:80:2c:0f:0a:be:b8:9d:ad:d7:59:bd:92:
         56:3b:23:7c:ec:bf:24:e5:e8:70:17:36:4a:cb:a4:cf:65:ea:
         1d:2c:ad:85:53:2c:ee:a4:d5:f3:44:29:aa:79:5c:63:70:19:
         3d:d5:c8:c2:8e:53:82:24:c6:2f:35:15:d8:f1:66:b7:1f:21:
         24:ff:97:8d:84:47:0d:da:00:15:0b:f0:4b:52:ea:68:5f:5d:
         a2:1f:4e:0d:dc:19:2e:5c:a9:ed:ab:e4:4c:ed:3d:bc:8f:0f:
         44:8b:82:5e:e0:c6:45:c8:07:76:e8:5f:23:6c:54:0e:bf:fd:
         26:05:b7:3d:1f:f7:9c:04:5e:33:d9:3e:bc:59:06:29:99:0b:
         10:2a:dc:56:af:0f:4f:5d:41:dd:98:09:83:4b:5c:d6:eb:e2:
         c8:61:56:69:68:42:72:52:1f:c9:1f:2f:6d:2b:d5:d8:f2:ca:
         7a:88:99:ee:13:9d:4a:ad:ab:54:38:c7:34:1b:9c:02:42:8f:
         21:b4:32:81:4b:8d:84:8c
-----BEGIN CERTIFICATE-----
MIIFeTCCA2GgAwIBAgIJANoyY6KhLQE0MA0GCSqGSIb3DQEBBQUAMFUxEzARBgoJ
kiaJk/IsZAEZFgNvcmcxFzAVBgoJkiaJk/IsZAEZFgdkYXRhb25lMSUwIwYDVQQD
DBxEYXRhT05FIFRlc3QgSW50ZXJtZWRpYXRlIENBMB4XDTE5MTExOTIwNTEzMFoX
DTIyMTExODIwNTEzMFowHTEbMBkGA1UEAwwSdXJuOm5vZGU6bW5UZXN0QVJNMIIB
IjANBgkqhkiG9w0BAQEFAAOCAQ8AMIIBCgKCAQEAwwWXu0LgOCLgASJmzLtrqNX7
BX56Hnir3qN9jHdrbhVlZ0KlwHMZJJihmPR0XqTEe3pZLjd12fATvNiWKuPM5AD2
FFlzzZvS2drbzE8/zAJmJ7NpPRPRWoN/jgc9MLGXfMRhgH+RxJDl48Y/gK0FohpW
kxjfwro+JJnXiE4WcG9v1Rr59bRHir9a9aCMsmIA1aTZjRpPoXwcNfBj92xd3uK/
rbJReCl9UMWe2SAoH6hrLhyAr3Bd/jcOWuJRC9M/Th/xQR3exudUYL3q4MsMNNX5
0P34yM9+vQVW+mHtbXI+8pSkj7dJTaqdFCpkQtRKr6fZN7calVI0pJsDDOw6uwID
AQABo4IBgjCCAX4wCQYDVR0TBAIwADAsBglghkgBhvhCAQ0EHxYdT3BlblNTTCBH
ZW5lcmF0ZWQgQ2VydGlmaWNhdGUwHQYDVR0OBBYEFNZv2KVYPQQ3icua3Zast6Os
0lEqMB8GA1UdIwQYMBaAFO8uwSdsKooJq2zDRX87+VfVFqmzMIIBAQYDVR0fBIH5
MIH2MDygOqA4hjZodHRwOi8vcmVsZWFzZXMuZGF0YW9uZS5vcmcvY3JsL0RhdGFP
TkVUZXN0SW50X0NSTC5wZW0wPaA7oDmGN2h0dHA6Ly9jbi11Y3NiLTEuZGF0YW9u
ZS5vcmcvY3JsL0RhdGFPTkVUZXN0SW50X0NSTC5wZW0wOaA3oDWGM2h0dHA6Ly9j
bi11bm0tMS5kYXRhb25lLm9yZy9jcmwvRGF0YU9ORVRlc3RfQ1JMLnBlbTA8oDqg
OIY2aHR0cDovL2NuLW9yYy0xLmRhdGFvbmUub3JnL2NybC9EYXRhT05FVGVzdElu
dF9DUkwucGVtMA0GCSqGSIb3DQEBBQUAA4ICAQBzElU2NwdDri23aEp2c2H4fM/l
aOalfqcMairxSn55tj9ennYuQo08hOm2Fj0MaoUo+046JRVPG37kEo+VybTdukHR
g6Njm0sLK6VA9eiZ3leXfVXxbZnUTKoiiT25VWFy281amIgXQk1J1cJvc1GP6KOJ
n7UvWiEyEgY0x2hIoc3xBEIIExIggZWNqKg1V30hkEDGJhcG+E61NdOeAuz7IHet
W77smegEPOpjCKp5oebJlb7KBohABeejL329X/UGFIbzgwruOMG43nskEWP7sNKe
NvDOycYEQwmPXTAV8G6Ob3gIJWAeh+llImT+aPsnb1EYNIB88aKh2S08VYLEFUSv
+yRHIZhgvy6sG1dsi0TKfwrRNLOoHDriOVGggeUjg9YmCX6B0DiRpbdty3rxUY8l
iXO9eVSALA8KvridrddZvZJWOyN87L8k5ehwFzZKy6TPZeodLK2FUyzupNXzRCmq
eVxjcBk91cjCjlOCJMYvNRXY8Wa3HyEk/5eNhEcN2gAVC/BLUupoX12iH04N3Bku
XKntq+RM7T28jw9Ei4Je4MZFyAd26F8jbFQOv/0mBbc9H/ecBF4z2T68WQYpmQsQ
KtxWrw9PXUHdmAmDS1zW6+LIYVZpaEJyUh/JHy9tK9XY8sp6iJnuE51KratUOMc0
G5wCQo8htDKBS42EjA==
-----END CERTIFICATE-----
