Certificate:
    Data:
        Version: 3 (0x2)
        Serial Number:
            da:32:63:a2:a1:2d:01:36
        Signature Algorithm: sha1WithRSAEncryption
        Issuer: DC=org, DC=dataone, CN=DataONE Test Intermediate CA
        Validity
            Not Before: Nov 19 21:03:41 2019 GMT
            Not After : Nov 18 21:03:41 2022 GMT
        Subject: CN=urn:node:mnTestARM
        Subject Public Key Info:
            Public Key Algorithm: rsaEncryption
                RSA Public-Key: (2048 bit)
                Modulus:
                    00:c3:05:97:bb:42:e0:38:22:e0:01:22:66:cc:bb:
                    6b:a8:d5:fb:05:7e:7a:1e:78:ab:de:a3:7d:8c:77:
                    6b:6e:15:65:67:42:a5:c0:73:19:24:98:a1:98:f4:
                    74:5e:a4:c4:7b:7a:59:2e:37:75:d9:f0:13:bc:d8:
                    96:2a:e3:cc:e4:00:f6:14:59:73:cd:9b:d2:d9:da:
                    db:cc:4f:3f:cc:02:66:27:b3:69:3d:13:d1:5a:83:
                    7f:8e:07:3d:30:b1:97:7c:c4:61:80:7f:91:c4:90:
                    e5:e3:c6:3f:80:ad:05:a2:1a:56:93:18:df:c2:ba:
                    3e:24:99:d7:88:4e:16:70:6f:6f:d5:1a:f9:f5:b4:
                    47:8a:bf:5a:f5:a0:8c:b2:62:00:d5:a4:d9:8d:1a:
                    4f:a1:7c:1c:35:f0:63:f7:6c:5d:de:e2:bf:ad:b2:
                    51:78:29:7d:50:c5:9e:d9:20:28:1f:a8:6b:2e:1c:
                    80:af:70:5d:fe:37:0e:5a:e2:51:0b:d3:3f:4e:1f:
                    f1:41:1d:de:c6:e7:54:60:bd:ea:e0:cb:0c:34:d5:
                    f9:d0:fd:f8:c8:cf:7e:bd:05:56:fa:61:ed:6d:72:
                    3e:f2:94:a4:8f:b7:49:4d:aa:9d:14:2a:64:42:d4:
                    4a:af:a7:d9:37:b7:1a:95:52:34:a4:9b:03:0c:ec:
                    3a:bb
                Exponent: 65537 (0x10001)
        X509v3 extensions:
            X509v3 Basic Constraints: 
                CA:FALSE
            Netscape Comment: 
                OpenSSL Generated Certificate
            X509v3 Subject Key Identifier: 
                D6:6F:D8:A5:58:3D:04:37:89:CB:9A:DD:96:AC:B7:A3:AC:D2:51:2A
            X509v3 Authority Key Identifier: 
                keyid:EF:2E:C1:27:6C:2A:8A:09:AB:6C:C3:45:7F:3B:F9:57:D5:16:A9:B3

            X509v3 CRL Distribution Points: 

                Full Name:
                  URI:http://releases.dataone.org/crl/DataONETestInt_CRL.pem

                Full Name:
                  URI:http://cn-ucsb-1.dataone.org/crl/DataONETestInt_CRL.pem

                Full Name:
                  URI:http://cn-unm-1.dataone.org/crl/DataONETest_CRL.pem

                Full Name:
                  URI:http://cn-orc-1.dataone.org/crl/DataONETestInt_CRL.pem

    Signature Algorithm: sha1WithRSAEncryption
         95:76:30:6b:c6:35:ec:9a:16:b0:e8:26:bc:f4:af:7c:44:ee:
         26:21:c4:a4:a0:bd:a0:b4:2d:1e:a9:f0:26:b2:06:bc:b9:f6:
         b8:ed:9b:a7:2e:35:81:fc:6d:e8:1f:45:3c:f7:2a:80:01:02:
         5c:fc:bd:ef:3f:5e:ea:d9:7c:74:09:29:4e:7b:c3:02:e8:35:
         d8:83:62:17:93:0e:35:f9:28:36:14:03:59:af:8a:7f:6b:96:
         c9:f5:53:b4:73:66:c5:2e:8e:5f:62:49:8d:da:fa:5b:ab:0b:
         57:54:e7:df:d3:13:ac:26:66:6a:0e:8d:9b:be:5e:0b:eb:99:
         53:8c:bf:8e:2a:26:0f:0a:57:20:4c:b9:06:be:25:14:e1:e7:
         0f:36:ff:c4:07:3a:6e:7e:a3:11:a3:29:c8:6b:7c:60:24:55:
         cf:ce:dd:ce:d7:e0:49:23:0d:2f:77:f7:a2:93:b3:43:25:ba:
         96:aa:16:9f:d8:38:a0:84:b6:ff:07:c3:6b:d9:8a:ee:f5:06:
         a0:56:d9:0b:df:11:4b:c0:95:4d:bf:a0:07:d1:27:87:11:0a:
         c6:f2:63:27:dd:46:dc:61:15:3c:3e:f3:5c:00:2d:b2:eb:33:
         87:ed:8e:c1:c5:3c:a2:5f:c5:9c:be:db:45:bb:cf:8a:22:f9:
         51:3a:38:d9:d8:6b:bd:de:83:f7:27:78:0a:ef:4b:0a:7d:6b:
         00:37:ba:37:6a:61:d0:7d:d3:f6:42:05:3d:64:41:26:d7:e0:
         fa:73:4e:39:6c:fc:08:15:87:ac:02:bf:7a:4a:e5:6c:09:2c:
         fa:69:9a:82:28:ba:c3:56:49:49:5c:9d:15:9f:15:6c:11:27:
         02:b5:54:b8:82:93:b3:39:24:b9:31:22:b7:d8:2c:4c:18:5a:
         9b:e1:f5:ac:16:59:2c:60:b9:51:b7:23:9a:5a:c0:67:c3:30:
         ae:e4:91:bb:cc:d8:44:ae:b7:2d:fd:c5:02:be:92:78:6b:76:
         7e:5a:78:56:c4:46:8f:7d:2c:aa:1c:0a:d1:9c:d3:37:01:c9:
         46:f2:bf:2e:84:52:99:e8:f9:57:1e:12:35:8a:f7:32:94:78:
         a7:14:bb:3b:40:f7:a5:5b:33:57:10:5b:c0:84:fc:c4:2f:4c:
         ba:a3:e7:4e:c6:41:35:df:91:6b:4d:9a:d9:9d:05:b4:cf:36:
         64:f8:d6:9e:fe:9a:6f:8d:88:8b:a3:65:ce:7f:ae:d5:3e:e7:
         54:82:a1:09:dd:8d:05:ef:6b:8f:4f:61:79:58:e4:d5:23:e2:
         16:31:5a:61:bc:bd:22:03:af:bb:9f:ab:01:8a:14:0f:18:23:
         35:fb:30:51:e7:58:8b:62
-----BEGIN CERTIFICATE-----
MIIFeTCCA2GgAwIBAgIJANoyY6KhLQE2MA0GCSqGSIb3DQEBBQUAMFUxEzARBgoJ
kiaJk/IsZAEZFgNvcmcxFzAVBgoJkiaJk/IsZAEZFgdkYXRhb25lMSUwIwYDVQQD
DBxEYXRhT05FIFRlc3QgSW50ZXJtZWRpYXRlIENBMB4XDTE5MTExOTIxMDM0MVoX
DTIyMTExODIxMDM0MVowHTEbMBkGA1UEAwwSdXJuOm5vZGU6bW5UZXN0QVJNMIIB
IjANBgkqhkiG9w0BAQEFAAOCAQ8AMIIBCgKCAQEAwwWXu0LgOCLgASJmzLtrqNX7
BX56Hnir3qN9jHdrbhVlZ0KlwHMZJJihmPR0XqTEe3pZLjd12fATvNiWKuPM5AD2
FFlzzZvS2drbzE8/zAJmJ7NpPRPRWoN/jgc9MLGXfMRhgH+RxJDl48Y/gK0FohpW
kxjfwro+JJnXiE4WcG9v1Rr59bRHir9a9aCMsmIA1aTZjRpPoXwcNfBj92xd3uK/
rbJReCl9UMWe2SAoH6hrLhyAr3Bd/jcOWuJRC9M/Th/xQR3exudUYL3q4MsMNNX5
0P34yM9+vQVW+mHtbXI+8pSkj7dJTaqdFCpkQtRKr6fZN7calVI0pJsDDOw6uwID
AQABo4IBgjCCAX4wCQYDVR0TBAIwADAsBglghkgBhvhCAQ0EHxYdT3BlblNTTCBH
ZW5lcmF0ZWQgQ2VydGlmaWNhdGUwHQYDVR0OBBYEFNZv2KVYPQQ3icua3Zast6Os
0lEqMB8GA1UdIwQYMBaAFO8uwSdsKooJq2zDRX87+VfVFqmzMIIBAQYDVR0fBIH5
MIH2MDygOqA4hjZodHRwOi8vcmVsZWFzZXMuZGF0YW9uZS5vcmcvY3JsL0RhdGFP
TkVUZXN0SW50X0NSTC5wZW0wPaA7oDmGN2h0dHA6Ly9jbi11Y3NiLTEuZGF0YW9u
ZS5vcmcvY3JsL0RhdGFPTkVUZXN0SW50X0NSTC5wZW0wOaA3oDWGM2h0dHA6Ly9j
bi11bm0tMS5kYXRhb25lLm9yZy9jcmwvRGF0YU9ORVRlc3RfQ1JMLnBlbTA8oDqg
OIY2aHR0cDovL2NuLW9yYy0xLmRhdGFvbmUub3JnL2NybC9EYXRhT05FVGVzdElu
dF9DUkwucGVtMA0GCSqGSIb3DQEBBQUAA4ICAQCVdjBrxjXsmhaw6Ca89K98RO4m
IcSkoL2gtC0eqfAmsga8ufa47ZunLjWB/G3oH0U89yqAAQJc/L3vP17q2Xx0CSlO
e8MC6DXYg2IXkw41+Sg2FANZr4p/a5bJ9VO0c2bFLo5fYkmN2vpbqwtXVOff0xOs
JmZqDo2bvl4L65lTjL+OKiYPClcgTLkGviUU4ecPNv/EBzpufqMRoynIa3xgJFXP
zt3O1+BJIw0vd/eik7NDJbqWqhaf2DighLb/B8Nr2Yru9QagVtkL3xFLwJVNv6AH
0SeHEQrG8mMn3UbcYRU8PvNcAC2y6zOH7Y7BxTyiX8WcvttFu8+KIvlROjjZ2Gu9
3oP3J3gK70sKfWsAN7o3amHQfdP2QgU9ZEEm1+D6c045bPwIFYesAr96SuVsCSz6
aZqCKLrDVklJXJ0VnxVsEScCtVS4gpOzOSS5MSK32CxMGFqb4fWsFlksYLlRtyOa
WsBnwzCu5JG7zNhErrct/cUCvpJ4a3Z+WnhWxEaPfSyqHArRnNM3AclG8r8uhFKZ
6PlXHhI1ivcylHinFLs7QPelWzNXEFvAhPzEL0y6o+dOxkE135FrTZrZnQW0zzZk
+Nae/ppvjYiLo2XOf67VPudUgqEJ3Y0F72uPT2F5WOTVI+IWMVphvL0iA6+7n6sB
ihQPGCM1+zBR51iLYg==
-----END CERTIFICATE-----
