Certificate:
    Data:
        Version: 3 (0x2)
        Serial Number:
            da:32:63:a2:a1:2d:01:35
        Signature Algorithm: sha1WithRSAEncryption
        Issuer: DC=org, DC=dataone, CN=DataONE Test Intermediate CA
        Validity
            Not Before: Nov 19 20:56:56 2019 GMT
            Not After : Nov 18 20:56:56 2022 GMT
        Subject: CN=urn:node:mnTestARM
        Subject Public Key Info:
            Public Key Algorithm: rsaEncryption
                RSA Public-Key: (2048 bit)
                Modulus:
                    00:c3:05:97:bb:42:e0:38:22:e0:01:22:66:cc:bb:
                    6b:a8:d5:fb:05:7e:7a:1e:78:ab:de:a3:7d:8c:77:
                    6b:6e:15:65:67:42:a5:c0:73:19:24:98:a1:98:f4:
                    74:5e:a4:c4:7b:7a:59:2e:37:75:d9:f0:13:bc:d8:
                    96:2a:e3:cc:e4:00:f6:14:59:73:cd:9b:d2:d9:da:
                    db:cc:4f:3f:cc:02:66:27:b3:69:3d:13:d1:5a:83:
                    7f:8e:07:3d:30:b1:97:7c:c4:61:80:7f:91:c4:90:
                    e5:e3:c6:3f:80:ad:05:a2:1a:56:93:18:df:c2:ba:
                    3e:24:99:d7:88:4e:16:70:6f:6f:d5:1a:f9:f5:b4:
                    47:8a:bf:5a:f5:a0:8c:b2:62:00:d5:a4:d9:8d:1a:
                    4f:a1:7c:1c:35:f0:63:f7:6c:5d:de:e2:bf:ad:b2:
                    51:78:29:7d:50:c5:9e:d9:20:28:1f:a8:6b:2e:1c:
                    80:af:70:5d:fe:37:0e:5a:e2:51:0b:d3:3f:4e:1f:
                    f1:41:1d:de:c6:e7:54:60:bd:ea:e0:cb:0c:34:d5:
                    f9:d0:fd:f8:c8:cf:7e:bd:05:56:fa:61:ed:6d:72:
                    3e:f2:94:a4:8f:b7:49:4d:aa:9d:14:2a:64:42:d4:
                    4a:af:a7:d9:37:b7:1a:95:52:34:a4:9b:03:0c:ec:
                    3a:bb
                Exponent: 65537 (0x10001)
        X509v3 extensions:
            X509v3 Basic Constraints: 
                CA:FALSE
            Netscape Comment: 
                OpenSSL Generated Certificate
            X509v3 Subject Key Identifier: 
                D6:6F:D8:A5:58:3D:04:37:89:CB:9A:DD:96:AC:B7:A3:AC:D2:51:2A
            X509v3 Authority Key Identifier: 
                keyid:EF:2E:C1:27:6C:2A:8A:09:AB:6C:C3:45:7F:3B:F9:57:D5:16:A9:B3

            X509v3 CRL Distribution Points: 

                Full Name:
                  URI:http://releases.dataone.org/crl/DataONETestInt_CRL.pem

                Full Name:
                  URI:http://cn-ucsb-1.dataone.org/crl/DataONETestInt_CRL.pem

                Full Name:
                  URI:http://cn-unm-1.dataone.org/crl/DataONETest_CRL.pem

                Full Name:
                  URI:http://cn-orc-1.dataone.org/crl/DataONETestInt_CRL.pem

    Signature Algorithm: sha1WithRSAEncryption
         a4:f1:b4:c4:a3:a3:99:81:3c:ac:33:de:fd:71:5e:70:bf:4e:
         f9:ef:f1:1e:77:50:5d:b1:17:6c:77:cf:47:1b:26:3d:6c:21:
         5d:93:62:4a:be:f5:40:43:32:37:c1:48:22:96:bc:98:25:64:
         8d:9d:0b:3a:be:fc:32:fc:db:48:33:47:cc:c1:dd:48:04:f8:
         4b:aa:c3:75:3b:a8:90:ec:9e:d6:46:4d:01:41:c0:50:1c:c3:
         68:04:35:c7:36:ee:c5:6d:2b:2a:18:74:19:24:da:a3:bc:31:
         e9:1e:a1:66:91:12:5a:07:ae:47:22:33:3e:67:2f:98:4f:b1:
         f4:7c:2d:70:25:fc:60:ad:8b:dc:82:f7:13:da:30:a9:66:49:
         9d:ac:81:e4:18:61:06:5f:d4:c2:d0:70:cd:e7:93:c0:2a:30:
         ea:cf:e6:56:ed:a5:7c:3f:63:42:24:8c:c4:9c:0b:23:ce:3a:
         08:0c:c6:be:eb:d8:e1:bf:19:f5:70:66:5b:cb:9c:53:4b:1a:
         61:37:7b:6f:26:47:c9:0e:e8:af:a9:23:d4:5b:39:d0:f2:aa:
         d6:e7:3a:9b:11:ad:8a:06:51:8d:cb:3d:99:d5:29:36:c7:d6:
         a2:80:18:dc:36:bd:26:02:0d:f3:c9:84:7e:2c:15:83:11:a1:
         03:11:63:47:9a:53:88:d1:40:b9:9e:1e:d8:40:be:16:ec:1d:
         1d:b4:d0:68:4e:5f:ee:32:c5:b7:ee:e3:1c:61:f2:3b:e7:95:
         28:59:e0:b2:fa:1d:5d:67:23:0e:fd:cf:13:d8:f0:e5:d3:b9:
         46:1f:18:31:c3:4d:a2:9d:c3:fa:a1:da:12:62:6c:63:12:a0:
         29:02:06:bc:64:e4:a7:56:f9:65:64:f9:1e:ec:ef:10:fb:da:
         fc:0e:5d:a6:68:fb:1f:9b:27:78:49:ec:a4:49:5b:07:3a:19:
         ee:f2:24:c4:9f:e4:dd:8d:ba:99:90:8a:28:58:54:c7:8f:80:
         39:39:48:d6:82:ec:eb:9f:55:29:90:ea:c4:b5:58:39:2b:5c:
         a5:23:ae:32:39:b5:ca:be:42:34:10:27:e5:2f:59:65:70:c0:
         f2:bf:4c:15:21:b7:e0:39:98:0e:cf:0d:6b:3f:d4:cd:b1:21:
         3c:16:99:c3:6c:c7:f7:f1:75:5a:6e:c5:78:6e:51:78:2c:ec:
         9e:96:e0:90:89:cd:1e:4f:c4:56:38:9b:e4:ef:99:9f:4a:83:
         a2:97:04:51:d5:e3:2b:d8:e1:83:79:00:b5:69:12:e6:3a:d2:
         0b:b6:a7:c7:4d:87:3b:e3:c2:f5:2a:b8:4c:a1:b9:25:66:00:
         1c:c0:ff:e8:c0:eb:32:4b
-----BEGIN CERTIFICATE-----
MIIFeTCCA2GgAwIBAgIJANoyY6KhLQE1MA0GCSqGSIb3DQEBBQUAMFUxEzARBgoJ
kiaJk/IsZAEZFgNvcmcxFzAVBgoJkiaJk/IsZAEZFgdkYXRhb25lMSUwIwYDVQQD
DBxEYXRhT05FIFRlc3QgSW50ZXJtZWRpYXRlIENBMB4XDTE5MTExOTIwNTY1NloX
DTIyMTExODIwNTY1NlowHTEbMBkGA1UEAwwSdXJuOm5vZGU6bW5UZXN0QVJNMIIB
IjANBgkqhkiG9w0BAQEFAAOCAQ8AMIIBCgKCAQEAwwWXu0LgOCLgASJmzLtrqNX7
BX56Hnir3qN9jHdrbhVlZ0KlwHMZJJihmPR0XqTEe3pZLjd12fATvNiWKuPM5AD2
FFlzzZvS2drbzE8/zAJmJ7NpPRPRWoN/jgc9MLGXfMRhgH+RxJDl48Y/gK0FohpW
kxjfwro+JJnXiE4WcG9v1Rr59bRHir9a9aCMsmIA1aTZjRpPoXwcNfBj92xd3uK/
rbJReCl9UMWe2SAoH6hrLhyAr3Bd/jcOWuJRC9M/Th/xQR3exudUYL3q4MsMNNX5
0P34yM9+vQVW+mHtbXI+8pSkj7dJTaqdFCpkQtRKr6fZN7calVI0pJsDDOw6uwID
AQABo4IBgjCCAX4wCQYDVR0TBAIwADAsBglghkgBhvhCAQ0EHxYdT3BlblNTTCBH
ZW5lcmF0ZWQgQ2VydGlmaWNhdGUwHQYDVR0OBBYEFNZv2KVYPQQ3icua3Zast6Os
0lEqMB8GA1UdIwQYMBaAFO8uwSdsKooJq2zDRX87+VfVFqmzMIIBAQYDVR0fBIH5
MIH2MDygOqA4hjZodHRwOi8vcmVsZWFzZXMuZGF0YW9uZS5vcmcvY3JsL0RhdGFP
TkVUZXN0SW50X0NSTC5wZW0wPaA7oDmGN2h0dHA6Ly9jbi11Y3NiLTEuZGF0YW9u
ZS5vcmcvY3JsL0RhdGFPTkVUZXN0SW50X0NSTC5wZW0wOaA3oDWGM2h0dHA6Ly9j
bi11bm0tMS5kYXRhb25lLm9yZy9jcmwvRGF0YU9ORVRlc3RfQ1JMLnBlbTA8oDqg
OIY2aHR0cDovL2NuLW9yYy0xLmRhdGFvbmUub3JnL2NybC9EYXRhT05FVGVzdElu
dF9DUkwucGVtMA0GCSqGSIb3DQEBBQUAA4ICAQCk8bTEo6OZgTysM979cV5wv075
7/Eed1BdsRdsd89HGyY9bCFdk2JKvvVAQzI3wUgilryYJWSNnQs6vvwy/NtIM0fM
wd1IBPhLqsN1O6iQ7J7WRk0BQcBQHMNoBDXHNu7FbSsqGHQZJNqjvDHpHqFmkRJa
B65HIjM+Zy+YT7H0fC1wJfxgrYvcgvcT2jCpZkmdrIHkGGEGX9TC0HDN55PAKjDq
z+ZW7aV8P2NCJIzEnAsjzjoIDMa+69jhvxn1cGZby5xTSxphN3tvJkfJDuivqSPU
WznQ8qrW5zqbEa2KBlGNyz2Z1Sk2x9aigBjcNr0mAg3zyYR+LBWDEaEDEWNHmlOI
0UC5nh7YQL4W7B0dtNBoTl/uMsW37uMcYfI755UoWeCy+h1dZyMO/c8T2PDl07lG
Hxgxw02incP6odoSYmxjEqApAga8ZOSnVvllZPke7O8Q+9r8Dl2maPsfmyd4Seyk
SVsHOhnu8iTEn+TdjbqZkIooWFTHj4A5OUjWguzrn1UpkOrEtVg5K1ylI64yObXK
vkI0ECflL1llcMDyv0wVIbfgOZgOzw1rP9TNsSE8FpnDbMf38XVabsV4blF4LOye
luCQic0eT8RWOJvk75mfSoOilwRR1eMr2OGDeQC1aRLmOtILtqfHTYc748L1KrhM
obklZgAcwP/owOsySw==
-----END CERTIFICATE-----
