Certificate:
    Data:
        Version: 3 (0x2)
        Serial Number:
            da:32:63:a2:a1:2d:00:17
        Signature Algorithm: sha1WithRSAEncryption
        Issuer: dc=org/dc=dataone, CN=DataONE Test CA
        Validity
            Not Before: Mar 10 02:12:03 2012 GMT
            Not After : Mar 10 02:12:03 2015 GMT
        Subject: dc=org/dc=dataone, CN=cn-dev-2.dataone.org
        Subject Public Key Info:
            Public Key Algorithm: rsaEncryption
                Public-Key: (2048 bit)
                Modulus:
                    00:d9:7d:8d:e3:81:f5:10:48:f9:70:6a:86:e6:b4:
                    21:e5:39:e2:9d:0e:90:d8:5e:3f:bd:2c:fb:c9:06:
                    29:5d:4a:2d:7b:79:77:e7:fc:98:bb:cd:ec:ea:3d:
                    75:be:d3:b7:5d:6f:f0:02:59:a8:ac:a7:8b:19:4e:
                    d2:51:58:e2:4f:e2:60:9d:ed:e9:f8:3d:d7:41:03:
                    96:69:4e:32:18:3b:cc:00:ea:a1:21:25:28:26:89:
                    92:55:51:75:ee:94:37:8f:03:b9:f6:f1:cd:b6:8c:
                    65:e3:df:a1:a1:73:10:c6:55:43:28:31:65:de:c8:
                    96:57:ea:eb:2a:30:36:8e:34:d2:99:df:44:35:e5:
                    3e:36:27:1d:a5:dd:1f:38:7c:bb:97:fe:93:8a:20:
                    7c:dc:8b:4d:a5:8f:7c:3d:87:eb:47:20:5e:ed:c4:
                    6d:f8:bd:04:6f:0b:9c:e4:58:64:66:94:56:a2:5e:
                    ef:95:4d:25:e3:43:12:0e:3a:e4:e7:0a:7a:a5:76:
                    23:f1:37:24:68:0e:92:52:67:fe:ea:9f:6c:ba:33:
                    6c:11:75:bc:32:3f:ef:15:83:e2:5f:96:2f:a9:06:
                    8d:35:39:d4:65:cb:7e:b5:f2:c9:fb:3c:d6:11:da:
                    46:4f:c4:6d:b2:17:6a:7e:d1:f9:1c:d9:63:2f:fb:
                    5f:f1
                Exponent: 65537 (0x10001)
        X509v3 extensions:
            X509v3 Basic Constraints: 
                CA:FALSE
            Netscape Comment: 
                OpenSSL Generated Certificate
            X509v3 Subject Key Identifier: 
                16:27:B7:B6:0F:51:01:D1:F6:EB:7A:91:4D:3A:09:A3:0D:E4:DF:15
            X509v3 Authority Key Identifier: 
                keyid:9E:8B:82:0D:E5:97:34:40:F4:CB:7E:5A:0C:3B:CA:91:FD:5A:31:73

            X509v3 CRL Distribution Points: 

                Full Name:
                  URI:http://cn-ucsb-1.dataone.org/crl/DataONETest_CRL.pem

                Full Name:
                  URI:http://cn-unm-1.dataone.org/crl/DataONETest_CRL.pem

                Full Name:
                  URI:http://cn-orc-1.dataone.org/crl/DataONETest_CRL.pem

    Signature Algorithm: sha1WithRSAEncryption
        2a:91:e3:16:a5:46:0a:5c:6a:e1:75:b7:10:63:ba:22:26:9f:
        36:6a:cd:f7:af:b5:7c:32:30:ca:cc:01:39:20:21:c0:fe:22:
        ad:22:92:b2:27:eb:a9:d8:58:05:63:c1:1c:40:96:f8:d1:03:
        5c:d2:a3:f9:e1:61:e5:b8:21:ca:86:1d:84:a1:3d:74:74:a8:
        89:1b:0e:25:d5:be:43:51:fe:7a:c9:73:af:33:c1:33:f5:ac:
        d1:87:14:21:e2:ec:5e:5e:c3:4f:2a:c7:74:fa:ee:5b:bc:be:
        86:35:bc:ed:a5:a6:49:3e:ef:2e:5d:41:21:3a:47:76:19:6f:
        c5:c0:fd:19:6f:0d:9d:5c:3f:51:96:13:dd:f1:1f:72:dc:15:
        04:23:2c:b4:d3:52:76:df:51:06:fa:76:6c:e1:87:c8:b7:f1:
        89:23:3e:c6:55:6b:78:56:27:92:a8:a9:5b:b8:34:ad:9a:46:
        63:e9:66:a3:34:44:45:03:c7:26:09:a6:29:58:a2:a8:5d:59:
        61:34:a2:89:f7:65:03:99:29:95:76:1e:b8:3b:58:9d:9f:22:
        c3:cb:df:0d:e3:af:b5:d7:2d:e1:36:15:b8:63:a5:6e:97:4b:
        56:a2:5b:cc:34:32:22:d7:a9:7d:5b:45:6f:a2:d5:af:83:6d:
        bf:cc:c5:3a:8b:bb:6c:5d:7d:a8:b3:7b:ee:aa:d4:d9:54:54:
        b9:03:e4:91:7c:7e:ec:06:2b:7e:b7:cb:37:33:1e:7b:ba:c6:
        e6:1d:8c:f8:69:a3:92:e3:7f:c1:aa:5a:bb:4f:f9:0e:63:d1:
        f7:f1:f1:9c:c4:41:da:22:f0:e8:98:e3:b4:a2:a6:cf:b7:ca:
        ac:11:64:ee:03:7b:f8:86:e9:40:72:22:91:e5:52:af:2b:59:
        17:a0:05:8b:42:c6:0e:f9:c8:cf:ba:9b:ba:ed:4c:b7:f4:2c:
        b9:77:16:ce:98:85:68:be:6c:bc:c5:2b:ff:b6:a3:26:cb:9b:
        85:96:6f:c4:55:66:73:60:4b:67:90:6d:b7:b9:26:39:51:90:
        87:ed:49:05:1a:81:0d:b1:75:7b:fd:f7:01:25:fe:12:b1:0f:
        9d:92:d8:8e:ac:ba:78:c7:14:61:c3:b4:49:5f:38:8d:a6:6b:
        ca:f8:fe:82:47:32:d6:b6:e0:d6:7d:f2:64:f8:2d:1d:0a:84:
        6e:60:41:c5:41:5b:45:35:98:73:fe:44:77:da:ae:31:c5:e2:
        fa:d4:6a:74:b3:bd:d2:e2:72:72:44:6c:e0:33:08:0b:b8:a6:
        e2:43:ab:67:0e:5b:7b:8c:ad:be:39:43:02:d5:39:1d:ec:b5:
        51:c0:01:10:e6:75:09:6e
-----BEGIN CERTIFICATE-----
MIIFVzCCAz+gAwIBAgIJANoyY6KhLQAXMA0GCSqGSIb3DQEBBQUAMEgxEzARBgoJ
kiaJk/IsZAEZFgNvcmcxFzAVBgoJkiaJk/IsZAEZFgdkYXRhb25lMRgwFgYDVQQD
DA9EYXRhT05FIFRlc3QgQ0EwHhcNMTIwMzEwMDIxMjAzWhcNMTUwMzEwMDIxMjAz
WjBNMRMwEQYKCZImiZPyLGQBGRYDb3JnMRcwFQYKCZImiZPyLGQBGRYHZGF0YW9u
ZTEdMBsGA1UEAwwUY24tZGV2LTIuZGF0YW9uZS5vcmcwggEiMA0GCSqGSIb3DQEB
AQUAA4IBDwAwggEKAoIBAQDZfY3jgfUQSPlwaobmtCHlOeKdDpDYXj+9LPvJBild
Si17eXfn/Ji7zezqPXW+07ddb/ACWaisp4sZTtJRWOJP4mCd7en4PddBA5ZpTjIY
O8wA6qEhJSgmiZJVUXXulDePA7n28c22jGXj36GhcxDGVUMoMWXeyJZX6usqMDaO
NNKZ30Q15T42Jx2l3R84fLuX/pOKIHzci02lj3w9h+tHIF7txG34vQRvC5zkWGRm
lFaiXu+VTSXjQxIOOuTnCnqldiPxNyRoDpJSZ/7qn2y6M2wRdbwyP+8Vg+Jfli+p
Bo01OdRly3618sn7PNYR2kZPxG2yF2p+0fkc2WMv+1/xAgMBAAGjggE9MIIBOTAJ
BgNVHRMEAjAAMCwGCWCGSAGG+EIBDQQfFh1PcGVuU1NMIEdlbmVyYXRlZCBDZXJ0
aWZpY2F0ZTAdBgNVHQ4EFgQUFie3tg9RAdH263qRTToJow3k3xUwHwYDVR0jBBgw
FoAUnouCDeWXNED0y35aDDvKkf1aMXMwgb0GA1UdHwSBtTCBsjA6oDigNoY0aHR0
cDovL2NuLXVjc2ItMS5kYXRhb25lLm9yZy9jcmwvRGF0YU9ORVRlc3RfQ1JMLnBl
bTA5oDegNYYzaHR0cDovL2NuLXVubS0xLmRhdGFvbmUub3JnL2NybC9EYXRhT05F
VGVzdF9DUkwucGVtMDmgN6A1hjNodHRwOi8vY24tb3JjLTEuZGF0YW9uZS5vcmcv
Y3JsL0RhdGFPTkVUZXN0X0NSTC5wZW0wDQYJKoZIhvcNAQEFBQADggIBACqR4xal
RgpcauF1txBjuiImnzZqzfevtXwyMMrMATkgIcD+Iq0ikrIn66nYWAVjwRxAlvjR
A1zSo/nhYeW4IcqGHYShPXR0qIkbDiXVvkNR/nrJc68zwTP1rNGHFCHi7F5ew08q
x3T67lu8voY1vO2lpkk+7y5dQSE6R3YZb8XA/RlvDZ1cP1GWE93xH3LcFQQjLLTT
UnbfUQb6dmzhh8i38YkjPsZVa3hWJ5KoqVu4NK2aRmPpZqM0REUDxyYJpilYoqhd
WWE0oon3ZQOZKZV2Hrg7WJ2fIsPL3w3jr7XXLeE2FbhjpW6XS1aiW8w0MiLXqX1b
RW+i1a+Dbb/MxTqLu2xdfaize+6q1NlUVLkD5JF8fuwGK363yzczHnu6xuYdjPhp
o5Ljf8GqWrtP+Q5j0ffx8ZzEQdoi8OiY47Sips+3yqwRZO4De/iG6UByIpHlUq8r
WRegBYtCxg75yM+6m7rtTLf0LLl3Fs6YhWi+bLzFK/+2oybLm4WWb8RVZnNgS2eQ
bbe5JjlRkIftSQUagQ2xdXv99wEl/hKxD52S2I6sunjHFGHDtElfOI2ma8r4/oJH
Mta24NZ98mT4LR0KhG5gQcVBW0U1mHP+RHfarjHF4vrUanSzvdLicnJEbOAzCAu4
puJDq2cOW3uMrb45QwLVOR3stVHAARDmdQlu
-----END CERTIFICATE-----
