Certificate:
    Data:
        Version: 3 (0x2)
        Serial Number:
            da:32:63:a2:a1:2d:00:16
        Signature Algorithm: sha1WithRSAEncryption
        Issuer: dc=org/dc=dataone, CN=DataONE Test CA
        Validity
            Not Before: Mar 10 02:11:51 2012 GMT
            Not After : Mar 10 02:11:51 2015 GMT
        Subject: dc=org/dc=dataone, CN=cn-dev.dataone.org
        Subject Public Key Info:
            Public Key Algorithm: rsaEncryption
                Public-Key: (2048 bit)
                Modulus:
                    00:c5:d6:de:7f:6b:6c:d3:b1:2d:f3:d6:b7:d6:e1:
                    d4:b6:54:65:d0:b8:3c:0d:4a:c2:eb:cc:e6:35:09:
                    9d:9f:5a:51:ab:71:af:e3:ed:3f:19:d1:ee:ba:6f:
                    3c:18:e0:c5:37:8f:d0:2c:e1:48:36:0f:c0:16:95:
                    d4:28:78:25:3f:f3:3a:c8:dc:82:bc:f8:ec:19:f0:
                    28:b5:a7:89:ab:fe:67:0e:e7:11:65:8c:48:d0:b3:
                    6e:87:ff:c0:ce:2b:ac:dc:c8:60:e5:e5:dc:85:77:
                    20:70:bf:bc:51:5e:6a:f0:66:c9:85:17:8c:2a:47:
                    e6:44:60:44:56:63:5b:80:92:80:42:92:2a:4b:d1:
                    51:05:91:99:c1:c0:a9:35:41:02:69:f2:bf:87:f2:
                    8d:35:1e:98:64:b6:35:7d:e7:88:e7:65:ee:88:bd:
                    dd:04:c7:a4:af:a2:c7:5c:ba:46:1b:65:6c:20:f3:
                    ac:82:17:69:2d:be:d8:26:ca:81:cf:d6:91:1d:e3:
                    d6:04:96:9f:91:eb:53:0d:c1:d6:87:0c:fe:16:5a:
                    25:5c:75:68:bd:e0:51:d6:00:4c:43:e1:f6:e9:6c:
                    8b:fe:32:8e:0e:aa:71:ea:75:c7:23:52:bc:5b:f3:
                    96:1f:13:69:33:d0:7e:dc:e7:cd:d9:42:77:79:d0:
                    42:2f
                Exponent: 65537 (0x10001)
        X509v3 extensions:
            X509v3 Basic Constraints: 
                CA:FALSE
            Netscape Comment: 
                OpenSSL Generated Certificate
            X509v3 Subject Key Identifier: 
                3F:0B:9E:82:04:8D:1D:B2:7B:1F:6F:97:1D:FD:0E:DB:5A:E9:11:1A
            X509v3 Authority Key Identifier: 
                keyid:9E:8B:82:0D:E5:97:34:40:F4:CB:7E:5A:0C:3B:CA:91:FD:5A:31:73

            X509v3 CRL Distribution Points: 

                Full Name:
                  URI:http://cn-ucsb-1.dataone.org/crl/DataONETest_CRL.pem

                Full Name:
                  URI:http://cn-unm-1.dataone.org/crl/DataONETest_CRL.pem

                Full Name:
                  URI:http://cn-orc-1.dataone.org/crl/DataONETest_CRL.pem

    Signature Algorithm: sha1WithRSAEncryption
        4b:6f:87:b0:85:64:0d:09:43:66:03:d8:2e:a5:0c:93:1c:36:
        4d:a9:03:bb:f5:be:25:5a:b8:55:39:0c:55:3e:45:c3:86:6c:
        ec:36:69:fd:05:ae:30:7a:cb:13:bc:43:01:4f:d0:a8:2f:48:
        31:52:e8:84:5e:51:94:41:65:94:c0:12:46:5b:d7:77:ec:ad:
        d4:73:9e:f3:62:07:e1:0b:df:75:b2:55:fb:5b:9a:bc:2a:ec:
        df:07:54:fb:73:3d:0d:f2:5a:48:ce:42:ef:a7:64:76:42:6f:
        aa:0d:36:9d:18:3e:0c:71:74:a6:3a:9a:76:da:1c:75:5a:df:
        71:61:3e:6b:1b:b3:b7:06:37:c7:37:2a:a6:ee:f7:57:2d:99:
        21:5f:e6:02:7d:c4:ac:c4:4a:6f:bc:82:c5:6c:2f:a3:f2:af:
        97:f9:5a:64:91:a6:08:a3:21:5f:bf:f4:e1:07:89:c7:2c:8c:
        5e:00:a9:f1:90:d1:63:6e:f9:f5:d5:57:13:e3:c9:5f:f6:f2:
        59:b9:b2:2b:8e:9f:49:1b:58:59:af:16:a7:0f:c4:21:21:ae:
        2c:d2:3a:c4:51:19:7a:54:e8:22:23:3e:34:63:9c:89:d4:bd:
        fd:d2:59:88:43:4f:7f:c1:3e:fa:9b:96:82:6c:99:30:11:72:
        9c:12:1f:ba:a2:0f:e4:fd:54:4b:c0:a6:0d:a7:b3:d2:98:5d:
        e7:00:91:ec:50:a3:9c:8c:5d:28:6e:4e:0c:9d:dc:51:49:9c:
        7c:9b:18:91:d1:f8:1c:bc:33:95:e1:79:41:72:98:49:64:eb:
        b0:88:24:ae:88:1c:23:d5:54:02:99:c5:2e:fa:e8:eb:12:8f:
        59:cc:88:77:93:5d:44:e6:67:c7:18:a0:73:6e:24:12:1e:41:
        13:55:47:ba:7b:d5:ca:f2:8c:00:ed:9d:29:ec:e3:74:e4:1f:
        4b:8a:97:6b:73:a6:0b:72:39:90:50:f3:f0:e4:52:9f:22:82:
        aa:5a:99:d1:5f:cd:d9:14:90:ce:53:28:62:01:0d:73:06:59:
        3d:6e:8e:02:54:dd:36:b0:32:a3:bf:fa:36:45:dd:62:f7:7b:
        48:2b:56:4a:6b:49:ba:21:4c:65:9c:c6:5c:6c:c1:20:1d:d3:
        b3:72:f3:26:aa:88:ae:31:a1:c5:54:4b:63:61:59:9f:58:0b:
        3a:d4:4e:c4:f7:9a:e5:87:ec:41:44:12:ea:e6:41:cc:a4:43:
        d4:f6:20:40:d2:d3:66:fc:19:93:ac:40:86:47:bd:e9:86:8a:
        fd:20:b2:5b:56:22:00:0d:e3:a3:48:49:34:b9:b3:27:33:77:
        a9:b5:0c:b5:bf:eb:fd:40
-----BEGIN CERTIFICATE-----
MIIFVTCCAz2gAwIBAgIJANoyY6KhLQAWMA0GCSqGSIb3DQEBBQUAMEgxEzARBgoJ
kiaJk/IsZAEZFgNvcmcxFzAVBgoJkiaJk/IsZAEZFgdkYXRhb25lMRgwFgYDVQQD
DA9EYXRhT05FIFRlc3QgQ0EwHhcNMTIwMzEwMDIxMTUxWhcNMTUwMzEwMDIxMTUx
WjBLMRMwEQYKCZImiZPyLGQBGRYDb3JnMRcwFQYKCZImiZPyLGQBGRYHZGF0YW9u
ZTEbMBkGA1UEAwwSY24tZGV2LmRhdGFvbmUub3JnMIIBIjANBgkqhkiG9w0BAQEF
AAOCAQ8AMIIBCgKCAQEAxdbef2ts07Et89a31uHUtlRl0Lg8DUrC68zmNQmdn1pR
q3Gv4+0/GdHuum88GODFN4/QLOFINg/AFpXUKHglP/M6yNyCvPjsGfAotaeJq/5n
DucRZYxI0LNuh//Azius3Mhg5eXchXcgcL+8UV5q8GbJhReMKkfmRGBEVmNbgJKA
QpIqS9FRBZGZwcCpNUECafK/h/KNNR6YZLY1feeI52XuiL3dBMekr6LHXLpGG2Vs
IPOsghdpLb7YJsqBz9aRHePWBJafketTDcHWhwz+FlolXHVoveBR1gBMQ+H26WyL
/jKODqpx6nXHI1K8W/OWHxNpM9B+3OfN2UJ3edBCLwIDAQABo4IBPTCCATkwCQYD
VR0TBAIwADAsBglghkgBhvhCAQ0EHxYdT3BlblNTTCBHZW5lcmF0ZWQgQ2VydGlm
aWNhdGUwHQYDVR0OBBYEFD8LnoIEjR2yex9vlx39Dtta6REaMB8GA1UdIwQYMBaA
FJ6Lgg3llzRA9Mt+Wgw7ypH9WjFzMIG9BgNVHR8EgbUwgbIwOqA4oDaGNGh0dHA6
Ly9jbi11Y3NiLTEuZGF0YW9uZS5vcmcvY3JsL0RhdGFPTkVUZXN0X0NSTC5wZW0w
OaA3oDWGM2h0dHA6Ly9jbi11bm0tMS5kYXRhb25lLm9yZy9jcmwvRGF0YU9ORVRl
c3RfQ1JMLnBlbTA5oDegNYYzaHR0cDovL2NuLW9yYy0xLmRhdGFvbmUub3JnL2Ny
bC9EYXRhT05FVGVzdF9DUkwucGVtMA0GCSqGSIb3DQEBBQUAA4ICAQBLb4ewhWQN
CUNmA9gupQyTHDZNqQO79b4lWrhVOQxVPkXDhmzsNmn9Ba4wessTvEMBT9CoL0gx
UuiEXlGUQWWUwBJGW9d37K3Uc57zYgfhC991slX7W5q8KuzfB1T7cz0N8lpIzkLv
p2R2Qm+qDTadGD4McXSmOpp22hx1Wt9xYT5rG7O3BjfHNyqm7vdXLZkhX+YCfcSs
xEpvvILFbC+j8q+X+VpkkaYIoyFfv/ThB4nHLIxeAKnxkNFjbvn11VcT48lf9vJZ
ubIrjp9JG1hZrxanD8QhIa4s0jrEURl6VOgiIz40Y5yJ1L390lmIQ09/wT76m5aC
bJkwEXKcEh+6og/k/VRLwKYNp7PSmF3nAJHsUKOcjF0obk4MndxRSZx8mxiR0fgc
vDOV4XlBcphJZOuwiCSuiBwj1VQCmcUu+ujrEo9ZzIh3k11E5mfHGKBzbiQSHkET
VUe6e9XK8owA7Z0p7ON05B9Lipdrc6YLcjmQUPPw5FKfIoKqWpnRX83ZFJDOUyhi
AQ1zBlk9bo4CVN02sDKjv/o2Rd1i93tIK1ZKa0m6IUxlnMZcbMEgHdOzcvMmqoiu
MaHFVEtjYVmfWAs61E7E95rlh+xBRBLq5kHMpEPU9iBA0tNm/BmTrECGR73phor9
ILJbViIADeOjSEk0ubMnM3eptQy1v+v9QA==
-----END CERTIFICATE-----
