Certificate:
    Data:
        Version: 3 (0x2)
        Serial Number:
            da:32:63:a2:a1:2d:00:02
        Signature Algorithm: sha1WithRSAEncryption
        Issuer: dc=org/dc=dataone, CN=DataONE Test CA
        Validity
            Not Before: Mar 10 00:59:33 2012 GMT
            Not After : Mar 10 00:59:33 2015 GMT
        Subject: dc=org/dc=dataone, CN=testSubmitter
        Subject Public Key Info:
            Public Key Algorithm: rsaEncryption
                Public-Key: (2048 bit)
                Modulus:
                    00:b8:5c:80:3c:78:62:84:e8:4d:9c:33:d9:b9:71:
                    9d:dc:64:5a:eb:7a:8e:da:32:23:12:fc:f3:ae:d8:
                    95:65:8a:87:c4:bb:d3:72:78:9e:db:b6:e1:6e:d4:
                    3d:f4:f5:48:78:6d:eb:85:be:c0:de:b5:12:f7:11:
                    07:80:6d:5f:69:0d:d1:8a:eb:a3:c1:b6:2a:0f:4d:
                    dc:60:7b:47:e3:c6:7e:75:ee:6d:e1:0b:25:f2:94:
                    76:19:fc:30:9c:79:8a:e8:f8:31:8c:94:ed:68:d5:
                    a5:67:c8:64:26:25:41:ab:fd:09:11:e5:8c:cd:80:
                    0e:bb:76:1e:95:fe:e6:e6:ec:84:4e:c0:18:02:a5:
                    f7:76:4e:24:3e:c4:f1:07:97:b0:4f:41:f4:3a:3d:
                    35:b1:f5:70:6b:d8:4b:96:3d:12:2f:6f:4b:9b:86:
                    0a:49:7b:93:34:f2:b8:9b:d7:c5:3f:a3:36:89:44:
                    b4:c7:f9:d5:bc:ad:61:63:4b:68:3d:bc:5e:ad:98:
                    f8:14:d3:35:2f:a7:3c:47:d1:55:0f:49:81:c9:73:
                    eb:dd:be:eb:60:9f:95:2d:69:3c:e4:b1:f0:82:ce:
                    6f:f7:34:f8:32:49:ce:d9:b9:d8:77:19:13:c1:82:
                    7d:de:58:1d:79:e7:81:8c:e6:a9:78:6a:d3:5e:cf:
                    5b:35
                Exponent: 65537 (0x10001)
        X509v3 extensions:
            X509v3 Basic Constraints: 
                CA:FALSE
            Netscape Comment: 
                OpenSSL Generated Certificate
            X509v3 Subject Key Identifier: 
                02:F1:71:A2:BC:2A:7B:28:E6:D6:84:22:C6:BB:32:56:DF:10:F9:F3
            X509v3 Authority Key Identifier: 
                keyid:9E:8B:82:0D:E5:97:34:40:F4:CB:7E:5A:0C:3B:CA:91:FD:5A:31:73

            X509v3 CRL Distribution Points: 

                Full Name:
                  URI:http://cn-ucsb-1.dataone.org/crl/DataONETest_CRL.pem

                Full Name:
                  URI:http://cn-unm-1.dataone.org/crl/DataONETest_CRL.pem

                Full Name:
                  URI:http://cn-orc-1.dataone.org/crl/DataONETest_CRL.pem

            subject_info: 
                ....<?xml version=1.0 encoding=UTF-8?><d1:subjectInfo xmlns:d1=http://ns.dataone.org/service/types/v1><person><subject>CN=testSubmitter,DC=dataone,DC=org</subject><givenName>testSubmitter_givenName</givenName><familyName>testSubmitter_familyName</familyName></person></d1:subjectInfo>
    Signature Algorithm: sha1WithRSAEncryption
        63:12:96:3e:d5:f8:2e:05:77:8c:86:56:5d:d7:26:9f:81:1b:
        aa:b4:ed:dd:e0:73:ad:1c:1e:d4:32:82:e6:a4:c0:d9:ca:5a:
        87:1d:93:8e:52:90:b4:49:51:4d:13:34:6a:b7:ca:75:68:c1:
        8d:bc:dc:72:25:2b:e4:e0:eb:7b:c0:56:2b:07:a4:f4:2e:c4:
        36:a0:f9:cb:07:0a:a1:ef:fe:c7:aa:ab:62:98:89:11:a8:60:
        26:30:ee:33:bc:03:69:c5:b2:fd:19:c5:ed:6d:0c:4e:c6:7f:
        e9:6c:be:0e:01:8d:4e:39:cb:58:82:81:de:05:d4:33:b6:ab:
        71:cc:36:b5:f0:ed:3a:53:b9:48:fa:c6:4b:36:dc:d4:20:bb:
        fa:59:15:b3:59:5f:1a:d6:e5:d7:2e:56:17:dd:e6:84:26:45:
        15:b8:48:0a:52:a6:4b:c1:0e:5b:79:ad:97:bf:d3:fb:eb:39:
        01:87:c4:f1:77:27:84:22:24:cb:ef:64:a0:b5:1d:4d:42:54:
        93:e5:5a:74:f9:46:e5:2d:48:99:83:f6:60:67:bb:ab:c2:5c:
        9a:59:a7:e6:74:d7:cb:b3:b8:e3:a3:79:60:4b:8b:e2:52:53:
        37:26:2b:ba:03:d8:be:4a:bd:a3:ce:84:2b:3a:5e:d4:79:9f:
        d2:90:4b:8a:06:74:f5:5f:ac:e4:ee:0e:20:f1:7e:8f:5c:b8:
        9b:d3:42:b7:4a:4e:e6:37:2e:ae:f3:1f:8a:27:c2:32:28:9a:
        28:0e:6d:5e:f9:27:27:b7:24:6c:fa:37:ee:39:fe:c5:3d:c0:
        2a:87:1d:c2:5d:4f:38:cd:3c:de:26:37:87:37:3c:93:85:05:
        6a:f7:8a:a8:15:3d:74:05:b8:46:17:f4:c7:ee:15:fd:14:2b:
        50:5b:db:39:38:65:9d:c8:9b:c5:53:ce:25:1d:9a:a3:64:18:
        d9:ac:83:11:87:3e:31:e8:3c:54:ff:46:2f:b5:f4:3c:e6:61:
        fb:96:89:29:89:9a:a3:56:40:4b:f6:04:47:3f:53:29:04:31:
        6d:a6:5b:c6:ba:70:ef:34:ec:22:ca:b5:50:13:95:46:ec:f8:
        82:8e:09:41:5b:60:84:7c:02:dc:7b:76:e2:0a:50:d5:7a:97:
        d4:f0:01:93:da:ba:57:5b:af:7e:2d:b5:e0:d8:a4:7a:bf:86:
        5c:4b:7e:02:94:31:c1:71:c9:52:d1:64:36:6e:d2:b9:fb:41:
        6e:ab:5e:c8:22:b5:c2:2f:77:fc:6c:75:ce:ed:70:16:08:7b:
        6c:57:af:38:a6:d1:c7:40:37:81:d9:ed:28:eb:26:d1:19:58:
        2e:ea:bb:16:40:67:9b:ea
-----BEGIN CERTIFICATE-----
MIIGgDCCBGigAwIBAgIJANoyY6KhLQACMA0GCSqGSIb3DQEBBQUAMEgxEzARBgoJ
kiaJk/IsZAEZFgNvcmcxFzAVBgoJkiaJk/IsZAEZFgdkYXRhb25lMRgwFgYDVQQD
DA9EYXRhT05FIFRlc3QgQ0EwHhcNMTIwMzEwMDA1OTMzWhcNMTUwMzEwMDA1OTMz
WjBGMRMwEQYKCZImiZPyLGQBGRYDb3JnMRcwFQYKCZImiZPyLGQBGRYHZGF0YW9u
ZTEWMBQGA1UEAwwNdGVzdFN1Ym1pdHRlcjCCASIwDQYJKoZIhvcNAQEBBQADggEP
ADCCAQoCggEBALhcgDx4YoToTZwz2blxndxkWut6jtoyIxL8867YlWWKh8S703J4
ntu24W7UPfT1SHht64W+wN61EvcRB4BtX2kN0Yrro8G2Kg9N3GB7R+PGfnXubeEL
JfKUdhn8MJx5iuj4MYyU7WjVpWfIZCYlQav9CRHljM2ADrt2HpX+5ubshE7AGAKl
93ZOJD7E8QeXsE9B9Do9NbH1cGvYS5Y9Ei9vS5uGCkl7kzTyuJvXxT+jNolEtMf5
1bytYWNLaD28Xq2Y+BTTNS+nPEfRVQ9Jgclz692+62CflS1pPOSx8ILOb/c0+DJJ
ztm52HcZE8GCfd5YHXnngYzmqXhq017PWzUCAwEAAaOCAm0wggJpMAkGA1UdEwQC
MAAwLAYJYIZIAYb4QgENBB8WHU9wZW5TU0wgR2VuZXJhdGVkIENlcnRpZmljYXRl
MB0GA1UdDgQWBBQC8XGivCp7KObWhCLGuzJW3xD58zAfBgNVHSMEGDAWgBSei4IN
5Zc0QPTLfloMO8qR/VoxczCBvQYDVR0fBIG1MIGyMDqgOKA2hjRodHRwOi8vY24t
dWNzYi0xLmRhdGFvbmUub3JnL2NybC9EYXRhT05FVGVzdF9DUkwucGVtMDmgN6A1
hjNodHRwOi8vY24tdW5tLTEuZGF0YW9uZS5vcmcvY3JsL0RhdGFPTkVUZXN0X0NS
TC5wZW0wOaA3oDWGM2h0dHA6Ly9jbi1vcmMtMS5kYXRhb25lLm9yZy9jcmwvRGF0
YU9ORVRlc3RfQ1JMLnBlbTCCASwGCisGAQQBgpE2AgEEggEcDIIBGDw/eG1sIHZl
cnNpb249MS4wIGVuY29kaW5nPVVURi04Pz48ZDE6c3ViamVjdEluZm8geG1sbnM6
ZDE9aHR0cDovL25zLmRhdGFvbmUub3JnL3NlcnZpY2UvdHlwZXMvdjE+PHBlcnNv
bj48c3ViamVjdD5DTj10ZXN0U3VibWl0dGVyLERDPWRhdGFvbmUsREM9b3JnPC9z
dWJqZWN0PjxnaXZlbk5hbWU+dGVzdFN1Ym1pdHRlcl9naXZlbk5hbWU8L2dpdmVu
TmFtZT48ZmFtaWx5TmFtZT50ZXN0U3VibWl0dGVyX2ZhbWlseU5hbWU8L2ZhbWls
eU5hbWU+PC9wZXJzb24+PC9kMTpzdWJqZWN0SW5mbz4wDQYJKoZIhvcNAQEFBQAD
ggIBAGMSlj7V+C4Fd4yGVl3XJp+BG6q07d3gc60cHtQyguakwNnKWocdk45SkLRJ
UU0TNGq3ynVowY283HIlK+Tg63vAVisHpPQuxDag+csHCqHv/seqq2KYiRGoYCYw
7jO8A2nFsv0Zxe1tDE7Gf+lsvg4BjU45y1iCgd4F1DO2q3HMNrXw7TpTuUj6xks2
3NQgu/pZFbNZXxrW5dcuVhfd5oQmRRW4SApSpkvBDlt5rZe/0/vrOQGHxPF3J4Qi
JMvvZKC1HU1CVJPlWnT5RuUtSJmD9mBnu6vCXJpZp+Z018uzuOOjeWBLi+JSUzcm
K7oD2L5KvaPOhCs6XtR5n9KQS4oGdPVfrOTuDiDxfo9cuJvTQrdKTuY3Lq7zH4on
wjIomigObV75Jye3JGz6N+45/sU9wCqHHcJdTzjNPN4mN4c3PJOFBWr3iqgVPXQF
uEYX9MfuFf0UK1Bb2zk4ZZ3Im8VTziUdmqNkGNmsgxGHPjHoPFT/Ri+19DzmYfuW
iSmJmqNWQEv2BEc/UykEMW2mW8a6cO807CLKtVATlUbs+IKOCUFbYIR8Atx7duIK
UNV6l9TwAZPauldbr34tteDYpHq/hlxLfgKUMcFxyVLRZDZu0rn7QW6rXsgitcIv
d/xsdc7tcBYIe2xXrzim0cdAN4HZ7SjrJtEZWC7quxZAZ5vq
-----END CERTIFICATE-----
