Certificate:
    Data:
        Version: 3 (0x2)
        Serial Number:
            da:32:63:a2:a1:2d:00:1f
        Signature Algorithm: sha1WithRSAEncryption
        Issuer: dc=org/dc=dataone, CN=DataONE Test CA
        Validity
            Not Before: Apr 11 00:12:54 2012 GMT
            Not After : Apr 11 00:12:54 2015 GMT
        Subject: dc=org/dc=dataone, CN=urn:node:D1USGS1
        Subject Public Key Info:
            Public Key Algorithm: rsaEncryption
                Public-Key: (2048 bit)
                Modulus:
                    00:9a:2c:21:1d:7e:50:b3:e8:be:80:29:87:80:f3:
                    e8:79:61:f5:1c:65:d3:81:a2:42:6e:9b:94:2c:ef:
                    2d:c7:0e:36:44:23:fc:2b:29:0c:8e:d2:79:32:6d:
                    42:aa:b0:d2:c8:10:4e:79:0a:db:81:f1:a1:42:c9:
                    1d:43:e2:3c:18:03:9c:01:e1:7c:0d:3a:34:22:ba:
                    9e:4a:56:a3:ee:cb:da:1b:89:5d:38:89:3a:8b:87:
                    2e:ae:e0:87:71:f8:82:9e:44:74:a7:65:3a:60:7c:
                    a2:b6:14:c8:60:01:3a:e4:8f:62:c5:ff:07:da:9c:
                    0a:96:8e:e9:76:34:86:56:f5:55:97:90:8c:38:07:
                    2e:f1:b5:e0:3d:bf:45:43:80:8e:ea:80:e7:2b:3f:
                    c3:89:17:5d:5e:b9:ba:1a:be:21:44:7c:d7:17:52:
                    ae:48:7f:49:14:42:ad:fd:c6:14:15:e6:a6:8e:8a:
                    21:04:9e:e3:ac:19:c3:aa:47:0d:8f:bf:91:f9:4b:
                    80:0d:6d:e7:ee:85:51:29:0a:bd:a3:da:ff:44:68:
                    c1:ef:d6:16:54:de:01:89:e5:84:45:ec:5a:a4:fd:
                    d7:a8:2e:75:7f:b2:31:7d:32:88:7e:84:c8:4c:e5:
                    53:19:a5:ba:c7:d2:e9:94:3d:0f:44:b6:af:6d:b4:
                    da:3b
                Exponent: 65537 (0x10001)
        X509v3 extensions:
            X509v3 Basic Constraints: 
                CA:FALSE
            Netscape Comment: 
                OpenSSL Generated Certificate
            X509v3 Subject Key Identifier: 
                C1:FB:05:BD:4B:3A:01:11:9C:C6:FD:9C:B1:A8:1E:47:C6:13:41:CA
            X509v3 Authority Key Identifier: 
                keyid:9E:8B:82:0D:E5:97:34:40:F4:CB:7E:5A:0C:3B:CA:91:FD:5A:31:73

            X509v3 CRL Distribution Points: 

                Full Name:
                  URI:http://cn-ucsb-1.dataone.org/crl/DataONETest_CRL.pem

                Full Name:
                  URI:http://cn-unm-1.dataone.org/crl/DataONETest_CRL.pem

                Full Name:
                  URI:http://cn-orc-1.dataone.org/crl/DataONETest_CRL.pem

    Signature Algorithm: sha1WithRSAEncryption
        b5:1f:da:a1:1d:18:24:75:59:2b:00:d7:15:0e:77:c9:15:0b:
        ee:5d:89:1c:97:40:ee:be:dc:1c:ba:49:08:bc:35:ef:74:08:
        32:72:c2:68:52:1b:80:3e:02:7d:d4:de:09:65:b8:4d:ae:25:
        0a:e6:e2:f5:00:a4:dc:6b:44:34:8e:de:1f:97:f2:91:1e:5c:
        ad:ee:2a:0e:83:94:eb:44:9b:fa:d3:0c:a9:e6:75:e2:e6:5b:
        3b:f7:f2:0e:73:30:b6:98:30:15:b6:09:97:96:54:0e:86:90:
        b7:44:78:05:1d:57:1f:41:f4:05:46:92:ff:f2:19:37:a0:82:
        e7:91:46:e6:6f:4a:ff:e9:ce:80:4b:91:69:47:ef:b6:6a:c9:
        60:c4:f1:a5:12:49:6e:f2:1a:85:02:3d:5f:d5:c4:f5:70:5e:
        dc:4d:cf:c4:5a:2c:4d:99:17:03:6a:8c:c0:fc:44:7b:f9:22:
        c7:5d:23:92:27:d4:c7:68:cb:34:4f:be:1b:86:b6:fb:81:ae:
        3c:f9:96:fc:3e:8e:24:7b:4d:34:b6:99:8c:46:3e:20:2b:77:
        f7:20:39:41:a7:73:f2:02:97:79:a4:cc:52:b6:8b:cb:06:46:
        36:19:71:e4:20:eb:f2:77:0c:3a:8a:93:34:60:fa:5e:9f:b5:
        e6:fe:6c:8f:39:c2:59:1e:19:2f:4b:b9:81:c9:4c:33:d0:46:
        1c:3f:79:8a:6f:97:98:47:9c:3b:2f:65:dc:f6:5f:8a:23:58:
        13:e3:ca:8e:ba:74:29:8e:de:f2:60:f3:69:29:79:eb:84:4c:
        d4:2e:06:0d:af:a9:46:ec:2b:f1:85:68:b5:c4:6b:40:96:5f:
        d9:68:21:e1:7c:65:b9:1e:cb:ec:4a:30:5b:4e:55:51:c9:a9:
        c9:cb:e0:f0:b5:0f:a1:ec:73:11:a3:68:c2:73:82:65:1c:fd:
        62:22:aa:47:e7:de:3e:7d:ad:8a:1a:6a:f4:3b:6f:ce:32:f7:
        b6:01:1d:96:27:95:9d:dc:d7:1f:4c:5a:00:fb:b8:75:f7:dc:
        a4:db:3b:e8:61:ea:b3:c4:45:05:61:e4:e1:cf:0d:a6:12:8c:
        70:de:92:91:f0:98:16:4c:c8:ca:cd:92:85:05:c7:40:ac:86:
        02:c0:5a:e0:56:1e:9b:eb:61:0d:9d:fe:68:46:d9:fe:fe:0d:
        52:ca:b4:0b:3b:28:21:17:b1:0c:4b:1a:4f:35:94:4d:f4:5d:
        01:55:33:ca:95:9e:db:2e:32:bc:6b:68:a0:43:9e:64:59:4c:
        f0:44:88:3c:0f:8b:60:c4:c3:23:1e:d6:6f:57:2d:c6:21:24:
        f2:b1:b3:6d:65:7d:5e:1f
-----BEGIN CERTIFICATE-----
MIIFUzCCAzugAwIBAgIJANoyY6KhLQAfMA0GCSqGSIb3DQEBBQUAMEgxEzARBgoJ
kiaJk/IsZAEZFgNvcmcxFzAVBgoJkiaJk/IsZAEZFgdkYXRhb25lMRgwFgYDVQQD
DA9EYXRhT05FIFRlc3QgQ0EwHhcNMTIwNDExMDAxMjU0WhcNMTUwNDExMDAxMjU0
WjBJMRMwEQYKCZImiZPyLGQBGRYDb3JnMRcwFQYKCZImiZPyLGQBGRYHZGF0YW9u
ZTEZMBcGA1UEAwwQdXJuOm5vZGU6RDFVU0dTMTCCASIwDQYJKoZIhvcNAQEBBQAD
ggEPADCCAQoCggEBAJosIR1+ULPovoAph4Dz6Hlh9Rxl04GiQm6blCzvLccONkQj
/CspDI7SeTJtQqqw0sgQTnkK24HxoULJHUPiPBgDnAHhfA06NCK6nkpWo+7L2huJ
XTiJOouHLq7gh3H4gp5EdKdlOmB8orYUyGABOuSPYsX/B9qcCpaO6XY0hlb1VZeQ
jDgHLvG14D2/RUOAjuqA5ys/w4kXXV65uhq+IUR81xdSrkh/SRRCrf3GFBXmpo6K
IQSe46wZw6pHDY+/kflLgA1t5+6FUSkKvaPa/0Rowe/WFlTeAYnlhEXsWqT916gu
dX+yMX0yiH6EyEzlUxmlusfS6ZQ9D0S2r2202jsCAwEAAaOCAT0wggE5MAkGA1Ud
EwQCMAAwLAYJYIZIAYb4QgENBB8WHU9wZW5TU0wgR2VuZXJhdGVkIENlcnRpZmlj
YXRlMB0GA1UdDgQWBBTB+wW9SzoBEZzG/ZyxqB5HxhNByjAfBgNVHSMEGDAWgBSe
i4IN5Zc0QPTLfloMO8qR/VoxczCBvQYDVR0fBIG1MIGyMDqgOKA2hjRodHRwOi8v
Y24tdWNzYi0xLmRhdGFvbmUub3JnL2NybC9EYXRhT05FVGVzdF9DUkwucGVtMDmg
N6A1hjNodHRwOi8vY24tdW5tLTEuZGF0YW9uZS5vcmcvY3JsL0RhdGFPTkVUZXN0
X0NSTC5wZW0wOaA3oDWGM2h0dHA6Ly9jbi1vcmMtMS5kYXRhb25lLm9yZy9jcmwv
RGF0YU9ORVRlc3RfQ1JMLnBlbTANBgkqhkiG9w0BAQUFAAOCAgEAtR/aoR0YJHVZ
KwDXFQ53yRUL7l2JHJdA7r7cHLpJCLw173QIMnLCaFIbgD4CfdTeCWW4Ta4lCubi
9QCk3GtENI7eH5fykR5cre4qDoOU60Sb+tMMqeZ14uZbO/fyDnMwtpgwFbYJl5ZU
DoaQt0R4BR1XH0H0BUaS//IZN6CC55FG5m9K/+nOgEuRaUfvtmrJYMTxpRJJbvIa
hQI9X9XE9XBe3E3PxFosTZkXA2qMwPxEe/kix10jkifUx2jLNE++G4a2+4GuPPmW
/D6OJHtNNLaZjEY+ICt39yA5Qadz8gKXeaTMUraLywZGNhlx5CDr8ncMOoqTNGD6
Xp+15v5sjznCWR4ZL0u5gclMM9BGHD95im+XmEecOy9l3PZfiiNYE+PKjrp0KY7e
8mDzaSl564RM1C4GDa+pRuwr8YVotcRrQJZf2Wgh4XxluR7L7EowW05VUcmpycvg
8LUPoexzEaNownOCZRz9YiKqR+fePn2tihpq9DtvzjL3tgEdlieVndzXH0xaAPu4
dffcpNs76GHqs8RFBWHk4c8NphKMcN6SkfCYFkzIys2ShQXHQKyGAsBa4FYem+th
DZ3+aEbZ/v4NUsq0CzsoIRexDEsaTzWUTfRdAVUzypWe2y4yvGtooEOeZFlM8ESI
PA+LYMTDIx7Wb1ctxiEk8rGzbWV9Xh8=
-----END CERTIFICATE-----
