Certificate:
    Data:
        Version: 3 (0x2)
        Serial Number:
            da:32:63:a2:a1:2d:00:09
        Signature Algorithm: sha1WithRSAEncryption
        Issuer: dc=org/dc=dataone, CN=DataONE Test CA
        Validity
            Not Before: Mar 10 01:20:03 2012 GMT
            Not After : Mar 10 01:20:03 2015 GMT
        Subject: dc=org/dc=dataone, CN=urn:node:cnSandboxUNM1
        Subject Public Key Info:
            Public Key Algorithm: rsaEncryption
                Public-Key: (2048 bit)
                Modulus:
                    00:e8:43:7e:f2:23:7f:8c:82:eb:69:ac:28:1f:41:
                    39:34:dc:32:ba:4e:11:18:7f:ce:e3:df:91:b5:24:
                    d2:00:a5:99:8e:71:27:e8:02:d2:ab:45:4f:d9:65:
                    4d:97:f6:94:a1:9b:86:12:b2:a7:45:26:c7:9f:8d:
                    f0:9c:37:c4:5b:5a:2b:33:1a:6a:74:7a:aa:ee:ba:
                    0b:bc:2d:a1:93:ae:73:3c:2b:f6:9c:13:ef:f0:73:
                    bd:e6:4f:90:73:cc:33:1c:e2:cd:fb:d3:64:7f:72:
                    11:53:dc:af:d8:f7:3a:be:84:6e:77:b5:5f:f7:7e:
                    32:34:3c:a1:72:a8:c1:3c:12:26:b6:b6:10:66:1c:
                    e4:d5:ef:e7:ea:03:18:a1:4d:8f:3b:a3:f8:1a:f4:
                    1d:5f:bc:a7:b8:6e:0d:6c:5b:ee:72:61:b5:77:b3:
                    99:2f:28:a9:61:b8:76:3a:61:4a:9d:1e:7e:d1:f1:
                    2a:8a:52:13:6d:10:49:fa:b6:1d:7a:67:f0:65:2c:
                    33:b4:c1:e5:7d:7c:1c:3c:28:e0:9c:39:6f:6c:f7:
                    42:cb:e9:ed:23:0d:9e:cd:71:18:25:1f:03:59:12:
                    e8:2d:36:41:0a:12:20:61:c2:6f:6b:44:92:67:3b:
                    56:30:ac:5a:02:bf:d5:39:7d:52:9f:02:d2:24:fc:
                    ac:a5
                Exponent: 65537 (0x10001)
        X509v3 extensions:
            X509v3 Basic Constraints: 
                CA:FALSE
            Netscape Comment: 
                OpenSSL Generated Certificate
            X509v3 Subject Key Identifier: 
                6B:01:6A:7A:3A:35:48:D4:B2:8B:AE:C1:9F:6D:56:CE:84:A0:5C:FC
            X509v3 Authority Key Identifier: 
                keyid:9E:8B:82:0D:E5:97:34:40:F4:CB:7E:5A:0C:3B:CA:91:FD:5A:31:73

            X509v3 CRL Distribution Points: 

                Full Name:
                  URI:http://cn-ucsb-1.dataone.org/crl/DataONETest_CRL.pem

                Full Name:
                  URI:http://cn-unm-1.dataone.org/crl/DataONETest_CRL.pem

                Full Name:
                  URI:http://cn-orc-1.dataone.org/crl/DataONETest_CRL.pem

    Signature Algorithm: sha1WithRSAEncryption
        0e:2f:f3:1e:b3:87:11:b7:7b:39:de:aa:3d:6b:a7:fd:65:32:
        3f:ec:82:3f:41:fd:85:79:25:05:db:ab:74:26:83:8f:8b:7c:
        21:5a:cf:b0:2e:40:70:da:df:8e:58:db:a1:82:8c:72:d8:76:
        df:88:ea:5a:84:aa:86:d6:32:34:51:64:9b:56:89:a1:85:ca:
        13:44:60:3e:25:05:9c:e0:69:94:7f:ee:f4:9a:6a:7f:de:3e:
        2e:09:65:e8:24:4d:1c:8a:24:b9:1b:e3:0a:2a:0c:62:31:55:
        fd:39:8f:d5:24:ad:aa:68:16:bf:14:b6:b4:c7:6b:93:b7:08:
        29:04:07:73:c3:49:e2:7e:49:97:5b:0a:82:b9:cb:03:55:75:
        12:e9:83:08:8e:6a:72:8b:b5:94:31:6a:b1:46:94:8f:2c:72:
        da:7f:24:17:c0:66:26:f4:9c:75:a6:7a:27:50:f1:f2:1e:5b:
        ad:56:e0:2d:9c:6d:44:ac:2e:48:dd:62:5d:2c:4a:db:1e:c1:
        4e:f1:4b:85:7d:2d:d7:3b:62:f8:e2:5b:6a:cd:86:72:10:c5:
        1e:54:55:79:67:da:4f:d3:e0:e4:7e:e5:62:db:b8:fc:f6:48:
        7e:e2:48:db:64:30:78:9d:78:84:98:0a:ab:86:fc:2f:af:63:
        9d:a0:14:2f:53:0b:84:29:68:1a:d3:27:60:a3:03:91:e1:e1:
        61:e0:7f:03:78:d1:d2:0c:19:9a:62:fa:57:af:c0:c9:12:d1:
        68:4c:54:a2:e5:2f:fb:ba:1a:2e:9a:c9:89:14:1f:49:30:42:
        70:fc:69:72:5c:b0:5a:e4:88:38:f9:d8:99:fe:e4:1b:0e:6b:
        bd:b0:03:66:80:29:7f:e6:9f:e6:25:d7:4d:e5:87:ff:6a:92:
        43:85:76:b7:9b:71:fa:2b:a6:f1:1c:ea:5d:cf:bf:f6:b7:bd:
        51:32:b1:dd:c2:69:39:d9:44:98:2b:74:a0:dc:0f:c3:0a:5e:
        d7:ab:f2:5a:18:f3:f5:f3:f3:b9:50:88:d6:f5:f2:77:2e:74:
        be:90:27:91:b6:eb:72:30:cc:d8:6c:96:33:5a:0d:63:dd:06:
        c8:72:16:df:68:6e:62:c5:0b:5e:b8:e8:e3:e3:55:46:93:85:
        d4:80:83:4e:33:da:e3:ea:13:e1:2e:b3:73:e9:59:18:e9:3b:
        c0:ea:c0:f8:3d:be:f8:1e:f9:74:8a:b7:e9:8d:27:28:92:bd:
        de:e9:5a:d0:65:c3:a7:84:b9:91:ac:28:ab:4c:5f:d1:22:57:
        bd:ad:68:c7:a5:1e:44:77:0f:17:df:cf:a5:56:04:d6:d2:b7:
        74:e1:fc:40:6b:1f:8f:44
-----BEGIN CERTIFICATE-----
MIIFWTCCA0GgAwIBAgIJANoyY6KhLQAJMA0GCSqGSIb3DQEBBQUAMEgxEzARBgoJ
kiaJk/IsZAEZFgNvcmcxFzAVBgoJkiaJk/IsZAEZFgdkYXRhb25lMRgwFgYDVQQD
DA9EYXRhT05FIFRlc3QgQ0EwHhcNMTIwMzEwMDEyMDAzWhcNMTUwMzEwMDEyMDAz
WjBPMRMwEQYKCZImiZPyLGQBGRYDb3JnMRcwFQYKCZImiZPyLGQBGRYHZGF0YW9u
ZTEfMB0GA1UEAwwWdXJuOm5vZGU6Y25TYW5kYm94VU5NMTCCASIwDQYJKoZIhvcN
AQEBBQADggEPADCCAQoCggEBAOhDfvIjf4yC62msKB9BOTTcMrpOERh/zuPfkbUk
0gClmY5xJ+gC0qtFT9llTZf2lKGbhhKyp0Umx5+N8Jw3xFtaKzMaanR6qu66C7wt
oZOuczwr9pwT7/BzveZPkHPMMxzizfvTZH9yEVPcr9j3Or6Ebne1X/d+MjQ8oXKo
wTwSJra2EGYc5NXv5+oDGKFNjzuj+Br0HV+8p7huDWxb7nJhtXezmS8oqWG4djph
Sp0eftHxKopSE20QSfq2HXpn8GUsM7TB5X18HDwo4Jw5b2z3Qsvp7SMNns1xGCUf
A1kS6C02QQoSIGHCb2tEkmc7VjCsWgK/1Tl9Up8C0iT8rKUCAwEAAaOCAT0wggE5
MAkGA1UdEwQCMAAwLAYJYIZIAYb4QgENBB8WHU9wZW5TU0wgR2VuZXJhdGVkIENl
cnRpZmljYXRlMB0GA1UdDgQWBBRrAWp6OjVI1LKLrsGfbVbOhKBc/DAfBgNVHSME
GDAWgBSei4IN5Zc0QPTLfloMO8qR/VoxczCBvQYDVR0fBIG1MIGyMDqgOKA2hjRo
dHRwOi8vY24tdWNzYi0xLmRhdGFvbmUub3JnL2NybC9EYXRhT05FVGVzdF9DUkwu
cGVtMDmgN6A1hjNodHRwOi8vY24tdW5tLTEuZGF0YW9uZS5vcmcvY3JsL0RhdGFP
TkVUZXN0X0NSTC5wZW0wOaA3oDWGM2h0dHA6Ly9jbi1vcmMtMS5kYXRhb25lLm9y
Zy9jcmwvRGF0YU9ORVRlc3RfQ1JMLnBlbTANBgkqhkiG9w0BAQUFAAOCAgEADi/z
HrOHEbd7Od6qPWun/WUyP+yCP0H9hXklBdurdCaDj4t8IVrPsC5AcNrfjljboYKM
cth234jqWoSqhtYyNFFkm1aJoYXKE0RgPiUFnOBplH/u9Jpqf94+Lgll6CRNHIok
uRvjCioMYjFV/TmP1SStqmgWvxS2tMdrk7cIKQQHc8NJ4n5Jl1sKgrnLA1V1EumD
CI5qcou1lDFqsUaUjyxy2n8kF8BmJvScdaZ6J1Dx8h5brVbgLZxtRKwuSN1iXSxK
2x7BTvFLhX0t1zti+OJbas2GchDFHlRVeWfaT9Pg5H7lYtu4/PZIfuJI22QweJ14
hJgKq4b8L69jnaAUL1MLhCloGtMnYKMDkeHhYeB/A3jR0gwZmmL6V6/AyRLRaExU
ouUv+7oaLprJiRQfSTBCcPxpclywWuSIOPnYmf7kGw5rvbADZoApf+af5iXXTeWH
/2qSQ4V2t5tx+ium8RzqXc+/9re9UTKx3cJpOdlEmCt0oNwPwwpe16vyWhjz9fPz
uVCI1vXydy50vpAnkbbrcjDM2GyWM1oNY90GyHIW32huYsULXrjo4+NVRpOF1ICD
TjPa4+oT4S6zc+lZGOk7wOrA+D2++B75dIq36Y0nKJK93ula0GXDp4S5kawoq0xf
0SJXva1ox6UeRHcPF9/PpVYE1tK3dOH8QGsfj0Q=
-----END CERTIFICATE-----
