Certificate:
    Data:
        Version: 3 (0x2)
        Serial Number:
            da:32:63:a2:a1:2d:00:10
        Signature Algorithm: sha1WithRSAEncryption
        Issuer: dc=org/dc=dataone, CN=DataONE Test CA
        Validity
            Not Before: Mar 10 01:27:29 2012 GMT
            Not After : Mar 10 01:27:29 2015 GMT
        Subject: dc=org/dc=dataone, CN=urn:node:cnDevUNM1
        Subject Public Key Info:
            Public Key Algorithm: rsaEncryption
                Public-Key: (2048 bit)
                Modulus:
                    00:b7:db:33:7e:40:1f:fd:92:2d:80:37:ee:15:1d:
                    ea:20:8e:54:71:14:1d:0f:3e:22:f6:06:96:93:70:
                    19:ef:bc:d8:31:ae:c6:49:14:38:22:4d:09:3e:2f:
                    9a:73:34:29:05:c8:53:b3:b2:cd:d2:2c:41:d1:9a:
                    77:5f:b1:12:bf:6d:1b:9c:24:77:31:b8:34:17:c0:
                    f4:83:a3:70:3e:45:53:cf:3d:64:6f:5e:4e:53:52:
                    c7:12:f3:a8:09:c7:25:fb:4d:92:b0:ad:75:e2:3c:
                    ab:26:88:ff:c7:4d:02:ff:d6:be:61:d6:b7:26:f1:
                    ee:a2:8f:4e:fa:09:61:fd:38:9f:39:c7:eb:39:e3:
                    ec:34:81:fc:26:31:24:8d:1b:56:2c:f2:2a:c5:99:
                    4f:bb:2a:14:18:ee:63:6a:14:72:f4:a5:26:b0:0e:
                    87:6a:17:91:3a:95:98:e6:54:cc:90:2d:0c:ad:1f:
                    56:8f:c0:00:e6:64:52:ab:56:c1:62:11:56:e6:80:
                    7c:1f:b9:1d:01:43:0a:5f:57:2e:d0:04:ce:ee:1a:
                    37:00:cc:af:cc:c0:e3:89:86:bb:a2:74:aa:19:92:
                    f8:b9:6c:f6:52:aa:aa:ad:03:7a:d7:4c:ec:4d:70:
                    75:7e:c5:d0:1d:24:67:92:98:c6:26:bc:d3:86:b7:
                    7a:31
                Exponent: 65537 (0x10001)
        X509v3 extensions:
            X509v3 Basic Constraints: 
                CA:FALSE
            Netscape Comment: 
                OpenSSL Generated Certificate
            X509v3 Subject Key Identifier: 
                0C:2F:12:BE:C5:80:BB:5E:8E:70:A8:1F:D7:4C:14:57:57:C6:BE:B9
            X509v3 Authority Key Identifier: 
                keyid:9E:8B:82:0D:E5:97:34:40:F4:CB:7E:5A:0C:3B:CA:91:FD:5A:31:73

            X509v3 CRL Distribution Points: 

                Full Name:
                  URI:http://cn-ucsb-1.dataone.org/crl/DataONETest_CRL.pem

                Full Name:
                  URI:http://cn-unm-1.dataone.org/crl/DataONETest_CRL.pem

                Full Name:
                  URI:http://cn-orc-1.dataone.org/crl/DataONETest_CRL.pem

    Signature Algorithm: sha1WithRSAEncryption
        24:a1:78:da:bf:53:4f:48:b6:72:1a:1b:78:96:09:52:fa:2a:
        33:f6:41:11:a5:ef:83:a0:54:4b:9e:1a:69:73:64:8a:2b:c5:
        26:b3:aa:0b:69:c7:83:32:40:45:8a:2e:fe:84:7b:2c:90:bb:
        47:82:cc:54:76:48:71:73:1e:93:24:44:cb:06:81:59:e0:e3:
        aa:e9:c7:5d:63:01:4e:fe:0d:21:0c:78:0f:18:dd:2b:7d:ee:
        61:e9:55:13:b9:ea:66:8e:d0:80:f1:3a:77:2c:9c:c9:86:0a:
        ee:ae:f7:bc:71:95:20:97:3e:27:be:65:11:1c:fb:84:d5:26:
        d8:95:6e:83:77:a2:c5:89:ef:c1:f7:15:b1:f5:27:fd:f1:a5:
        a6:95:f3:e3:26:16:8e:7e:93:10:12:1c:4a:a3:5c:9b:e6:66:
        5b:fe:4b:86:f8:c6:e1:4c:3c:62:60:7a:0d:f3:07:0e:7d:f0:
        fd:cd:69:7c:93:2d:51:62:10:23:b7:92:d2:d3:17:39:5d:18:
        92:83:b8:8d:84:98:2f:13:19:32:cf:34:32:7b:79:3d:95:30:
        2b:5d:02:91:99:4d:d2:0d:96:ec:f9:96:31:d1:b6:1f:ef:4a:
        c5:a6:0d:1d:e0:21:21:98:e2:fc:86:72:49:5f:7d:41:32:a9:
        57:4a:03:cc:88:9e:b4:4e:fd:eb:74:ec:da:ca:4c:49:e3:7b:
        88:2d:9f:81:dc:3c:61:4f:e2:5e:5b:20:4e:7e:24:4c:bb:51:
        fa:4c:6a:bb:b3:d1:0a:16:d6:e0:ad:3a:1c:72:14:f0:ee:87:
        17:78:34:9b:28:f5:4e:c4:fb:1b:cc:95:4b:5b:e1:1a:7a:3e:
        76:09:3e:14:27:85:77:ab:c1:09:bb:a4:3a:41:94:9a:ad:30:
        70:7a:fb:a9:d1:16:32:43:8c:bd:d1:53:32:40:11:bf:32:e5:
        6f:7e:8a:85:9e:37:e9:e0:b1:b5:73:b4:04:3c:67:6e:6c:0e:
        47:89:00:f0:50:16:89:ed:30:73:b7:c5:1c:92:59:c1:0a:57:
        95:a4:84:7e:cc:37:a4:8a:77:35:bc:5d:d4:44:54:66:21:e8:
        fc:d6:49:dd:20:57:69:6e:78:01:35:ff:d9:00:20:be:04:e6:
        a2:90:d7:7c:79:3c:42:15:ec:72:c7:25:3a:da:f0:3d:58:fd:
        8a:b1:3d:5f:da:f1:97:1c:94:cb:52:bc:31:33:69:90:26:a8:
        e5:af:f1:d9:c3:66:34:2b:c7:4d:1e:3c:b3:23:25:94:0a:af:
        ad:49:5c:2d:d1:b0:86:38:db:80:b1:a8:92:76:e4:6e:95:7d:
        0d:4e:9a:07:63:b7:d6:64
-----BEGIN CERTIFICATE-----
MIIFVTCCAz2gAwIBAgIJANoyY6KhLQAQMA0GCSqGSIb3DQEBBQUAMEgxEzARBgoJ
kiaJk/IsZAEZFgNvcmcxFzAVBgoJkiaJk/IsZAEZFgdkYXRhb25lMRgwFgYDVQQD
DA9EYXRhT05FIFRlc3QgQ0EwHhcNMTIwMzEwMDEyNzI5WhcNMTUwMzEwMDEyNzI5
WjBLMRMwEQYKCZImiZPyLGQBGRYDb3JnMRcwFQYKCZImiZPyLGQBGRYHZGF0YW9u
ZTEbMBkGA1UEAwwSdXJuOm5vZGU6Y25EZXZVTk0xMIIBIjANBgkqhkiG9w0BAQEF
AAOCAQ8AMIIBCgKCAQEAt9szfkAf/ZItgDfuFR3qII5UcRQdDz4i9gaWk3AZ77zY
Ma7GSRQ4Ik0JPi+aczQpBchTs7LN0ixB0Zp3X7ESv20bnCR3Mbg0F8D0g6NwPkVT
zz1kb15OU1LHEvOoCccl+02SsK114jyrJoj/x00C/9a+Yda3JvHuoo9O+glh/Tif
OcfrOePsNIH8JjEkjRtWLPIqxZlPuyoUGO5jahRy9KUmsA6HaheROpWY5lTMkC0M
rR9Wj8AA5mRSq1bBYhFW5oB8H7kdAUMKX1cu0ATO7ho3AMyvzMDjiYa7onSqGZL4
uWz2UqqqrQN610zsTXB1fsXQHSRnkpjGJrzThrd6MQIDAQABo4IBPTCCATkwCQYD
VR0TBAIwADAsBglghkgBhvhCAQ0EHxYdT3BlblNTTCBHZW5lcmF0ZWQgQ2VydGlm
aWNhdGUwHQYDVR0OBBYEFAwvEr7FgLtejnCoH9dMFFdXxr65MB8GA1UdIwQYMBaA
FJ6Lgg3llzRA9Mt+Wgw7ypH9WjFzMIG9BgNVHR8EgbUwgbIwOqA4oDaGNGh0dHA6
Ly9jbi11Y3NiLTEuZGF0YW9uZS5vcmcvY3JsL0RhdGFPTkVUZXN0X0NSTC5wZW0w
OaA3oDWGM2h0dHA6Ly9jbi11bm0tMS5kYXRhb25lLm9yZy9jcmwvRGF0YU9ORVRl
c3RfQ1JMLnBlbTA5oDegNYYzaHR0cDovL2NuLW9yYy0xLmRhdGFvbmUub3JnL2Ny
bC9EYXRhT05FVGVzdF9DUkwucGVtMA0GCSqGSIb3DQEBBQUAA4ICAQAkoXjav1NP
SLZyGht4lglS+ioz9kERpe+DoFRLnhppc2SKK8Ums6oLaceDMkBFii7+hHsskLtH
gsxUdkhxcx6TJETLBoFZ4OOq6cddYwFO/g0hDHgPGN0rfe5h6VUTuepmjtCA8Tp3
LJzJhgrurve8cZUglz4nvmURHPuE1SbYlW6Dd6LFie/B9xWx9Sf98aWmlfPjJhaO
fpMQEhxKo1yb5mZb/kuG+MbhTDxiYHoN8wcOffD9zWl8ky1RYhAjt5LS0xc5XRiS
g7iNhJgvExkyzzQye3k9lTArXQKRmU3SDZbs+ZYx0bYf70rFpg0d4CEhmOL8hnJJ
X31BMqlXSgPMiJ60Tv3rdOzaykxJ43uILZ+B3DxhT+JeWyBOfiRMu1H6TGq7s9EK
FtbgrTocchTw7ocXeDSbKPVOxPsbzJVLW+Eaej52CT4UJ4V3q8EJu6Q6QZSarTBw
evup0RYyQ4y90VMyQBG/MuVvfoqFnjfp4LG1c7QEPGdubA5HiQDwUBaJ7TBzt8Uc
klnBCleVpIR+zDekinc1vF3URFRmIej81kndIFdpbngBNf/ZACC+BOaikNd8eTxC
FexyxyU62vA9WP2KsT1f2vGXHJTLUrwxM2mQJqjlr/HZw2Y0K8dNHjyzIyWUCq+t
SVwt0bCGONuAsaiSduRulX0NTpoHY7fWZA==
-----END CERTIFICATE-----
