Certificate:
    Data:
        Version: 3 (0x2)
        Serial Number:
            da:32:63:a2:a1:2d:00:15
        Signature Algorithm: sha1WithRSAEncryption
        Issuer: dc=org/dc=dataone, CN=DataONE Test CA
        Validity
            Not Before: Mar 10 01:31:41 2012 GMT
            Not After : Mar 10 01:31:41 2015 GMT
        Subject: dc=org/dc=dataone, CN=urn:node:mnDevGMN
        Subject Public Key Info:
            Public Key Algorithm: rsaEncryption
                Public-Key: (2048 bit)
                Modulus:
                    00:d4:bb:16:a1:d6:46:66:86:64:d7:97:03:0b:a2:
                    be:40:68:70:61:74:aa:28:a8:b6:82:2a:60:ee:4b:
                    a9:22:a2:fb:22:37:36:c3:32:41:c7:db:b8:c7:a9:
                    92:3b:d1:d4:38:0d:e5:0b:45:70:5f:52:a6:86:71:
                    50:60:50:54:72:60:21:0a:a8:49:47:13:f4:77:ba:
                    cd:41:5d:8b:0d:27:27:69:6d:64:08:53:f7:b8:ea:
                    bd:8a:d9:e3:31:5a:9d:91:cb:a5:00:9e:23:0e:f3:
                    8c:9f:d1:1b:da:7e:69:49:6a:8e:bd:08:7e:44:fa:
                    50:20:80:ca:b4:e1:38:a7:ef:98:50:1d:56:32:48:
                    08:5e:1b:1b:88:cf:65:80:84:48:50:92:80:da:44:
                    4d:4e:11:36:ed:c5:45:55:a4:7d:36:73:79:76:bf:
                    cc:81:9a:ff:82:21:86:f8:cd:df:09:9d:f2:2c:25:
                    60:a0:3c:0a:01:9e:39:47:8e:da:05:b5:52:30:51:
                    75:91:3b:28:94:6d:5d:a1:a8:97:be:0e:58:11:eb:
                    71:b2:85:ee:d0:f1:e0:4b:f1:02:71:de:75:ec:5d:
                    cd:cc:3e:b1:5b:af:b4:d0:a1:47:e7:f4:00:18:0c:
                    a5:fe:7a:51:33:9a:59:34:b9:f4:c3:5a:e4:86:c9:
                    b3:49
                Exponent: 65537 (0x10001)
        X509v3 extensions:
            X509v3 Basic Constraints: 
                CA:FALSE
            Netscape Comment: 
                OpenSSL Generated Certificate
            X509v3 Subject Key Identifier: 
                A9:37:7E:7F:3C:EC:07:65:92:8B:AA:13:04:45:6D:F2:B6:5E:7A:EC
            X509v3 Authority Key Identifier: 
                keyid:9E:8B:82:0D:E5:97:34:40:F4:CB:7E:5A:0C:3B:CA:91:FD:5A:31:73

            X509v3 CRL Distribution Points: 

                Full Name:
                  URI:http://cn-ucsb-1.dataone.org/crl/DataONETest_CRL.pem

                Full Name:
                  URI:http://cn-unm-1.dataone.org/crl/DataONETest_CRL.pem

                Full Name:
                  URI:http://cn-orc-1.dataone.org/crl/DataONETest_CRL.pem

    Signature Algorithm: sha1WithRSAEncryption
        40:6f:06:ea:d2:f3:01:0f:0c:79:97:46:63:e5:0c:5e:88:e2:
        61:91:33:25:52:17:b5:73:0a:55:94:b7:ee:66:9b:6a:c0:1c:
        e2:ea:ec:7a:94:47:eb:f4:0b:69:cb:60:2b:23:2f:64:a4:b9:
        95:aa:b7:dc:ab:b1:c5:6d:6a:f1:a0:ad:a5:8d:e1:4d:e8:c2:
        33:b1:1d:01:12:af:d2:82:b1:95:d5:0d:e2:c1:32:17:98:b2:
        a9:61:ee:50:bd:f2:33:32:0d:ac:a7:ee:a8:b7:bc:3d:57:24:
        f0:43:c9:f8:35:09:2c:91:d1:3e:dd:2d:67:6c:91:fe:a5:60:
        f3:f7:b3:cd:a7:f6:b0:ae:1c:ac:74:0e:0b:cf:c8:40:b2:66:
        c9:3c:f3:1a:b2:38:29:59:b9:be:5c:e3:e9:30:2f:b4:ee:15:
        08:c1:da:f3:7e:c9:44:a3:73:21:ad:a0:6e:26:bd:d9:55:5d:
        68:30:49:89:47:32:a3:9d:49:72:4b:3a:4d:f8:ea:ee:75:b6:
        a6:20:34:25:2a:cc:63:21:a1:b4:3d:2d:2b:c7:81:bb:ce:92:
        2d:38:38:77:7a:2e:bb:a6:33:e7:66:09:58:43:3e:a3:70:bd:
        ad:89:56:fe:9f:51:93:4e:17:83:8a:4b:cf:e6:44:d2:4a:b9:
        c1:55:12:a8:0f:20:aa:d6:f1:d3:4a:38:5b:bd:f2:a7:ce:5f:
        51:46:85:6b:dc:a4:08:16:47:fc:06:c8:8e:18:30:f6:0f:d8:
        c4:11:d0:89:59:89:18:54:28:8e:3e:a2:d3:d2:26:37:69:85:
        e9:49:30:0c:87:c7:33:3a:9a:01:be:1b:7d:a4:c0:36:29:2a:
        3f:0e:4b:70:cc:87:42:5a:4a:c7:fe:89:65:4f:d8:47:5b:21:
        9d:20:6d:67:23:43:92:1a:46:d1:17:5e:b4:f2:05:a9:70:e8:
        b7:d4:6b:16:d2:08:ea:83:68:82:ca:fe:0f:50:a8:f8:c7:4d:
        de:d1:e7:38:54:3d:d9:a2:04:a2:ea:2d:46:de:0e:33:32:d0:
        3a:c7:e7:5a:1e:c9:e7:d9:9c:e3:bf:84:79:57:6f:61:70:c4:
        46:5a:45:de:9d:ed:6c:b2:44:fc:14:75:83:80:33:ee:71:64:
        0b:db:ed:f6:83:75:dd:d9:79:50:72:d1:d8:05:6c:68:a1:2f:
        8d:9b:81:47:63:10:b1:5e:e4:a1:16:f0:9b:25:d4:74:dd:71:
        c8:16:5d:2e:ae:85:39:62:d9:51:84:40:c1:6a:a0:e6:a3:bb:
        0d:30:b3:a2:a1:30:6f:03:3e:d8:1d:c1:fd:51:7b:a6:96:3c:
        15:d3:5a:d0:2a:f1:0d:6d
-----BEGIN CERTIFICATE-----
MIIFVDCCAzygAwIBAgIJANoyY6KhLQAVMA0GCSqGSIb3DQEBBQUAMEgxEzARBgoJ
kiaJk/IsZAEZFgNvcmcxFzAVBgoJkiaJk/IsZAEZFgdkYXRhb25lMRgwFgYDVQQD
DA9EYXRhT05FIFRlc3QgQ0EwHhcNMTIwMzEwMDEzMTQxWhcNMTUwMzEwMDEzMTQx
WjBKMRMwEQYKCZImiZPyLGQBGRYDb3JnMRcwFQYKCZImiZPyLGQBGRYHZGF0YW9u
ZTEaMBgGA1UEAwwRdXJuOm5vZGU6bW5EZXZHTU4wggEiMA0GCSqGSIb3DQEBAQUA
A4IBDwAwggEKAoIBAQDUuxah1kZmhmTXlwMLor5AaHBhdKooqLaCKmDuS6kiovsi
NzbDMkHH27jHqZI70dQ4DeULRXBfUqaGcVBgUFRyYCEKqElHE/R3us1BXYsNJydp
bWQIU/e46r2K2eMxWp2Ry6UAniMO84yf0RvafmlJao69CH5E+lAggMq04Tin75hQ
HVYySAheGxuIz2WAhEhQkoDaRE1OETbtxUVVpH02c3l2v8yBmv+CIYb4zd8JnfIs
JWCgPAoBnjlHjtoFtVIwUXWROyiUbV2hqJe+DlgR63Gyhe7Q8eBL8QJx3nXsXc3M
PrFbr7TQoUfn9AAYDKX+elEzmlk0ufTDWuSGybNJAgMBAAGjggE9MIIBOTAJBgNV
HRMEAjAAMCwGCWCGSAGG+EIBDQQfFh1PcGVuU1NMIEdlbmVyYXRlZCBDZXJ0aWZp
Y2F0ZTAdBgNVHQ4EFgQUqTd+fzzsB2WSi6oTBEVt8rZeeuwwHwYDVR0jBBgwFoAU
nouCDeWXNED0y35aDDvKkf1aMXMwgb0GA1UdHwSBtTCBsjA6oDigNoY0aHR0cDov
L2NuLXVjc2ItMS5kYXRhb25lLm9yZy9jcmwvRGF0YU9ORVRlc3RfQ1JMLnBlbTA5
oDegNYYzaHR0cDovL2NuLXVubS0xLmRhdGFvbmUub3JnL2NybC9EYXRhT05FVGVz
dF9DUkwucGVtMDmgN6A1hjNodHRwOi8vY24tb3JjLTEuZGF0YW9uZS5vcmcvY3Js
L0RhdGFPTkVUZXN0X0NSTC5wZW0wDQYJKoZIhvcNAQEFBQADggIBAEBvBurS8wEP
DHmXRmPlDF6I4mGRMyVSF7VzClWUt+5mm2rAHOLq7HqUR+v0C2nLYCsjL2SkuZWq
t9yrscVtavGgraWN4U3owjOxHQESr9KCsZXVDeLBMheYsqlh7lC98jMyDayn7qi3
vD1XJPBDyfg1CSyR0T7dLWdskf6lYPP3s82n9rCuHKx0DgvPyECyZsk88xqyOClZ
ub5c4+kwL7TuFQjB2vN+yUSjcyGtoG4mvdlVXWgwSYlHMqOdSXJLOk346u51tqYg
NCUqzGMhobQ9LSvHgbvOki04OHd6LrumM+dmCVhDPqNwva2JVv6fUZNOF4OKS8/m
RNJKucFVEqgPIKrW8dNKOFu98qfOX1FGhWvcpAgWR/wGyI4YMPYP2MQR0IlZiRhU
KI4+otPSJjdphelJMAyHxzM6mgG+G32kwDYpKj8OS3DMh0JaSsf+iWVP2EdbIZ0g
bWcjQ5IaRtEXXrTyBalw6LfUaxbSCOqDaILK/g9QqPjHTd7R5zhUPdmiBKLqLUbe
DjMy0DrH51oeyefZnOO/hHlXb2FwxEZaRd6d7WyyRPwUdYOAM+5xZAvb7faDdd3Z
eVBy0dgFbGihL42bgUdjELFe5KEW8Jsl1HTdccgWXS6uhTli2VGEQMFqoOajuw0w
s6KhMG8DPtgdwf1Re6aWPBXTWtAq8Q1t
-----END CERTIFICATE-----
