Certificate:
    Data:
        Version: 3 (0x2)
        Serial Number:
            da:32:63:a2:a1:2d:00:08
        Signature Algorithm: sha1WithRSAEncryption
        Issuer: dc=org/dc=dataone, CN=DataONE Test CA
        Validity
            Not Before: Mar 10 01:19:48 2012 GMT
            Not After : Mar 10 01:19:48 2015 GMT
        Subject: dc=org/dc=dataone, CN=urn:node:cnSandboxORC1
        Subject Public Key Info:
            Public Key Algorithm: rsaEncryption
                Public-Key: (2048 bit)
                Modulus:
                    00:e5:98:95:fd:5d:8d:a1:76:2f:84:17:05:ff:b9:
                    e3:a2:48:11:37:0c:36:35:b0:2f:bc:ee:97:39:80:
                    a7:2c:26:8e:25:c1:a1:50:31:00:00:5d:ae:61:7c:
                    bf:79:a0:77:eb:33:fd:c8:b4:66:c4:1b:76:cd:62:
                    d7:99:c6:ed:a9:a4:9f:8c:c8:67:2f:79:bc:92:a8:
                    d6:d2:bb:8b:cb:aa:4d:6a:37:ef:a7:d7:bc:4c:ac:
                    74:b6:a4:5e:1d:56:17:0d:87:4f:80:fd:ca:55:b3:
                    60:9c:a1:89:e4:26:bb:6f:f5:89:e5:4b:19:9b:6c:
                    f6:cb:47:05:10:65:59:12:b1:96:fb:70:eb:48:19:
                    24:c2:f5:55:94:b2:fa:89:ea:47:d4:fd:c7:07:fe:
                    fe:d8:ae:9d:93:a3:06:a7:39:74:38:97:35:e3:1f:
                    5b:97:b2:4b:23:5f:c9:b5:0d:b7:95:d6:f9:e7:a3:
                    66:a8:2f:58:03:ab:fb:d0:75:97:54:b0:f4:be:d4:
                    87:da:0f:8d:3d:1d:d3:90:4f:d1:12:36:b7:d5:db:
                    e3:85:00:6a:75:36:7e:07:77:0e:62:7d:b1:df:ff:
                    3e:83:43:a1:d2:38:96:ad:e6:ce:55:8b:7f:e8:62:
                    05:11:70:99:ff:3b:e6:00:98:3d:18:a3:c1:1f:6d:
                    fe:af
                Exponent: 65537 (0x10001)
        X509v3 extensions:
            X509v3 Basic Constraints: 
                CA:FALSE
            Netscape Comment: 
                OpenSSL Generated Certificate
            X509v3 Subject Key Identifier: 
                7F:88:B7:AB:6C:9D:F6:73:AB:55:E3:E3:03:E4:C8:F8:DB:54:F9:2B
            X509v3 Authority Key Identifier: 
                keyid:9E:8B:82:0D:E5:97:34:40:F4:CB:7E:5A:0C:3B:CA:91:FD:5A:31:73

            X509v3 CRL Distribution Points: 

                Full Name:
                  URI:http://cn-ucsb-1.dataone.org/crl/DataONETest_CRL.pem

                Full Name:
                  URI:http://cn-unm-1.dataone.org/crl/DataONETest_CRL.pem

                Full Name:
                  URI:http://cn-orc-1.dataone.org/crl/DataONETest_CRL.pem

    Signature Algorithm: sha1WithRSAEncryption
        0c:6c:a0:bb:92:60:8f:2c:29:7c:c6:f0:29:4d:c9:6b:4d:38:
        f9:62:84:ca:04:de:94:8f:14:b2:19:11:d2:52:b9:ea:da:f1:
        99:f8:f3:3c:68:81:94:0f:c4:fa:51:d1:bc:51:ac:0c:06:fb:
        72:f2:66:94:42:a5:a2:02:e5:a7:1b:47:7b:7f:c8:c1:55:be:
        75:d7:37:11:5b:cd:0a:76:9a:0a:d7:7e:31:d3:19:e6:88:05:
        f5:75:b6:d0:e3:ed:72:e1:7f:1f:2a:ba:e1:49:65:9c:6f:c0:
        6d:5a:b5:7c:6a:b8:5f:ba:3d:2a:ea:1f:3e:70:92:dc:90:2c:
        35:c2:98:41:35:7f:7a:40:13:83:75:35:ec:ac:76:64:e3:39:
        27:3d:06:12:33:1b:9c:2a:fd:52:7b:b0:39:63:63:8c:35:92:
        45:45:22:8d:a2:81:79:d5:0f:35:38:9e:9f:53:b5:5a:8a:b2:
        7c:7c:9b:14:cf:21:7c:6e:2f:24:f3:d7:33:f6:e0:11:de:14:
        3c:49:5b:c2:ac:b1:ec:b1:82:48:c1:64:57:e4:15:b6:2d:02:
        d1:8a:d9:81:61:13:c8:fb:f0:6e:4f:dd:46:18:fb:e5:99:f4:
        d5:f1:ca:2a:b9:59:f7:55:00:8e:1a:7d:2e:3b:bc:f7:08:08:
        cd:c9:5e:fc:f9:06:df:81:3f:d4:ac:32:57:1e:58:1d:c6:cc:
        ad:1d:73:a3:96:25:ed:ab:51:5f:36:ea:45:cc:e7:b7:61:c6:
        9b:a3:0a:99:05:f4:c4:e0:0d:62:33:16:8f:2f:56:26:c8:f2:
        79:0b:6c:65:e2:5f:71:24:0e:30:59:10:4d:37:34:3a:8e:e5:
        78:fa:76:a3:67:ac:9c:1b:98:59:f4:a2:06:45:8f:af:9d:87:
        33:7f:86:ab:90:4e:0b:34:38:f3:01:a9:28:c7:9a:bb:33:ad:
        5b:a3:ad:6e:fd:1e:3d:4c:04:bc:78:90:2b:54:b6:32:6a:f2:
        68:bc:68:a4:fb:85:c4:de:28:d0:df:10:e6:48:80:2c:bd:01:
        42:90:f7:b5:ca:2d:bc:b5:d2:72:e6:f3:a0:29:fe:bd:fd:02:
        db:b8:fc:ad:eb:4d:b6:16:f2:17:1c:1a:cd:a8:a2:90:20:43:
        bd:e5:a4:db:2c:48:d2:89:3a:2c:05:b5:cb:6e:56:a5:b0:e1:
        5f:27:7c:25:4e:b8:14:be:55:08:ec:5f:59:3b:ba:ce:82:48:
        3c:e7:09:33:2e:01:06:2f:36:bc:42:e5:e5:56:54:4d:e4:9d:
        0d:21:f8:de:13:75:97:98:15:d3:30:da:3e:d3:10:79:dd:43:
        b9:b4:d1:5e:bf:0a:65:1d
-----BEGIN CERTIFICATE-----
MIIFWTCCA0GgAwIBAgIJANoyY6KhLQAIMA0GCSqGSIb3DQEBBQUAMEgxEzARBgoJ
kiaJk/IsZAEZFgNvcmcxFzAVBgoJkiaJk/IsZAEZFgdkYXRhb25lMRgwFgYDVQQD
DA9EYXRhT05FIFRlc3QgQ0EwHhcNMTIwMzEwMDExOTQ4WhcNMTUwMzEwMDExOTQ4
WjBPMRMwEQYKCZImiZPyLGQBGRYDb3JnMRcwFQYKCZImiZPyLGQBGRYHZGF0YW9u
ZTEfMB0GA1UEAwwWdXJuOm5vZGU6Y25TYW5kYm94T1JDMTCCASIwDQYJKoZIhvcN
AQEBBQADggEPADCCAQoCggEBAOWYlf1djaF2L4QXBf+546JIETcMNjWwL7zulzmA
pywmjiXBoVAxAABdrmF8v3mgd+sz/ci0ZsQbds1i15nG7amkn4zIZy95vJKo1tK7
i8uqTWo376fXvEysdLakXh1WFw2HT4D9ylWzYJyhieQmu2/1ieVLGZts9stHBRBl
WRKxlvtw60gZJML1VZSy+onqR9T9xwf+/tiunZOjBqc5dDiXNeMfW5eySyNfybUN
t5XW+eejZqgvWAOr+9B1l1Sw9L7Uh9oPjT0d05BP0RI2t9Xb44UAanU2fgd3DmJ9
sd//PoNDodI4lq3mzlWLf+hiBRFwmf875gCYPRijwR9t/q8CAwEAAaOCAT0wggE5
MAkGA1UdEwQCMAAwLAYJYIZIAYb4QgENBB8WHU9wZW5TU0wgR2VuZXJhdGVkIENl
cnRpZmljYXRlMB0GA1UdDgQWBBR/iLerbJ32c6tV4+MD5Mj421T5KzAfBgNVHSME
GDAWgBSei4IN5Zc0QPTLfloMO8qR/VoxczCBvQYDVR0fBIG1MIGyMDqgOKA2hjRo
dHRwOi8vY24tdWNzYi0xLmRhdGFvbmUub3JnL2NybC9EYXRhT05FVGVzdF9DUkwu
cGVtMDmgN6A1hjNodHRwOi8vY24tdW5tLTEuZGF0YW9uZS5vcmcvY3JsL0RhdGFP
TkVUZXN0X0NSTC5wZW0wOaA3oDWGM2h0dHA6Ly9jbi1vcmMtMS5kYXRhb25lLm9y
Zy9jcmwvRGF0YU9ORVRlc3RfQ1JMLnBlbTANBgkqhkiG9w0BAQUFAAOCAgEADGyg
u5JgjywpfMbwKU3Ja004+WKEygTelI8UshkR0lK56trxmfjzPGiBlA/E+lHRvFGs
DAb7cvJmlEKlogLlpxtHe3/IwVW+ddc3EVvNCnaaCtd+MdMZ5ogF9XW20OPtcuF/
Hyq64UllnG/AbVq1fGq4X7o9KuofPnCS3JAsNcKYQTV/ekATg3U17Kx2ZOM5Jz0G
EjMbnCr9UnuwOWNjjDWSRUUijaKBedUPNTien1O1WoqyfHybFM8hfG4vJPPXM/bg
Ed4UPElbwqyx7LGCSMFkV+QVti0C0YrZgWETyPvwbk/dRhj75Zn01fHKKrlZ91UA
jhp9Lju89wgIzcle/PkG34E/1KwyVx5YHcbMrR1zo5Yl7atRXzbqRcznt2HGm6MK
mQX0xOANYjMWjy9WJsjyeQtsZeJfcSQOMFkQTTc0Oo7lePp2o2esnBuYWfSiBkWP
r52HM3+Gq5BOCzQ48wGpKMeauzOtW6Otbv0ePUwEvHiQK1S2MmryaLxopPuFxN4o
0N8Q5kiALL0BQpD3tcotvLXScubzoCn+vf0C27j8retNthbyFxwazaiikCBDveWk
2yxI0ok6LAW1y25WpbDhXyd8JU64FL5VCOxfWTu6zoJIPOcJMy4BBi82vELl5VZU
TeSdDSH43hN1l5gV0zDaPtMQed1DubTRXr8KZR0=
-----END CERTIFICATE-----
