Certificate:
    Data:
        Version: 3 (0x2)
        Serial Number:
            ac:ee:8c:a3:21:4d:a1:95
        Signature Algorithm: sha1WithRSAEncryption
        Issuer: dc=org/dc=dataone, CN=DataONE Root CA
        Validity
            Not Before: Mar  7 08:23:49 2012 GMT
            Not After : Feb 12 08:23:49 2112 GMT
        Subject: dc=org/dc=dataone, CN=DataONE Root CA
        Subject Public Key Info:
            Public Key Algorithm: rsaEncryption
                Public-Key: (4096 bit)
                Modulus:
                    00:bc:93:80:2a:52:77:42:54:0a:5b:87:5b:16:0c:
                    e2:59:43:89:cf:49:5a:b7:3f:2d:12:b3:cc:01:d8:
                    19:a7:29:cf:e7:8f:fd:bb:12:d1:48:ec:0d:84:5e:
                    d1:82:0f:f8:43:2e:4e:4a:dd:6c:bb:6d:91:72:ae:
                    df:3a:ca:3e:64:85:5c:dc:ef:1c:c7:82:e6:25:06:
                    a2:8c:b1:39:eb:1c:1d:eb:54:58:14:21:0c:b3:05:
                    4f:36:04:b9:4e:b5:c6:47:d4:69:74:99:b7:7b:01:
                    f8:43:60:27:5f:9b:01:66:c8:c3:bd:14:62:e8:ce:
                    b0:f7:5a:c6:59:a0:bb:95:0a:45:cb:42:8e:71:44:
                    21:4e:9b:95:e4:93:f3:10:9f:e4:52:b4:43:84:38:
                    47:b2:c0:11:d9:d1:e9:62:04:57:8c:b8:85:20:2f:
                    fe:cd:35:40:69:bc:47:5c:f4:17:d0:d4:5e:bc:d9:
                    e7:76:b2:ff:2f:78:17:03:f0:45:b0:2f:20:08:15:
                    c2:72:c2:40:39:e4:27:1c:e8:46:74:c6:ae:93:10:
                    b8:72:06:3f:80:2a:42:a9:7f:06:76:f3:82:b0:2e:
                    b8:e6:0d:9c:98:87:83:19:45:38:17:f8:ec:e5:1c:
                    81:c7:51:bb:53:a6:98:74:73:7b:bd:01:45:24:20:
                    ed:33:f9:5b:e0:a5:9f:96:32:2d:cf:23:5c:9b:fc:
                    7d:71:ce:b4:3e:c1:f5:2e:ee:74:1e:0a:eb:7f:12:
                    e5:77:f8:d2:13:c3:f8:1c:b5:d8:bd:49:67:66:3c:
                    c8:3f:86:25:eb:00:fe:dc:f0:a8:77:75:d2:49:ee:
                    59:d6:1d:2d:33:a3:ff:af:e4:06:bb:1c:7d:08:26:
                    03:d3:81:49:41:bc:6f:c9:d5:c5:4b:26:e1:66:3c:
                    fc:0c:48:32:98:fa:35:ac:bd:6c:60:2f:8d:7d:82:
                    2a:fc:8b:1e:ef:66:f1:3c:ee:f1:4f:3d:fb:13:ac:
                    47:21:85:f7:b5:f8:15:8b:02:6d:8f:0c:25:8f:77:
                    81:b0:a8:c8:a6:6f:4d:4b:d9:23:a7:99:d0:66:34:
                    a1:54:ca:eb:39:cd:0f:95:7a:c9:5f:b9:e4:b9:be:
                    06:cb:ea:2b:eb:b8:a2:96:79:13:b5:c7:8e:43:a7:
                    95:3c:4b:d0:6f:21:e0:e9:da:26:87:bf:e2:dd:71:
                    71:e4:e1:7f:c2:81:9d:cc:37:ad:73:17:c8:4d:82:
                    20:68:fd:39:10:eb:41:6d:53:4d:cd:8d:ae:77:70:
                    8d:c7:60:47:49:32:1d:ec:e4:02:8c:8f:13:dd:73:
                    74:89:49:4e:4c:0a:20:51:f0:ab:2c:be:b2:e2:93:
                    71:fd:3f
                Exponent: 65537 (0x10001)
        X509v3 extensions:
            X509v3 Subject Key Identifier: 
                C9:2C:CA:0F:93:3F:5E:CE:6C:B1:E1:7A:2E:5F:7B:31:24:18:29:EE
            X509v3 Authority Key Identifier: 
                keyid:C9:2C:CA:0F:93:3F:5E:CE:6C:B1:E1:7A:2E:5F:7B:31:24:18:29:EE

            X509v3 Basic Constraints: 
                CA:TRUE
            X509v3 CRL Distribution Points: 

                Full Name:
                  URI:http://cn-ucsb-1.dataone.org/crl/DataONERootCA_CRL.pem

                Full Name:
                  URI:http://cn-unm-1.dataone.org/crl/DataONERootCA_CRL.pem

                Full Name:
                  URI:http://cn-orc-1.dataone.org/crl/DataONERootCA_CRL.pem

    Signature Algorithm: sha1WithRSAEncryption
        b2:34:a5:04:ab:4c:62:dc:53:26:1a:ca:7a:fb:83:2b:f1:a0:
        6e:57:63:30:f9:1c:92:e8:9b:0e:11:6b:0a:89:7b:4f:3f:77:
        78:6b:3c:ee:11:7b:a1:5c:a9:e8:c8:22:a2:40:8d:7d:c9:57:
        ee:d3:23:9f:2a:b6:9e:24:e2:bc:d8:36:5e:58:3d:5e:4a:76:
        42:59:15:47:f5:a1:bc:c4:09:12:f4:a6:7b:2b:3d:c5:89:6d:
        27:0b:68:b7:22:f1:c2:ee:ae:fa:7f:cf:4d:79:88:18:d1:e9:
        6a:9e:bc:7d:38:b2:21:90:af:c7:00:0c:33:74:77:95:a6:e8:
        cc:6c:03:a4:51:f3:11:56:f4:c3:03:7d:21:65:81:c6:56:38:
        59:59:84:2f:54:6f:8a:5a:08:28:68:e6:26:11:b2:7c:a1:c8:
        07:76:30:38:83:d9:6a:54:af:a5:91:0a:b6:24:14:eb:c4:dc:
        be:06:9e:55:57:27:bf:63:3d:16:75:26:71:3d:72:c9:8d:a3:
        50:66:79:76:f0:83:82:09:ee:74:ed:65:70:c6:4e:c7:57:4b:
        a5:d5:b2:39:4e:c9:35:9c:90:85:3c:f9:2c:80:d0:44:7c:24:
        60:37:d2:83:e5:72:3a:5e:f3:f5:9c:4e:f5:30:86:db:13:85:
        f0:d1:82:f8:05:4d:9c:15:4e:17:de:87:d4:05:f4:98:ff:5f:
        66:99:84:f0:f6:90:20:11:aa:9e:9b:9b:ba:5b:4d:2e:a3:de:
        31:59:74:61:bd:4c:14:a0:d1:63:a0:c4:04:18:88:53:b9:1b:
        58:8b:85:18:7d:9f:0f:bc:24:cf:d0:d0:af:e4:81:3a:ee:f7:
        2e:76:7f:33:fd:8a:1b:ca:b3:31:79:08:56:1b:15:71:f8:38:
        fe:7e:d0:cf:f3:9a:08:62:35:b8:ac:d6:2b:b6:32:17:87:a9:
        32:7b:e6:e0:19:fb:4d:f2:33:6b:6e:d3:88:c2:30:f6:98:20:
        91:22:2e:83:f6:eb:cd:26:7a:6a:01:cd:01:27:04:5f:46:63:
        c7:b9:99:cb:70:ea:97:ec:43:31:86:b7:a9:65:2f:15:9d:78:
        b2:91:cb:4e:60:c6:23:b3:c5:0c:8c:38:fe:b6:52:c1:61:7e:
        02:a2:54:82:89:f3:be:dc:70:17:c7:24:03:9d:f1:77:4b:77:
        00:06:91:57:5d:d6:ae:2f:6f:0e:3c:ce:56:7a:89:70:b5:71:
        df:70:91:9d:49:bb:fb:9a:f9:4f:00:2e:93:d4:cd:dd:11:3f:
        c6:94:dd:5f:bb:b9:5e:c2:36:44:c1:04:72:93:b5:f1:05:5a:
        0b:51:42:e1:ac:ca:3c:6f
-----BEGIN CERTIFICATE-----
MIIGLzCCBBegAwIBAgIJAKzujKMhTaGVMA0GCSqGSIb3DQEBBQUAMEgxEzARBgoJ
kiaJk/IsZAEZFgNvcmcxFzAVBgoJkiaJk/IsZAEZFgdkYXRhb25lMRgwFgYDVQQD
DA9EYXRhT05FIFJvb3QgQ0EwIBcNMTIwMzA3MDgyMzQ5WhgPMjExMjAyMTIwODIz
NDlaMEgxEzARBgoJkiaJk/IsZAEZFgNvcmcxFzAVBgoJkiaJk/IsZAEZFgdkYXRh
b25lMRgwFgYDVQQDDA9EYXRhT05FIFJvb3QgQ0EwggIiMA0GCSqGSIb3DQEBAQUA
A4ICDwAwggIKAoICAQC8k4AqUndCVApbh1sWDOJZQ4nPSVq3Py0Ss8wB2BmnKc/n
j/27EtFI7A2EXtGCD/hDLk5K3Wy7bZFyrt86yj5khVzc7xzHguYlBqKMsTnrHB3r
VFgUIQyzBU82BLlOtcZH1Gl0mbd7AfhDYCdfmwFmyMO9FGLozrD3WsZZoLuVCkXL
Qo5xRCFOm5Xkk/MQn+RStEOEOEeywBHZ0eliBFeMuIUgL/7NNUBpvEdc9BfQ1F68
2ed2sv8veBcD8EWwLyAIFcJywkA55Ccc6EZ0xq6TELhyBj+AKkKpfwZ284KwLrjm
DZyYh4MZRTgX+OzlHIHHUbtTpph0c3u9AUUkIO0z+VvgpZ+WMi3PI1yb/H1xzrQ+
wfUu7nQeCut/EuV3+NITw/gctdi9SWdmPMg/hiXrAP7c8Kh3ddJJ7lnWHS0zo/+v
5Aa7HH0IJgPTgUlBvG/J1cVLJuFmPPwMSDKY+jWsvWxgL419gir8ix7vZvE87vFP
PfsTrEchhfe1+BWLAm2PDCWPd4GwqMimb01L2SOnmdBmNKFUyus5zQ+VeslfueS5
vgbL6ivruKKWeRO1x45Dp5U8S9BvIeDp2iaHv+LdcXHk4X/CgZ3MN61zF8hNgiBo
/TkQ60FtU03Nja53cI3HYEdJMh3s5AKMjxPdc3SJSU5MCiBR8KssvrLik3H9PwID
AQABo4IBGDCCARQwHQYDVR0OBBYEFMksyg+TP17ObLHhei5fezEkGCnuMB8GA1Ud
IwQYMBaAFMksyg+TP17ObLHhei5fezEkGCnuMAwGA1UdEwQFMAMBAf8wgcMGA1Ud
HwSBuzCBuDA8oDqgOIY2aHR0cDovL2NuLXVjc2ItMS5kYXRhb25lLm9yZy9jcmwv
RGF0YU9ORVJvb3RDQV9DUkwucGVtMDugOaA3hjVodHRwOi8vY24tdW5tLTEuZGF0
YW9uZS5vcmcvY3JsL0RhdGFPTkVSb290Q0FfQ1JMLnBlbTA7oDmgN4Y1aHR0cDov
L2NuLW9yYy0xLmRhdGFvbmUub3JnL2NybC9EYXRhT05FUm9vdENBX0NSTC5wZW0w
DQYJKoZIhvcNAQEFBQADggIBALI0pQSrTGLcUyYaynr7gyvxoG5XYzD5HJLomw4R
awqJe08/d3hrPO4Re6FcqejIIqJAjX3JV+7TI58qtp4k4rzYNl5YPV5KdkJZFUf1
obzECRL0pnsrPcWJbScLaLci8cLurvp/z015iBjR6WqevH04siGQr8cADDN0d5Wm
6MxsA6RR8xFW9MMDfSFlgcZWOFlZhC9Ub4paCCho5iYRsnyhyAd2MDiD2WpUr6WR
CrYkFOvE3L4GnlVXJ79jPRZ1JnE9csmNo1BmeXbwg4IJ7nTtZXDGTsdXS6XVsjlO
yTWckIU8+SyA0ER8JGA30oPlcjpe8/WcTvUwhtsThfDRgvgFTZwVThfeh9QF9Jj/
X2aZhPD2kCARqp6bm7pbTS6j3jFZdGG9TBSg0WOgxAQYiFO5G1iLhRh9nw+8JM/Q
0K/kgTru9y52fzP9ihvKszF5CFYbFXH4OP5+0M/zmghiNbis1iu2MheHqTJ75uAZ
+03yM2tu04jCMPaYIJEiLoP2680memoBzQEnBF9GY8e5mctw6pfsQzGGt6llLxWd
eLKRy05gxiOzxQyMOP62UsFhfgKiVIKJ877ccBfHJAOd8XdLdwAGkVdd1q4vbw48
zlZ6iXC1cd9wkZ1Ju/ua+U8ALpPUzd0RP8aU3V+7uV7CNkTBBHKTtfEFWgtRQuGs
yjxv
-----END CERTIFICATE-----
