Certificate:
    Data:
        Version: 3 (0x2)
        Serial Number:
            3b:67:17:07:f2:51:59:b0:17:c9:76:30:cb:45:96:20:83:dd:28:5e
        Signature Algorithm: sha256WithRSAEncryption
        Issuer: DC=org, DC=dataone, CN=DataONE Test 256 CA
        Validity
            Not Before: Nov  9 06:10:54 2023 GMT
            Not After : Oct 16 06:10:54 2123 GMT
        Subject: DC=org, DC=dataone, CN=DataONE Test 256 CA
        Subject Public Key Info:
            Public Key Algorithm: rsaEncryption
                Public-Key: (4096 bit)
                Modulus:
                    00:b7:e6:98:b6:33:f0:dc:32:bb:17:15:97:28:41:
                    e6:c6:a3:7b:bb:56:76:53:70:07:1a:14:e7:cc:b2:
                    47:0d:2e:c3:45:63:da:10:da:df:fa:db:af:d4:82:
                    20:d9:fc:4e:21:0e:c1:7b:63:44:f0:53:68:36:61:
                    d4:e6:26:06:5f:b2:7f:5f:08:6a:50:cd:e9:33:b8:
                    60:95:bf:63:19:57:a7:a1:aa:6b:64:98:ea:61:90:
                    00:66:08:83:54:6e:0b:e3:be:74:45:79:d7:a4:1a:
                    ac:42:b3:74:21:f5:63:91:11:af:45:03:09:d5:e5:
                    7e:5f:b8:06:6d:49:5e:8f:51:b4:7c:b2:29:fa:cf:
                    ee:3c:ed:4c:e0:a5:48:38:c7:c4:c0:9d:9e:32:d2:
                    99:20:9a:bc:73:17:8a:06:75:81:6e:25:3c:d7:71:
                    40:45:27:55:30:9d:8d:d6:ab:16:6e:1f:53:af:29:
                    33:d5:06:ad:7c:9f:6b:99:1c:ab:fe:d3:dc:db:77:
                    f5:1d:07:bc:e8:ff:94:43:76:35:5e:90:1c:0a:68:
                    b0:15:2c:8c:cf:3d:47:23:62:1c:a0:b6:0b:8f:66:
                    f7:b4:68:6a:36:49:89:c3:c8:ee:5d:d6:17:20:89:
                    53:4b:03:fb:c1:69:ba:00:ea:ea:25:cb:05:dc:98:
                    fa:8b:64:6b:05:f8:95:58:8e:3e:a6:37:1a:de:2d:
                    7d:b3:5c:16:95:42:47:9c:f5:17:85:c5:6b:11:7e:
                    c0:72:f9:74:5c:b5:bb:d7:72:4e:9d:4c:bd:da:d5:
                    e5:8d:31:03:ac:a9:94:65:bb:30:e8:2a:66:4f:c5:
                    da:06:33:1a:96:c5:0a:97:3b:4e:b6:c5:b5:37:eb:
                    07:11:0a:77:8f:24:b7:eb:f7:a3:38:b3:4f:2b:b8:
                    21:d0:5e:65:17:25:9e:d4:e6:bc:db:17:44:31:e4:
                    11:e5:d6:c6:ed:e8:d6:8b:04:89:1a:51:2b:3e:be:
                    34:73:ee:ef:94:e9:ef:fb:86:3b:4c:8d:20:75:3f:
                    96:5b:11:cc:2a:07:4d:77:e1:98:bb:af:2c:24:45:
                    0c:6e:2a:a9:34:56:1a:3a:60:6e:29:81:60:56:d3:
                    3e:b5:53:79:0d:36:db:c2:2d:1b:2c:c4:72:f6:fc:
                    23:63:13:1f:be:23:39:ed:84:f5:3e:77:63:f2:e3:
                    2d:26:f6:fe:4b:61:1a:ee:4b:a8:94:ca:08:0c:f1:
                    d7:71:76:04:0e:a0:cc:08:34:5a:a3:e3:a3:8b:97:
                    d6:c8:5d:b8:71:5b:15:af:9f:f0:c7:e2:6d:b8:47:
                    fe:18:9c:de:f0:49:d7:ba:e1:02:ac:7e:ab:ab:08:
                    a1:3a:c1
                Exponent: 65537 (0x10001)
        X509v3 extensions:
            X509v3 Subject Key Identifier: 
                42:55:08:AD:66:25:B4:BE:27:90:53:61:45:A2:35:6C:B9:FF:CA:B4
            X509v3 Authority Key Identifier: 
                42:55:08:AD:66:25:B4:BE:27:90:53:61:45:A2:35:6C:B9:FF:CA:B4
            X509v3 Basic Constraints: 
                CA:TRUE
            X509v3 CRL Distribution Points: 
                Full Name:
                  URI:http://releases.dataone.org/crl/DataONETest256CA_CRL.pem
                Full Name:
                  URI:http://cn-ucsb-1.dataone.org/crl/DataONETest256CA_CRL.pem
                Full Name:
                  URI:http://cn-orc-1.dataone.org/crl/DataONETest256CA_CRL.pem
    Signature Algorithm: sha256WithRSAEncryption
    Signature Value:
        35:36:5d:a2:c0:6e:3e:8d:02:40:6d:9d:5b:0f:6e:92:66:c3:
        b6:54:19:00:58:ce:1b:78:47:10:24:e8:6c:56:13:ff:32:1e:
        ac:58:47:8a:69:6e:ee:74:39:ad:dd:24:f1:b8:2c:d1:ae:04:
        e4:49:78:58:9d:eb:46:a8:18:1a:11:3c:9a:c8:60:4b:0a:ef:
        fd:17:ef:43:9c:90:63:3c:91:5f:20:ac:ad:12:20:3b:d6:df:
        9e:cf:b5:5f:44:3b:28:c0:d9:ea:19:99:1b:f9:28:28:73:a3:
        32:8f:ae:ac:1c:1c:36:31:bd:cc:6c:45:f1:d6:5d:f8:e1:f2:
        f6:cb:23:f1:22:77:99:bc:cc:2d:59:6f:fb:ac:37:ae:3b:07:
        88:34:09:a0:d7:90:4c:65:77:d2:9a:55:10:14:8c:82:03:0c:
        85:c8:b5:3f:d4:a2:de:2b:c9:15:71:79:ea:c5:d8:5f:23:bb:
        98:d4:45:b4:34:36:8e:17:5f:86:85:a3:32:75:0d:d1:43:ce:
        45:4f:c1:c4:73:21:38:05:27:2b:b3:8b:99:89:db:66:ea:0c:
        69:d4:4c:8e:43:a5:7f:a2:a7:bf:b0:79:b5:29:24:fb:3f:5d:
        7c:a1:9c:79:f9:5f:de:6b:ff:53:8b:27:38:03:4b:4c:a0:2e:
        a1:87:87:bb:fb:46:7b:c6:2d:f4:3e:25:47:42:0e:05:64:6f:
        4b:22:4b:8b:fa:db:56:1f:56:ef:0f:ed:52:c9:f6:4e:f8:a7:
        9e:a1:80:a4:13:45:da:39:b4:cb:4e:4b:a6:fd:4c:2b:48:58:
        c2:5b:f1:be:86:91:6f:8b:ee:5f:38:d7:92:83:dc:63:ab:74:
        c5:c7:df:21:ba:46:6a:b4:1e:f8:97:2d:44:a7:db:36:e0:30:
        3d:2d:7d:6e:7b:0f:77:82:2e:26:4b:6f:b1:e3:64:65:b7:24:
        f2:43:df:2e:4d:9d:2d:ae:28:88:61:fc:2d:e1:ce:c5:e1:84:
        15:2e:fd:af:63:4c:2c:6f:a7:92:52:04:ea:5d:cf:9a:a9:fd:
        e0:7e:23:eb:2a:09:52:e2:f5:30:90:89:a6:b2:75:73:7b:77:
        15:d6:27:ed:74:c1:0f:3a:c1:65:40:d8:80:59:45:09:27:d3:
        c1:f5:af:31:a8:c7:82:05:0d:87:73:18:d6:18:47:32:ca:dc:
        c7:01:ab:cd:0a:7f:3d:80:e4:63:1d:6d:23:44:8d:4d:99:f7:
        6f:73:bc:4f:bf:e4:78:a5:01:ae:f1:41:67:5e:a9:8b:95:b5:
        16:3e:56:4a:6f:2a:9f:42:f7:06:e3:9a:ef:96:08:24:fa:0e:
        20:e3:14:2e:13:4f:dd:5c
-----BEGIN CERTIFICATE-----
MIIGSzCCBDOgAwIBAgIUO2cXB/JRWbAXyXYwy0WWIIPdKF4wDQYJKoZIhvcNAQEL
BQAwTDETMBEGCgmSJomT8ixkARkWA29yZzEXMBUGCgmSJomT8ixkARkWB2RhdGFv
bmUxHDAaBgNVBAMME0RhdGFPTkUgVGVzdCAyNTYgQ0EwIBcNMjMxMTA5MDYxMDU0
WhgPMjEyMzEwMTYwNjEwNTRaMEwxEzARBgoJkiaJk/IsZAEZFgNvcmcxFzAVBgoJ
kiaJk/IsZAEZFgdkYXRhb25lMRwwGgYDVQQDDBNEYXRhT05FIFRlc3QgMjU2IENB
MIICIjANBgkqhkiG9w0BAQEFAAOCAg8AMIICCgKCAgEAt+aYtjPw3DK7FxWXKEHm
xqN7u1Z2U3AHGhTnzLJHDS7DRWPaENrf+tuv1IIg2fxOIQ7Be2NE8FNoNmHU5iYG
X7J/XwhqUM3pM7hglb9jGVenoaprZJjqYZAAZgiDVG4L4750RXnXpBqsQrN0IfVj
kRGvRQMJ1eV+X7gGbUlej1G0fLIp+s/uPO1M4KVIOMfEwJ2eMtKZIJq8cxeKBnWB
biU813FARSdVMJ2N1qsWbh9Trykz1QatfJ9rmRyr/tPc23f1HQe86P+UQ3Y1XpAc
CmiwFSyMzz1HI2IcoLYLj2b3tGhqNkmJw8juXdYXIIlTSwP7wWm6AOrqJcsF3Jj6
i2RrBfiVWI4+pjca3i19s1wWlUJHnPUXhcVrEX7Acvl0XLW713JOnUy92tXljTED
rKmUZbsw6CpmT8XaBjMalsUKlztOtsW1N+sHEQp3jyS36/ejOLNPK7gh0F5lFyWe
1Oa82xdEMeQR5dbG7ejWiwSJGlErPr40c+7vlOnv+4Y7TI0gdT+WWxHMKgdNd+GY
u68sJEUMbiqpNFYaOmBuKYFgVtM+tVN5DTbbwi0bLMRy9vwjYxMfviM57YT1Pndj
8uMtJvb+S2Ea7kuolMoIDPHXcXYEDqDMCDRao+Oji5fWyF24cVsVr5/wx+JtuEf+
GJze8EnXuuECrH6rqwihOsECAwEAAaOCASEwggEdMB0GA1UdDgQWBBRCVQitZiW0
vieQU2FFojVsuf/KtDAfBgNVHSMEGDAWgBRCVQitZiW0vieQU2FFojVsuf/KtDAM
BgNVHRMEBTADAQH/MIHMBgNVHR8EgcQwgcEwPqA8oDqGOGh0dHA6Ly9yZWxlYXNl
cy5kYXRhb25lLm9yZy9jcmwvRGF0YU9ORVRlc3QyNTZDQV9DUkwucGVtMD+gPaA7
hjlodHRwOi8vY24tdWNzYi0xLmRhdGFvbmUub3JnL2NybC9EYXRhT05FVGVzdDI1
NkNBX0NSTC5wZW0wPqA8oDqGOGh0dHA6Ly9jbi1vcmMtMS5kYXRhb25lLm9yZy9j
cmwvRGF0YU9ORVRlc3QyNTZDQV9DUkwucGVtMA0GCSqGSIb3DQEBCwUAA4ICAQA1
Nl2iwG4+jQJAbZ1bD26SZsO2VBkAWM4beEcQJOhsVhP/Mh6sWEeKaW7udDmt3STx
uCzRrgTkSXhYnetGqBgaETyayGBLCu/9F+9DnJBjPJFfIKytEiA71t+ez7VfRDso
wNnqGZkb+Sgoc6Myj66sHBw2Mb3MbEXx1l344fL2yyPxIneZvMwtWW/7rDeuOweI
NAmg15BMZXfSmlUQFIyCAwyFyLU/1KLeK8kVcXnqxdhfI7uY1EW0NDaOF1+GhaMy
dQ3RQ85FT8HEcyE4BScrs4uZidtm6gxp1EyOQ6V/oqe/sHm1KST7P118oZx5+V/e
a/9Tiyc4A0tMoC6hh4e7+0Z7xi30PiVHQg4FZG9LIkuL+ttWH1bvD+1SyfZO+Kee
oYCkE0XaObTLTkum/UwrSFjCW/G+hpFvi+5fONeSg9xjq3TFx98hukZqtB74ly1E
p9s24DA9LX1uew93gi4mS2+x42RltyTyQ98uTZ0triiIYfwt4c7F4YQVLv2vY0ws
b6eSUgTqXc+aqf3gfiPrKglS4vUwkImmsnVze3cV1iftdMEPOsFlQNiAWUUJJ9PB
9a8xqMeCBQ2HcxjWGEcyytzHAavNCn89gORjHW0jRI1Nmfdvc7xPv+R4pQGu8UFn
XqmLlbUWPlZKbyqfQvcG45rvlggk+g4g4xQuE0/dXA==
-----END CERTIFICATE-----
