Certificate:
    Data:
        Version: 3 (0x2)
        Serial Number:
            3b:67:17:07:f2:51:59:b0:17:c9:76:30:cb:45:96:20:83:dd:28:61
        Signature Algorithm: sha256WithRSAEncryption
        Issuer: DC=org, DC=dataone, CN=DataONE Test Root CA
        Validity
            Not Before: Jan 22 21:42:07 2024 GMT
            Not After : Dec 29 21:42:07 2123 GMT
        Subject: DC=org, DC=dataone, CN=DataONE Test Intermediate CA
        Subject Public Key Info:
            Public Key Algorithm: rsaEncryption
                Public-Key: (4096 bit)
                Modulus:
                    00:c9:f7:9b:6e:e4:13:8c:31:d4:57:4e:b5:08:87:
                    09:70:01:c2:15:e5:0f:c2:53:19:d5:1a:d4:84:4e:
                    46:aa:5a:ce:63:76:6d:cb:ff:69:61:bf:14:f8:7d:
                    e6:76:40:05:55:be:6a:75:e2:1d:6b:62:83:8d:24:
                    1e:2d:66:7b:0f:a7:62:27:85:5d:48:f2:e3:4e:27:
                    2c:e7:66:b2:9f:90:2f:e9:f9:8b:6c:4d:ae:9c:8e:
                    04:ac:e9:72:17:b1:56:53:21:6f:e0:e4:64:9e:ce:
                    41:43:8a:39:1b:b3:59:e2:18:34:03:5c:11:28:ac:
                    bc:c3:88:d2:5e:7a:cb:4b:d3:82:7d:d1:99:70:56:
                    fa:89:01:7c:48:3a:d0:da:ac:e1:6e:2d:1e:4c:fc:
                    bd:c9:26:3c:38:db:48:f3:30:d9:1c:51:5f:26:1f:
                    4f:9b:61:5a:66:d7:f3:44:7b:82:04:88:53:61:e3:
                    e4:0a:6b:a6:65:06:e0:30:ee:a2:d4:23:2b:6c:f9:
                    87:3b:92:2f:65:23:2b:ef:a2:c3:96:89:60:37:22:
                    96:74:b2:ba:a5:fc:5d:48:8f:be:4a:3c:d9:88:89:
                    0a:70:46:fc:48:f0:11:63:3a:46:42:32:05:2e:50:
                    bc:30:bd:b4:9c:1f:86:74:c3:e0:e7:d3:5a:e1:63:
                    0f:44:df:b2:67:01:a2:bb:5a:f7:18:88:d9:15:66:
                    05:37:14:22:b9:3e:f3:45:bf:8c:5a:ba:2a:9d:2a:
                    ce:9e:db:05:b7:54:20:a9:17:f7:73:fb:ad:de:1b:
                    e2:1e:d0:3b:3a:08:78:4a:65:df:62:ab:8e:4f:63:
                    2a:a8:5f:3a:bf:0b:b2:b6:fe:ff:de:e5:61:6e:f2:
                    7a:80:f4:14:09:5c:c6:8b:a7:07:43:24:91:4b:19:
                    4f:62:22:d6:7b:fc:3b:e4:32:40:80:48:70:9d:b2:
                    91:4b:08:e0:df:97:d9:30:78:73:48:f7:68:22:d0:
                    1e:dd:b9:51:b0:66:91:4e:cc:a1:17:e6:da:ad:d9:
                    54:fe:a9:cf:2c:c7:8e:23:6e:2e:cb:01:27:54:e3:
                    e2:fe:9e:71:27:19:59:95:52:68:53:e4:79:66:5e:
                    28:87:fc:cf:6e:83:62:87:d1:b0:b2:c5:11:9b:35:
                    d8:1c:a2:92:26:26:e5:89:94:8d:6e:3e:54:0f:76:
                    74:10:47:06:7c:c4:a7:4f:f5:e0:dc:5e:42:f8:7f:
                    94:4f:f9:f9:b1:29:29:a7:f7:a1:b8:0b:42:c2:10:
                    6a:cb:94:cd:57:d4:44:f6:a3:97:64:2c:19:34:25:
                    12:34:08:83:73:2e:01:36:72:3c:e4:04:bf:a3:90:
                    2a:1e:13
                Exponent: 65537 (0x10001)
        X509v3 extensions:
            X509v3 Subject Key Identifier: 
                EF:2E:C1:27:6C:2A:8A:09:AB:6C:C3:45:7F:3B:F9:57:D5:16:A9:B3
            X509v3 Authority Key Identifier: 
                F5:0C:64:8D:04:54:C1:16:0A:E2:42:EC:EE:67:9E:73:92:66:40:8E
            X509v3 Basic Constraints: 
                CA:TRUE
            X509v3 CRL Distribution Points: 
                Full Name:
                  URI:http://releases.dataone.org/crl/DataONETestRootCA_CRL.pem
                Full Name:
                  URI:http://cn-ucsb-1.dataone.org/crl/DataONETestRootCA_CRL.pem
                Full Name:
                  URI:http://cn-orc-1.dataone.org/crl/DataONETestRootCA_CRL.pem
    Signature Algorithm: sha256WithRSAEncryption
    Signature Value:
        24:fc:37:c4:f1:76:51:60:cc:37:00:79:40:b3:ca:9c:35:56:
        13:c8:10:c0:66:bd:58:14:99:b6:65:9e:78:f6:25:41:18:f4:
        00:fb:04:a3:40:0d:27:ce:47:aa:88:a3:2d:08:c9:07:fa:3e:
        19:be:4c:c9:d3:91:08:f8:60:d0:63:0a:d4:b6:b0:4e:6c:e2:
        3f:b1:98:76:37:5a:8c:7d:c6:67:0e:3c:4b:77:d2:3a:e8:61:
        91:06:b3:57:d4:15:bb:3f:1c:ce:ed:a9:86:37:70:26:74:db:
        ab:6d:ad:d1:a6:0d:0b:e1:5c:1b:7f:85:ad:55:83:9a:9b:8d:
        6f:fd:2e:e6:6a:74:38:88:a7:ef:59:5f:b0:e9:fb:95:4b:dd:
        14:55:7d:2d:0c:da:6b:1e:2a:d1:08:f3:f7:f1:c7:af:2b:35:
        47:5a:1c:29:45:ed:d4:71:7a:6b:e8:4f:7b:32:1f:8b:e5:c1:
        e1:bd:7e:1a:bc:25:87:eb:cc:8f:db:80:74:5b:22:da:fc:b8:
        65:e5:44:3f:1f:90:61:00:38:08:8b:4c:d9:f1:eb:b1:d1:1b:
        3c:86:63:9d:e2:fd:92:b7:5e:09:db:91:d1:b3:84:f8:5c:0b:
        f3:b5:0c:ef:62:89:59:1a:1a:64:85:cc:10:d2:74:e7:03:c4:
        51:b9:f9:21:a0:da:d6:46:aa:08:fb:26:d7:f9:07:ea:02:ba:
        30:01:e1:2b:fd:cc:1a:48:47:0c:f5:dd:cf:af:36:cc:92:f9:
        ed:2a:9c:0b:ac:b3:c4:17:b2:44:1e:de:5e:03:ca:1a:87:bd:
        28:6a:ee:cd:3a:1e:56:2a:3c:d7:a5:f5:40:29:f1:d4:5c:f6:
        f0:6f:fc:b5:16:f0:79:bf:25:3a:3c:73:a4:84:d7:a0:15:bd:
        2d:be:91:eb:25:26:b8:0d:bc:5d:29:59:59:ee:b8:ba:25:8d:
        90:36:25:da:89:f3:9f:00:b7:bd:99:66:7c:9c:58:f5:91:64:
        ca:52:1c:5a:2f:77:de:ec:e9:66:90:9d:19:b9:28:56:9a:c9:
        76:a1:39:c8:b1:43:9e:40:a4:ce:8e:6b:2e:37:38:7a:e8:78:
        93:15:07:95:98:97:12:a4:8b:13:64:dd:fe:34:07:41:d3:4e:
        b4:d6:5d:5c:d6:1c:de:7d:09:4b:ed:85:b4:81:33:3f:0f:e8:
        2e:19:27:cd:86:12:4d:83:33:7e:e4:9b:cb:1e:80:c9:92:93:
        cc:e3:cd:d5:de:eb:9b:ca:e9:81:71:99:78:a7:88:08:34:06:
        20:44:ef:9a:cd:ce:9c:96:81:40:e9:4c:0c:82:64:48:ea:d5:
        36:ca:37:fd:fe:21:a7:c7
-----BEGIN CERTIFICATE-----
MIIGWDCCBECgAwIBAgIUO2cXB/JRWbAXyXYwy0WWIIPdKGEwDQYJKoZIhvcNAQEL
BQAwTTETMBEGCgmSJomT8ixkARkWA29yZzEXMBUGCgmSJomT8ixkARkWB2RhdGFv
bmUxHTAbBgNVBAMMFERhdGFPTkUgVGVzdCBSb290IENBMCAXDTI0MDEyMjIxNDIw
N1oYDzIxMjMxMjI5MjE0MjA3WjBVMRMwEQYKCZImiZPyLGQBGRYDb3JnMRcwFQYK
CZImiZPyLGQBGRYHZGF0YW9uZTElMCMGA1UEAwwcRGF0YU9ORSBUZXN0IEludGVy
bWVkaWF0ZSBDQTCCAiIwDQYJKoZIhvcNAQEBBQADggIPADCCAgoCggIBAMn3m27k
E4wx1FdOtQiHCXABwhXlD8JTGdUa1IRORqpazmN2bcv/aWG/FPh95nZABVW+anXi
HWtig40kHi1mew+nYieFXUjy404nLOdmsp+QL+n5i2xNrpyOBKzpchexVlMhb+Dk
ZJ7OQUOKORuzWeIYNANcESisvMOI0l56y0vTgn3RmXBW+okBfEg60Nqs4W4tHkz8
vckmPDjbSPMw2RxRXyYfT5thWmbX80R7ggSIU2Hj5AprpmUG4DDuotQjK2z5hzuS
L2UjK++iw5aJYDcilnSyuqX8XUiPvko82YiJCnBG/EjwEWM6RkIyBS5QvDC9tJwf
hnTD4OfTWuFjD0TfsmcBorta9xiI2RVmBTcUIrk+80W/jFq6Kp0qzp7bBbdUIKkX
93P7rd4b4h7QOzoIeEpl32Krjk9jKqhfOr8Lsrb+/97lYW7yeoD0FAlcxounB0Mk
kUsZT2Ii1nv8O+QyQIBIcJ2ykUsI4N+X2TB4c0j3aCLQHt25UbBmkU7MoRfm2q3Z
VP6pzyzHjiNuLssBJ1Tj4v6ecScZWZVSaFPkeWZeKIf8z26DYofRsLLFEZs12Byi
kiYm5YmUjW4+VA92dBBHBnzEp0/14NxeQvh/lE/5+bEpKaf3obgLQsIQasuUzVfU
RPajl2QsGTQlEjQIg3MuATZyPOQEv6OQKh4TAgMBAAGjggEkMIIBIDAdBgNVHQ4E
FgQU7y7BJ2wqigmrbMNFfzv5V9UWqbMwHwYDVR0jBBgwFoAU9QxkjQRUwRYK4kLs
7meec5JmQI4wDAYDVR0TBAUwAwEB/zCBzwYDVR0fBIHHMIHEMD+gPaA7hjlodHRw
Oi8vcmVsZWFzZXMuZGF0YW9uZS5vcmcvY3JsL0RhdGFPTkVUZXN0Um9vdENBX0NS
TC5wZW0wQKA+oDyGOmh0dHA6Ly9jbi11Y3NiLTEuZGF0YW9uZS5vcmcvY3JsL0Rh
dGFPTkVUZXN0Um9vdENBX0NSTC5wZW0wP6A9oDuGOWh0dHA6Ly9jbi1vcmMtMS5k
YXRhb25lLm9yZy9jcmwvRGF0YU9ORVRlc3RSb290Q0FfQ1JMLnBlbTANBgkqhkiG
9w0BAQsFAAOCAgEAJPw3xPF2UWDMNwB5QLPKnDVWE8gQwGa9WBSZtmWeePYlQRj0
APsEo0ANJ85HqoijLQjJB/o+Gb5MydORCPhg0GMK1LawTmziP7GYdjdajH3GZw48
S3fSOuhhkQazV9QVuz8czu2phjdwJnTbq22t0aYNC+FcG3+FrVWDmpuNb/0u5mp0
OIin71lfsOn7lUvdFFV9LQzaax4q0Qjz9/HHrys1R1ocKUXt1HF6a+hPezIfi+XB
4b1+Grwlh+vMj9uAdFsi2vy4ZeVEPx+QYQA4CItM2fHrsdEbPIZjneL9krdeCduR
0bOE+FwL87UM72KJWRoaZIXMENJ05wPEUbn5IaDa1kaqCPsm1/kH6gK6MAHhK/3M
GkhHDPXdz682zJL57SqcC6yzxBeyRB7eXgPKGoe9KGruzToeVio816X1QCnx1Fz2
8G/8tRbweb8lOjxzpITXoBW9Lb6R6yUmuA28XSlZWe64uiWNkDYl2onznwC3vZlm
fJxY9ZFkylIcWi933uzpZpCdGbkoVprJdqE5yLFDnkCkzo5rLjc4euh4kxUHlZiX
EqSLE2Td/jQHQdNOtNZdXNYc3n0JS+2FtIEzPw/oLhknzYYSTYMzfuSbyx6AyZKT
zOPN1d7rm8rpgXGZeKeICDQGIETvms3OnJaBQOlMDIJkSOrVNso3/f4hp8c=
-----END CERTIFICATE-----
