Certificate:
    Data:
        Version: 3 (0x2)
        Serial Number:
            3b:67:17:07:f2:51:59:b0:17:c9:76:30:cb:45:96:20:83:dd:28:5f
        Signature Algorithm: sha256WithRSAEncryption
        Issuer: DC=org, DC=dataone, CN=DataONE Test 256 CA
        Validity
            Not Before: Nov  9 06:29:42 2023 GMT
            Not After : Oct 16 06:29:42 2123 GMT
        Subject: DC=org, DC=dataone, CN=DataONE Test Intermediate CA
        Subject Public Key Info:
            Public Key Algorithm: rsaEncryption
                Public-Key: (4096 bit)
                Modulus:
                    00:c9:f7:9b:6e:e4:13:8c:31:d4:57:4e:b5:08:87:
                    09:70:01:c2:15:e5:0f:c2:53:19:d5:1a:d4:84:4e:
                    46:aa:5a:ce:63:76:6d:cb:ff:69:61:bf:14:f8:7d:
                    e6:76:40:05:55:be:6a:75:e2:1d:6b:62:83:8d:24:
                    1e:2d:66:7b:0f:a7:62:27:85:5d:48:f2:e3:4e:27:
                    2c:e7:66:b2:9f:90:2f:e9:f9:8b:6c:4d:ae:9c:8e:
                    04:ac:e9:72:17:b1:56:53:21:6f:e0:e4:64:9e:ce:
                    41:43:8a:39:1b:b3:59:e2:18:34:03:5c:11:28:ac:
                    bc:c3:88:d2:5e:7a:cb:4b:d3:82:7d:d1:99:70:56:
                    fa:89:01:7c:48:3a:d0:da:ac:e1:6e:2d:1e:4c:fc:
                    bd:c9:26:3c:38:db:48:f3:30:d9:1c:51:5f:26:1f:
                    4f:9b:61:5a:66:d7:f3:44:7b:82:04:88:53:61:e3:
                    e4:0a:6b:a6:65:06:e0:30:ee:a2:d4:23:2b:6c:f9:
                    87:3b:92:2f:65:23:2b:ef:a2:c3:96:89:60:37:22:
                    96:74:b2:ba:a5:fc:5d:48:8f:be:4a:3c:d9:88:89:
                    0a:70:46:fc:48:f0:11:63:3a:46:42:32:05:2e:50:
                    bc:30:bd:b4:9c:1f:86:74:c3:e0:e7:d3:5a:e1:63:
                    0f:44:df:b2:67:01:a2:bb:5a:f7:18:88:d9:15:66:
                    05:37:14:22:b9:3e:f3:45:bf:8c:5a:ba:2a:9d:2a:
                    ce:9e:db:05:b7:54:20:a9:17:f7:73:fb:ad:de:1b:
                    e2:1e:d0:3b:3a:08:78:4a:65:df:62:ab:8e:4f:63:
                    2a:a8:5f:3a:bf:0b:b2:b6:fe:ff:de:e5:61:6e:f2:
                    7a:80:f4:14:09:5c:c6:8b:a7:07:43:24:91:4b:19:
                    4f:62:22:d6:7b:fc:3b:e4:32:40:80:48:70:9d:b2:
                    91:4b:08:e0:df:97:d9:30:78:73:48:f7:68:22:d0:
                    1e:dd:b9:51:b0:66:91:4e:cc:a1:17:e6:da:ad:d9:
                    54:fe:a9:cf:2c:c7:8e:23:6e:2e:cb:01:27:54:e3:
                    e2:fe:9e:71:27:19:59:95:52:68:53:e4:79:66:5e:
                    28:87:fc:cf:6e:83:62:87:d1:b0:b2:c5:11:9b:35:
                    d8:1c:a2:92:26:26:e5:89:94:8d:6e:3e:54:0f:76:
                    74:10:47:06:7c:c4:a7:4f:f5:e0:dc:5e:42:f8:7f:
                    94:4f:f9:f9:b1:29:29:a7:f7:a1:b8:0b:42:c2:10:
                    6a:cb:94:cd:57:d4:44:f6:a3:97:64:2c:19:34:25:
                    12:34:08:83:73:2e:01:36:72:3c:e4:04:bf:a3:90:
                    2a:1e:13
                Exponent: 65537 (0x10001)
        X509v3 extensions:
            X509v3 Subject Key Identifier: 
                EF:2E:C1:27:6C:2A:8A:09:AB:6C:C3:45:7F:3B:F9:57:D5:16:A9:B3
            X509v3 Authority Key Identifier: 
                42:55:08:AD:66:25:B4:BE:27:90:53:61:45:A2:35:6C:B9:FF:CA:B4
            X509v3 Basic Constraints: 
                CA:TRUE
            X509v3 CRL Distribution Points: 
                Full Name:
                  URI:http://releases.dataone.org/crl/DataONETest256CA_CRL.pem
                Full Name:
                  URI:http://cn-ucsb-1.dataone.org/crl/DataONETest256CA_CRL.pem
                Full Name:
                  URI:http://cn-orc-1.dataone.org/crl/DataONETest256CA_CRL.pem
    Signature Algorithm: sha256WithRSAEncryption
    Signature Value:
        2a:1b:4c:ec:fe:c2:be:3d:0b:62:eb:d0:4b:fa:fc:0f:89:e0:
        f3:28:cf:57:b3:aa:59:27:b6:9b:4f:dd:22:09:68:78:eb:dd:
        65:46:f6:e0:0a:19:44:48:5f:9e:f3:8a:f2:a1:25:6b:8f:86:
        86:33:db:ed:b9:ce:64:9e:aa:91:89:61:b0:d8:d2:08:19:ad:
        7a:bd:a0:0c:1f:98:2d:79:b8:c4:10:d2:a4:4e:3c:9b:d8:9a:
        19:b4:37:e4:6d:55:f5:08:3a:38:8c:b3:9f:ff:52:5e:c9:d6:
        a8:94:4b:a3:5e:b7:a1:4b:19:90:24:e8:b2:c9:ba:da:b2:75:
        d2:c9:a3:33:43:26:73:d1:e9:44:76:da:be:fd:72:cd:01:1d:
        0e:34:e3:f2:b8:35:b8:63:8a:1b:86:41:c3:f1:18:47:34:11:
        69:a5:90:0d:21:05:f7:a3:b9:d5:28:f2:77:a5:c8:ea:7a:f3:
        f7:ce:ae:d7:f1:1d:4c:2e:a4:a6:4b:7a:9a:0f:1c:db:20:a3:
        b7:04:70:2f:11:c1:04:af:c0:d8:39:e0:79:89:e8:10:be:4b:
        e6:9f:ac:3a:6a:75:39:49:76:ca:1d:46:20:60:df:84:cd:5f:
        0a:8e:48:77:54:86:c8:46:91:91:c1:f4:e6:ed:d1:31:37:7a:
        e8:ce:dc:15:37:04:7b:13:d8:31:06:24:be:4b:9c:6a:2f:3d:
        43:77:1f:ee:10:01:25:b8:b7:a6:99:dd:90:e8:d8:33:34:cc:
        66:87:4d:d9:e9:29:88:10:1e:b8:2f:15:59:73:96:df:cf:66:
        1e:23:a4:43:f0:ee:c9:2e:e1:ab:a3:b1:db:9e:df:c8:9e:1d:
        64:f1:d2:92:86:7c:5b:0b:72:34:59:3f:e5:eb:fc:7b:47:5b:
        bf:e1:56:9c:92:b6:b3:72:a5:75:0f:37:f5:01:48:6a:e3:80:
        16:2f:e0:25:30:06:3d:d0:5f:0d:25:c1:c2:01:b8:cf:3b:30:
        69:f6:88:16:de:d1:f5:8b:e2:53:6a:d3:c9:6d:95:dd:1e:58:
        5e:8d:a0:b5:75:c0:59:d7:10:81:e1:41:bf:47:b2:a0:77:62:
        10:f0:5e:88:47:dd:68:18:5b:e9:0c:2e:08:94:df:13:9a:af:
        05:be:3d:95:de:51:f9:63:2c:d9:92:09:f3:c0:9c:75:7f:ac:
        24:16:ae:a4:db:f3:bd:14:04:a4:cb:ec:3e:8c:04:20:10:3b:
        9d:a5:75:49:6a:7b:31:b6:4d:03:a9:bd:21:4c:e9:b8:65:ec:
        70:06:ef:7d:6a:3b:bd:d7:8d:2c:ef:d3:7c:b9:3b:c9:22:ca:
        ac:9d:9d:bc:ea:67:b9:1c
-----BEGIN CERTIFICATE-----
MIIGVDCCBDygAwIBAgIUO2cXB/JRWbAXyXYwy0WWIIPdKF8wDQYJKoZIhvcNAQEL
BQAwTDETMBEGCgmSJomT8ixkARkWA29yZzEXMBUGCgmSJomT8ixkARkWB2RhdGFv
bmUxHDAaBgNVBAMME0RhdGFPTkUgVGVzdCAyNTYgQ0EwIBcNMjMxMTA5MDYyOTQy
WhgPMjEyMzEwMTYwNjI5NDJaMFUxEzARBgoJkiaJk/IsZAEZFgNvcmcxFzAVBgoJ
kiaJk/IsZAEZFgdkYXRhb25lMSUwIwYDVQQDDBxEYXRhT05FIFRlc3QgSW50ZXJt
ZWRpYXRlIENBMIICIjANBgkqhkiG9w0BAQEFAAOCAg8AMIICCgKCAgEAyfebbuQT
jDHUV061CIcJcAHCFeUPwlMZ1RrUhE5GqlrOY3Zty/9pYb8U+H3mdkAFVb5qdeId
a2KDjSQeLWZ7D6diJ4VdSPLjTics52ayn5Av6fmLbE2unI4ErOlyF7FWUyFv4ORk
ns5BQ4o5G7NZ4hg0A1wRKKy8w4jSXnrLS9OCfdGZcFb6iQF8SDrQ2qzhbi0eTPy9
ySY8ONtI8zDZHFFfJh9Pm2FaZtfzRHuCBIhTYePkCmumZQbgMO6i1CMrbPmHO5Iv
ZSMr76LDlolgNyKWdLK6pfxdSI++SjzZiIkKcEb8SPARYzpGQjIFLlC8ML20nB+G
dMPg59Na4WMPRN+yZwGiu1r3GIjZFWYFNxQiuT7zRb+MWroqnSrOntsFt1QgqRf3
c/ut3hviHtA7Ogh4SmXfYquOT2MqqF86vwuytv7/3uVhbvJ6gPQUCVzGi6cHQySR
SxlPYiLWe/w75DJAgEhwnbKRSwjg35fZMHhzSPdoItAe3blRsGaRTsyhF+bardlU
/qnPLMeOI24uywEnVOPi/p5xJxlZlVJoU+R5Zl4oh/zPboNih9GwssURmzXYHKKS
JibliZSNbj5UD3Z0EEcGfMSnT/Xg3F5C+H+UT/n5sSkpp/ehuAtCwhBqy5TNV9RE
9qOXZCwZNCUSNAiDcy4BNnI85AS/o5AqHhMCAwEAAaOCASEwggEdMB0GA1UdDgQW
BBTvLsEnbCqKCatsw0V/O/lX1RapszAfBgNVHSMEGDAWgBRCVQitZiW0vieQU2FF
ojVsuf/KtDAMBgNVHRMEBTADAQH/MIHMBgNVHR8EgcQwgcEwPqA8oDqGOGh0dHA6
Ly9yZWxlYXNlcy5kYXRhb25lLm9yZy9jcmwvRGF0YU9ORVRlc3QyNTZDQV9DUkwu
cGVtMD+gPaA7hjlodHRwOi8vY24tdWNzYi0xLmRhdGFvbmUub3JnL2NybC9EYXRh
T05FVGVzdDI1NkNBX0NSTC5wZW0wPqA8oDqGOGh0dHA6Ly9jbi1vcmMtMS5kYXRh
b25lLm9yZy9jcmwvRGF0YU9ORVRlc3QyNTZDQV9DUkwucGVtMA0GCSqGSIb3DQEB
CwUAA4ICAQAqG0zs/sK+PQti69BL+vwPieDzKM9Xs6pZJ7abT90iCWh4691lRvbg
ChlESF+e84ryoSVrj4aGM9vtuc5knqqRiWGw2NIIGa16vaAMH5gtebjEENKkTjyb
2JoZtDfkbVX1CDo4jLOf/1JeydaolEujXrehSxmQJOiyybrasnXSyaMzQyZz0elE
dtq+/XLNAR0ONOPyuDW4Y4obhkHD8RhHNBFppZANIQX3o7nVKPJ3pcjqevP3zq7X
8R1MLqSmS3qaDxzbIKO3BHAvEcEEr8DYOeB5iegQvkvmn6w6anU5SXbKHUYgYN+E
zV8Kjkh3VIbIRpGRwfTm7dExN3roztwVNwR7E9gxBiS+S5xqLz1Ddx/uEAEluLem
md2Q6NgzNMxmh03Z6SmIEB64LxVZc5bfz2YeI6RD8O7JLuGro7Hbnt/Inh1k8dKS
hnxbC3I0WT/l6/x7R1u/4VackrazcqV1Dzf1AUhq44AWL+AlMAY90F8NJcHCAbjP
OzBp9ogW3tH1i+JTatPJbZXdHlhejaC1dcBZ1xCB4UG/R7Kgd2IQ8F6IR91oGFvp
DC4IlN8Tmq8Fvj2V3lH5YyzZkgnzwJx1f6wkFq6k2/O9FASky+w+jAQgEDudpXVJ
ansxtk0Dqb0hTOm4ZexwBu99aju9140s79N8uTvJIsqsnZ286me5HA==
-----END CERTIFICATE-----
