Certificate:
    Data:
        Version: 3 (0x2)
        Serial Number:
            ac:ee:8c:a3:21:4d:a1:98
        Signature Algorithm: sha1WithRSAEncryption
        Issuer: dc=org/dc=dataone, CN=DataONE Root CA
        Validity
            Not Before: Mar  8 01:43:57 2012 GMT
            Not After : Feb 13 01:43:57 2112 GMT
        Subject: dc=org/dc=dataone, CN=DataONE Production CA
        Subject Public Key Info:
            Public Key Algorithm: rsaEncryption
                Public-Key: (4096 bit)
                Modulus:
                    00:b0:e7:20:a6:6d:ed:34:b4:de:b6:2e:05:57:fd:
                    43:34:fd:90:a0:9f:41:3b:8e:12:71:6f:a4:f5:db:
                    c9:04:1d:22:36:b7:c2:64:0b:53:42:1f:1f:a2:6b:
                    e6:73:2a:ca:82:25:87:be:d9:52:44:f9:9b:04:4d:
                    27:0a:42:12:2f:09:44:f6:07:14:10:72:61:ee:bd:
                    96:6f:a5:ca:4d:29:42:a6:77:c8:8e:b5:ad:a7:46:
                    97:9b:54:5d:98:ec:8f:3d:e8:ca:9f:c3:c9:d6:af:
                    3b:12:72:ce:18:e5:25:e5:55:e8:1f:f0:0a:08:1b:
                    76:16:7b:1c:52:8f:55:98:d4:8c:7a:8e:82:c4:f2:
                    48:fe:3c:7f:e5:a9:5d:0a:68:a1:94:ae:66:21:60:
                    c5:03:9c:b2:47:be:f9:b4:6e:42:db:4b:df:b1:84:
                    b9:d6:7d:d7:c4:7d:c6:20:3d:b4:90:d2:a5:92:8e:
                    f2:da:d9:f8:b2:aa:28:f1:0b:2d:f2:a0:6d:39:f8:
                    6f:c0:4d:bb:37:82:f3:02:db:d9:b0:07:67:1c:34:
                    4f:d9:b0:b1:01:5b:ca:b2:89:47:f9:11:fa:3e:b9:
                    17:99:77:f0:fd:52:85:0f:63:b8:8d:06:47:6d:7a:
                    03:77:9c:87:81:49:5f:54:24:e3:d9:4f:32:3d:bd:
                    58:67:21:07:3f:4b:6e:e1:ff:a7:69:0c:e6:f9:a3:
                    93:f8:2f:af:49:84:77:3d:c6:67:2b:eb:3a:45:74:
                    38:8a:21:32:df:a3:76:3b:c9:33:2c:14:73:14:00:
                    d0:09:04:f5:e0:fd:fe:dc:10:45:9c:b2:1b:0f:9d:
                    ac:04:f5:df:25:b0:ad:6c:27:2b:9c:a6:0c:34:4b:
                    b9:41:8e:ca:1a:85:96:b5:b8:b1:fd:c4:7e:7e:13:
                    cc:47:58:9f:7c:15:cb:05:fc:de:82:24:82:77:51:
                    e1:e7:7f:ca:2f:32:0a:e1:84:d4:2a:97:ce:bf:65:
                    62:f3:fa:87:3a:7c:28:00:1b:3a:85:2b:fe:13:bb:
                    57:cf:4c:73:6a:bd:c8:cb:71:11:97:a5:1d:03:ce:
                    9a:57:c4:49:b8:d8:0a:35:fe:6d:7d:c8:ed:65:19:
                    43:d0:b0:b1:79:ef:08:3c:8e:fd:40:b8:59:91:4a:
                    12:8f:98:d9:c8:c6:73:03:82:9c:5f:f9:29:9b:6f:
                    bb:eb:d6:73:6e:3e:39:fe:57:f6:21:8f:fd:9a:a9:
                    94:df:c9:af:5a:c5:fe:8a:14:5f:7f:60:47:ac:37:
                    62:fa:f0:ca:ee:2c:8b:b0:11:d0:01:0c:7f:85:44:
                    22:bc:7f:15:6b:3e:2a:16:a3:3a:b1:7d:42:1d:ee:
                    63:0d:c3
                Exponent: 65537 (0x10001)
        X509v3 extensions:
            X509v3 Subject Key Identifier: 
                BD:C5:21:FE:16:AF:2F:0E:83:DB:B7:65:FF:18:C5:D6:BD:89:A6:2B
            X509v3 Authority Key Identifier: 
                keyid:71:E6:9D:93:23:19:34:A2:75:92:FE:7C:2A:8B:66:E0:F3:03:6E:EA

            X509v3 Basic Constraints: 
                CA:TRUE
            X509v3 CRL Distribution Points: 

                Full Name:
                  URI:http://cn-ucsb-1.dataone.org/crl/DataONERootCA_CRL.pem

                Full Name:
                  URI:http://cn-unm-1.dataone.org/crl/DataONERootCA_CRL.pem

                Full Name:
                  URI:http://cn-orc-1.dataone.org/crl/DataONERootCA_CRL.pem

    Signature Algorithm: sha1WithRSAEncryption
        2d:cf:d6:be:69:c3:dc:ff:49:8c:78:90:3f:03:52:a2:a6:8d:
        fe:4f:3e:8b:26:1e:3f:91:eb:e1:a2:b7:a7:4b:2d:8a:c8:e4:
        f8:05:35:d2:e7:8a:29:f7:21:aa:5e:ec:46:ff:be:05:f5:bc:
        cf:42:c5:f8:0d:97:46:7e:2d:99:12:08:00:97:67:05:ca:36:
        a9:05:9e:c0:36:5c:d4:b7:68:9f:c3:f6:b7:a3:79:f0:c4:92:
        e6:82:22:35:5e:95:21:46:f7:7d:47:b6:81:6b:33:86:37:31:
        13:f6:55:9e:c5:cc:c1:c0:01:bd:f6:f9:61:45:42:15:0d:6b:
        db:b9:17:33:44:e2:36:96:ef:03:c6:61:94:d2:20:89:1e:d2:
        7c:1a:1e:7f:ee:cc:27:6b:2d:49:82:47:ba:bb:17:32:5d:14:
        a7:49:bf:e3:bf:93:50:e4:06:f4:72:1e:a2:f1:8b:26:ad:1b:
        46:4a:2f:a6:d2:e1:67:36:0d:94:4c:4f:d3:9b:89:f7:eb:85:
        b0:56:00:7d:f4:a3:cf:3d:35:56:a3:d0:a3:0e:e4:14:65:73:
        b9:4d:2a:ac:d1:6e:aa:8b:3c:a5:6c:0d:95:29:38:b5:a9:8e:
        e3:18:76:44:7a:81:c8:31:34:09:56:a6:b9:8e:d4:4c:72:9c:
        1c:83:2a:ba:7c:21:26:d6:94:ea:5f:97:81:5c:30:b1:9b:7c:
        75:65:b4:c2:7c:ec:24:96:80:4a:82:85:4b:22:5c:69:d5:ca:
        c3:72:75:f1:3c:cf:46:82:05:50:93:90:94:c0:44:aa:aa:90:
        72:63:29:9d:94:68:f4:ef:74:34:e2:90:d2:c6:e4:58:01:9b:
        96:72:0c:b1:f1:3a:ee:a0:b4:dc:b5:64:b0:c9:c6:0d:1a:6c:
        99:c9:f8:3b:6b:7f:73:7f:c4:8e:e9:1a:42:ad:25:fd:d5:1a:
        fd:97:2b:8a:34:e6:01:67:57:83:28:43:ab:bb:02:54:94:84:
        75:97:15:54:96:11:4b:6b:f5:96:74:75:1f:61:9e:6b:22:5d:
        f1:18:87:53:c7:38:71:bd:14:58:ba:f8:96:f8:fd:2c:21:0e:
        9d:a1:3c:f0:4d:c2:81:a9:9a:b6:68:5d:56:4f:ba:09:d6:e6:
        6d:f0:dd:52:d0:f0:f8:f9:c6:da:1b:2d:e6:48:1d:ce:fe:28:
        fc:c0:66:df:a1:78:ac:56:81:9e:8c:7c:c1:b8:a7:56:b2:9a:
        0a:23:8a:d7:56:41:41:a5:0f:24:f8:f9:12:22:c3:d0:81:37:
        a0:ea:88:cf:7b:ef:0e:44:d6:5f:ad:15:7f:14:63:9c:a4:4b:
        34:b0:64:09:66:3b:fe:f6
-----BEGIN CERTIFICATE-----
MIIGNTCCBB2gAwIBAgIJAKzujKMhTaGYMA0GCSqGSIb3DQEBBQUAMEgxEzARBgoJ
kiaJk/IsZAEZFgNvcmcxFzAVBgoJkiaJk/IsZAEZFgdkYXRhb25lMRgwFgYDVQQD
DA9EYXRhT05FIFJvb3QgQ0EwIBcNMTIwMzA4MDE0MzU3WhgPMjExMjAyMTMwMTQz
NTdaME4xEzARBgoJkiaJk/IsZAEZFgNvcmcxFzAVBgoJkiaJk/IsZAEZFgdkYXRh
b25lMR4wHAYDVQQDDBVEYXRhT05FIFByb2R1Y3Rpb24gQ0EwggIiMA0GCSqGSIb3
DQEBAQUAA4ICDwAwggIKAoICAQCw5yCmbe00tN62LgVX/UM0/ZCgn0E7jhJxb6T1
28kEHSI2t8JkC1NCHx+ia+ZzKsqCJYe+2VJE+ZsETScKQhIvCUT2BxQQcmHuvZZv
pcpNKUKmd8iOta2nRpebVF2Y7I896Mqfw8nWrzsScs4Y5SXlVegf8AoIG3YWexxS
j1WY1Ix6joLE8kj+PH/lqV0KaKGUrmYhYMUDnLJHvvm0bkLbS9+xhLnWfdfEfcYg
PbSQ0qWSjvLa2fiyqijxCy3yoG05+G/ATbs3gvMC29mwB2ccNE/ZsLEBW8qyiUf5
Efo+uReZd/D9UoUPY7iNBkdtegN3nIeBSV9UJOPZTzI9vVhnIQc/S27h/6dpDOb5
o5P4L69JhHc9xmcr6zpFdDiKITLfo3Y7yTMsFHMUANAJBPXg/f7cEEWcshsPnawE
9d8lsK1sJyucpgw0S7lBjsoahZa1uLH9xH5+E8xHWJ98FcsF/N6CJIJ3UeHnf8ov
MgrhhNQql86/ZWLz+oc6fCgAGzqFK/4Tu1fPTHNqvcjLcRGXpR0DzppXxEm42Ao1
/m19yO1lGUPQsLF57wg8jv1AuFmRShKPmNnIxnMDgpxf+Smbb7vr1nNuPjn+V/Yh
j/2aqZTfya9axf6KFF9/YEesN2L68MruLIuwEdABDH+FRCK8fxVrPioWozqxfUId
7mMNwwIDAQABo4IBGDCCARQwHQYDVR0OBBYEFL3FIf4Wry8Og9u3Zf8Yxda9iaYr
MB8GA1UdIwQYMBaAFHHmnZMjGTSidZL+fCqLZuDzA27qMAwGA1UdEwQFMAMBAf8w
gcMGA1UdHwSBuzCBuDA8oDqgOIY2aHR0cDovL2NuLXVjc2ItMS5kYXRhb25lLm9y
Zy9jcmwvRGF0YU9ORVJvb3RDQV9DUkwucGVtMDugOaA3hjVodHRwOi8vY24tdW5t
LTEuZGF0YW9uZS5vcmcvY3JsL0RhdGFPTkVSb290Q0FfQ1JMLnBlbTA7oDmgN4Y1
aHR0cDovL2NuLW9yYy0xLmRhdGFvbmUub3JnL2NybC9EYXRhT05FUm9vdENBX0NS
TC5wZW0wDQYJKoZIhvcNAQEFBQADggIBAC3P1r5pw9z/SYx4kD8DUqKmjf5PPosm
Hj+R6+Git6dLLYrI5PgFNdLniin3Iape7Eb/vgX1vM9CxfgNl0Z+LZkSCACXZwXK
NqkFnsA2XNS3aJ/D9rejefDEkuaCIjVelSFG931HtoFrM4Y3MRP2VZ7FzMHAAb32
+WFFQhUNa9u5FzNE4jaW7wPGYZTSIIke0nwaHn/uzCdrLUmCR7q7FzJdFKdJv+O/
k1DkBvRyHqLxiyatG0ZKL6bS4Wc2DZRMT9ObiffrhbBWAH30o889NVaj0KMO5BRl
c7lNKqzRbqqLPKVsDZUpOLWpjuMYdkR6gcgxNAlWprmO1ExynByDKrp8ISbWlOpf
l4FcMLGbfHVltMJ87CSWgEqChUsiXGnVysNydfE8z0aCBVCTkJTARKqqkHJjKZ2U
aPTvdDTikNLG5FgBm5ZyDLHxOu6gtNy1ZLDJxg0abJnJ+Dtrf3N/xI7pGkKtJf3V
Gv2XK4o05gFnV4MoQ6u7AlSUhHWXFVSWEUtr9ZZ0dR9hnmsiXfEYh1PHOHG9FFi6
+Jb4/SwhDp2hPPBNwoGpmrZoXVZPugnW5m3w3VLQ8Pj5xtobLeZIHc7+KPzAZt+h
eKxWgZ6MfMG4p1aymgojitdWQUGlDyT4+RIiw9CBN6DqiM977w5E1l+tFX8UY5yk
SzSwZAlmO/72
-----END CERTIFICATE-----
